ARM GAS  C:\Users\jsing\AppData\Local\Temp\ccfzye9U.s 			page 1


   1              		.cpu cortex-m0
   2              		.fpu softvfp
   3              		.eabi_attribute 20, 1
   4              		.eabi_attribute 21, 1
   5              		.eabi_attribute 23, 3
   6              		.eabi_attribute 24, 1
   7              		.eabi_attribute 25, 1
   8              		.eabi_attribute 26, 1
   9              		.eabi_attribute 30, 6
  10              		.eabi_attribute 34, 0
  11              		.eabi_attribute 18, 4
  12              		.code	16
  13              		.file	"CapSense_SMS.c"
  14              		.text
  15              	.Ltext0:
  16              		.cfi_sections	.debug_frame
  17              		.global	prescalerTable
  18              		.section	.rodata
  19              		.align	2
  20              		.type	prescalerTable, %object
  21              		.size	prescalerTable, 16
  22              	prescalerTable:
  23 0000 01       		.byte	1
  24 0001 01       		.byte	1
  25 0002 01       		.byte	1
  26 0003 02       		.byte	2
  27 0004 02       		.byte	2
  28 0005 02       		.byte	2
  29 0006 02       		.byte	2
  30 0007 04       		.byte	4
  31 0008 04       		.byte	4
  32 0009 04       		.byte	4
  33 000a 04       		.byte	4
  34 000b 04       		.byte	4
  35 000c 04       		.byte	4
  36 000d 04       		.byte	4
  37 000e 04       		.byte	4
  38 000f 04       		.byte	4
  39              		.comm	noiseEnvelopeTbl,1,4
  40              		.comm	runningDifferenceTbl,1,4
  41              		.comm	signRegisterTbl,1,4
  42              		.comm	sampleMinTbl,2,4
  43              		.comm	sampleMaxTbl,2,4
  44              		.comm	previousSampleTbl,2,4
  45              		.comm	kValueTbl,1,4
  46              		.global	SMS_LIB_SensorSensitivity
  47              		.data
  48              		.align	2
  49              		.type	SMS_LIB_SensorSensitivity, %object
  50              		.size	SMS_LIB_SensorSensitivity, 1
  51              	SMS_LIB_SensorSensitivity:
  52 0000 02       		.byte	2
  53              		.comm	CapSense_config,12,4
  54              		.global	CapSense_configPointers
  55 0001 000000   		.section	.rodata
  56              		.align	2
  57              		.type	CapSense_configPointers, %object
ARM GAS  C:\Users\jsing\AppData\Local\Temp\ccfzye9U.s 			page 2


  58              		.size	CapSense_configPointers, 56
  59              	CapSense_configPointers:
  60 0010 00000000 		.word	CapSense_modulationIDAC
  61 0014 00000000 		.word	CapSense_compensationIDAC
  62 0018 00000000 		.word	SMS_LIB_SensorSensitivity
  63 001c 00000000 		.word	CapSense_senseClkDividerVal
  64 0020 00000000 		.word	CapSense_sampleClkDividerVal
  65 0024 00000000 		.word	CapSense_widgetNumber
  66 0028 00000000 		.word	CapSense_widgetResolution
  67 002c 00000000 		.word	CapSense_rawDataIndex
  68 0030 00000000 		.word	CapSense_numberOfSensors
  69 0034 00000000 		.word	CapSense_GetSensorRaw
  70 0038 00000000 		.word	CapSense_PreScan
  71 003c 00000000 		.word	CapSense_ReadSensorRaw
  72 0040 00000000 		.word	CapSense_GetBitValue
  73 0044 00000000 		.word	CapSense_SetBitValue
  74              		.section	.text.CapSense_AutoTune,"ax",%progbits
  75              		.align	2
  76              		.global	CapSense_AutoTune
  77              		.code	16
  78              		.thumb_func
  79              		.type	CapSense_AutoTune, %function
  80              	CapSense_AutoTune:
  81              	.LFB35:
  82              		.file 1 ".\\Generated_Source\\PSoC4\\CapSense_SMS.c"
   1:.\Generated_Source\PSoC4/CapSense_SMS.c **** /*******************************************************************************
   2:.\Generated_Source\PSoC4/CapSense_SMS.c **** * File Name: CapSense_SMS.c
   3:.\Generated_Source\PSoC4/CapSense_SMS.c **** * Version 2.10
   4:.\Generated_Source\PSoC4/CapSense_SMS.c **** *
   5:.\Generated_Source\PSoC4/CapSense_SMS.c **** * Description:
   6:.\Generated_Source\PSoC4/CapSense_SMS.c **** *  This file provides the source code of wrapper between CapSense CSD component 
   7:.\Generated_Source\PSoC4/CapSense_SMS.c **** *  and Auto Tuning library.
   8:.\Generated_Source\PSoC4/CapSense_SMS.c **** *
   9:.\Generated_Source\PSoC4/CapSense_SMS.c **** * Note:
  10:.\Generated_Source\PSoC4/CapSense_SMS.c **** *
  11:.\Generated_Source\PSoC4/CapSense_SMS.c **** ********************************************************************************
  12:.\Generated_Source\PSoC4/CapSense_SMS.c **** * Copyright 2014, Cypress Semiconductor Corporation.  All rights reserved.
  13:.\Generated_Source\PSoC4/CapSense_SMS.c **** * You may use this file only in accordance with the license, terms, conditions,
  14:.\Generated_Source\PSoC4/CapSense_SMS.c **** * disclaimers, and limitations in the end user license agreement accompanying
  15:.\Generated_Source\PSoC4/CapSense_SMS.c **** * the software package with which this file was provided.
  16:.\Generated_Source\PSoC4/CapSense_SMS.c **** *******************************************************************************/
  17:.\Generated_Source\PSoC4/CapSense_SMS.c **** 
  18:.\Generated_Source\PSoC4/CapSense_SMS.c **** #include "CapSense_SMS.h"
  19:.\Generated_Source\PSoC4/CapSense_SMS.c **** #include "CapSense_PVT.h"
  20:.\Generated_Source\PSoC4/CapSense_SMS.c **** 
  21:.\Generated_Source\PSoC4/CapSense_SMS.c **** #include "cytypes.h"
  22:.\Generated_Source\PSoC4/CapSense_SMS.c **** 
  23:.\Generated_Source\PSoC4/CapSense_SMS.c **** #if (CapSense_TUNING_METHOD == CapSense__TUNING_AUTO)
  24:.\Generated_Source\PSoC4/CapSense_SMS.c **** 
  25:.\Generated_Source\PSoC4/CapSense_SMS.c **** 
  26:.\Generated_Source\PSoC4/CapSense_SMS.c **** /*  Real Charge Divider values */
  27:.\Generated_Source\PSoC4/CapSense_SMS.c **** #if (CY_PSOC4_4200BL)
  28:.\Generated_Source\PSoC4/CapSense_SMS.c ****     /*  Dividers are not chained */
  29:.\Generated_Source\PSoC4/CapSense_SMS.c **** 	#if (CYDEV_BCLK__HFCLK__MHZ > 24u)
  30:.\Generated_Source\PSoC4/CapSense_SMS.c **** 		const uint8 prescalerTable[CapSense_PRESCALERS_TBL_SIZE] = {
  31:.\Generated_Source\PSoC4/CapSense_SMS.c **** 			4u,     4u,     4u,    8u,    8u,    8u,    8u,    16u,    16u,    16u,    16u,    16u,    16u, 
  32:.\Generated_Source\PSoC4/CapSense_SMS.c **** 		};
ARM GAS  C:\Users\jsing\AppData\Local\Temp\ccfzye9U.s 			page 3


  33:.\Generated_Source\PSoC4/CapSense_SMS.c **** 	#elif (CYDEV_BCLK__HFCLK__MHZ >12u)
  34:.\Generated_Source\PSoC4/CapSense_SMS.c **** 		const uint8 prescalerTable[CapSense_PRESCALERS_TBL_SIZE] = {
  35:.\Generated_Source\PSoC4/CapSense_SMS.c **** 			2u,     2u,     2u,    4u,    4u,    4u,    4u,    8u,    8u,    8u,    8u,    8u,    8u,    8u,
  36:.\Generated_Source\PSoC4/CapSense_SMS.c **** 		};
  37:.\Generated_Source\PSoC4/CapSense_SMS.c **** 	#else   /* (CYDEV_BCLK__HFCLK__MHZ > 12u) */
  38:.\Generated_Source\PSoC4/CapSense_SMS.c **** 		const uint8 prescalerTable[CapSense_PRESCALERS_TBL_SIZE] = {
  39:.\Generated_Source\PSoC4/CapSense_SMS.c **** 			1u,     1u,     1u,    2u,    2u,    2u,    2u,    4u,    4u,    4u,    4u,    4u,    4u,    4u,
  40:.\Generated_Source\PSoC4/CapSense_SMS.c **** 		};
  41:.\Generated_Source\PSoC4/CapSense_SMS.c **** 	#endif /* (CYDEV_BCLK__HFCLK__MHZ > 24u) */
  42:.\Generated_Source\PSoC4/CapSense_SMS.c **** 	
  43:.\Generated_Source\PSoC4/CapSense_SMS.c **** #elif (0u != CapSense_IS_M0S8PERI_BLOCK)
  44:.\Generated_Source\PSoC4/CapSense_SMS.c ****     /*  Dividers are not chained */
  45:.\Generated_Source\PSoC4/CapSense_SMS.c **** 	#if (CYDEV_BCLK__HFCLK__MHZ >= 12u)
  46:.\Generated_Source\PSoC4/CapSense_SMS.c **** 		const uint8 prescalerTable[CapSense_PRESCALERS_TBL_SIZE] = {
  47:.\Generated_Source\PSoC4/CapSense_SMS.c **** 			1u,     1u,     1u,    2u,    2u,    2u,    2u,    4u,    4u,    4u,    4u,    4u,    4u,    4u,
  48:.\Generated_Source\PSoC4/CapSense_SMS.c **** 		};
  49:.\Generated_Source\PSoC4/CapSense_SMS.c **** 
  50:.\Generated_Source\PSoC4/CapSense_SMS.c **** 	#elif (CYDEV_BCLK__HFCLK__MHZ >= 6u)
  51:.\Generated_Source\PSoC4/CapSense_SMS.c **** 		const uint8 prescalerTable[CapSense_PRESCALERS_TBL_SIZE] = {
  52:.\Generated_Source\PSoC4/CapSense_SMS.c **** 			1u,     1u,     1u,    1u,    1u,    1u,    1u,    2u,    2u,    2u,    2u,    2u,    2u,    2u,
  53:.\Generated_Source\PSoC4/CapSense_SMS.c **** 		};
  54:.\Generated_Source\PSoC4/CapSense_SMS.c **** 	#else
  55:.\Generated_Source\PSoC4/CapSense_SMS.c **** 		const uint8 prescalerTable[CapSense_PRESCALERS_TBL_SIZE] = {
  56:.\Generated_Source\PSoC4/CapSense_SMS.c **** 			1u,     1u,     1u,    1u,    1u,    1u,    1u,    1u,    1u,    1u,    1u,    1u,    1u,    1u,
  57:.\Generated_Source\PSoC4/CapSense_SMS.c **** 		};
  58:.\Generated_Source\PSoC4/CapSense_SMS.c **** 	#endif /* (CYDEV_BCLK__HFCLK__MHZ > 12u) */
  59:.\Generated_Source\PSoC4/CapSense_SMS.c **** 
  60:.\Generated_Source\PSoC4/CapSense_SMS.c **** #else
  61:.\Generated_Source\PSoC4/CapSense_SMS.c ****     /*  Dividers are chained */ 
  62:.\Generated_Source\PSoC4/CapSense_SMS.c **** 	#if (CYDEV_BCLK__HFCLK__MHZ > 24u)
  63:.\Generated_Source\PSoC4/CapSense_SMS.c **** 		const uint8 prescalerTable[CapSense_PRESCALERS_TBL_SIZE] = {
  64:.\Generated_Source\PSoC4/CapSense_SMS.c **** 			2u,     2u,     2u,    4u,    4u,    4u,    4u,    8u,    8u,    8u,    8u,    8u,    8u,    8u,
  65:.\Generated_Source\PSoC4/CapSense_SMS.c **** 		};
  66:.\Generated_Source\PSoC4/CapSense_SMS.c **** 
  67:.\Generated_Source\PSoC4/CapSense_SMS.c **** 	#elif (CYDEV_BCLK__HFCLK__MHZ >12u)
  68:.\Generated_Source\PSoC4/CapSense_SMS.c **** 		const uint8 prescalerTable[CapSense_PRESCALERS_TBL_SIZE] = {
  69:.\Generated_Source\PSoC4/CapSense_SMS.c **** 			1u,     1u,     1u,    2u,    2u,    2u,    2u,    4u,    4u,    4u,    4u,    4u,    4u,    4u,
  70:.\Generated_Source\PSoC4/CapSense_SMS.c **** 		};
  71:.\Generated_Source\PSoC4/CapSense_SMS.c **** 	#else   /* (CYDEV_BCLK__HFCLK__MHZ > 12u) */
  72:.\Generated_Source\PSoC4/CapSense_SMS.c **** 		const uint8 prescalerTable[CapSense_PRESCALERS_TBL_SIZE] = {
  73:.\Generated_Source\PSoC4/CapSense_SMS.c **** 			1u,     1u,     1u,    1u,    1u,    1u,    1u,    2u,    2u,    2u,    2u,    2u,    2u,    2u,
  74:.\Generated_Source\PSoC4/CapSense_SMS.c **** 		};
  75:.\Generated_Source\PSoC4/CapSense_SMS.c **** 	#endif /* (CYDEV_BCLK__HFCLK__MHZ > 24u) */
  76:.\Generated_Source\PSoC4/CapSense_SMS.c **** #endif /* (0u != CapSense_IS_M0S8PERI_BLOCK) */
  77:.\Generated_Source\PSoC4/CapSense_SMS.c **** 
  78:.\Generated_Source\PSoC4/CapSense_SMS.c **** 
  79:.\Generated_Source\PSoC4/CapSense_SMS.c **** uint8 noiseEnvelopeTbl[CapSense_TOTAL_SENSOR_COUNT];
  80:.\Generated_Source\PSoC4/CapSense_SMS.c **** uint8 runningDifferenceTbl[CapSense_TOTAL_SENSOR_COUNT];
  81:.\Generated_Source\PSoC4/CapSense_SMS.c **** uint8 signRegisterTbl[CapSense_TOTAL_SENSOR_COUNT];
  82:.\Generated_Source\PSoC4/CapSense_SMS.c **** uint16 sampleMinTbl[CapSense_TOTAL_SENSOR_COUNT];
  83:.\Generated_Source\PSoC4/CapSense_SMS.c **** uint16 sampleMaxTbl[CapSense_TOTAL_SENSOR_COUNT];
  84:.\Generated_Source\PSoC4/CapSense_SMS.c **** uint16 previousSampleTbl[CapSense_TOTAL_SENSOR_COUNT];
  85:.\Generated_Source\PSoC4/CapSense_SMS.c **** uint8 kValueTbl[CapSense_TOTAL_SENSOR_COUNT];
  86:.\Generated_Source\PSoC4/CapSense_SMS.c **** 
  87:.\Generated_Source\PSoC4/CapSense_SMS.c **** uint8 SMS_LIB_SensorSensitivity[] = {
  88:.\Generated_Source\PSoC4/CapSense_SMS.c ****     2u, 
  89:.\Generated_Source\PSoC4/CapSense_SMS.c **** };
ARM GAS  C:\Users\jsing\AppData\Local\Temp\ccfzye9U.s 			page 4


  90:.\Generated_Source\PSoC4/CapSense_SMS.c **** 
  91:.\Generated_Source\PSoC4/CapSense_SMS.c **** CapSense_CONFIG_TYPE_P4_v2_10 CapSense_config;
  92:.\Generated_Source\PSoC4/CapSense_SMS.c **** CapSense_CONFIG_TYPE_POINTERS_P4_v2_10 const CapSense_configPointers = {
  93:.\Generated_Source\PSoC4/CapSense_SMS.c ****     CapSense_modulationIDAC,
  94:.\Generated_Source\PSoC4/CapSense_SMS.c ****     CapSense_compensationIDAC,
  95:.\Generated_Source\PSoC4/CapSense_SMS.c ****      SMS_LIB_SensorSensitivity,
  96:.\Generated_Source\PSoC4/CapSense_SMS.c ****     CapSense_senseClkDividerVal,
  97:.\Generated_Source\PSoC4/CapSense_SMS.c ****     CapSense_sampleClkDividerVal,
  98:.\Generated_Source\PSoC4/CapSense_SMS.c ****     CapSense_widgetNumber,
  99:.\Generated_Source\PSoC4/CapSense_SMS.c ****     CapSense_widgetResolution,
 100:.\Generated_Source\PSoC4/CapSense_SMS.c **** 	(const uint8  *)CapSense_rawDataIndex,
 101:.\Generated_Source\PSoC4/CapSense_SMS.c **** 	(const uint8  *)CapSense_numberOfSensors,
 102:.\Generated_Source\PSoC4/CapSense_SMS.c ****     &CapSense_GetSensorRaw,
 103:.\Generated_Source\PSoC4/CapSense_SMS.c ****     &CapSense_PreScan,
 104:.\Generated_Source\PSoC4/CapSense_SMS.c ****     &CapSense_ReadSensorRaw,
 105:.\Generated_Source\PSoC4/CapSense_SMS.c ****     &CapSense_GetBitValue,
 106:.\Generated_Source\PSoC4/CapSense_SMS.c **** 	&CapSense_SetBitValue
 107:.\Generated_Source\PSoC4/CapSense_SMS.c **** };
 108:.\Generated_Source\PSoC4/CapSense_SMS.c **** 
 109:.\Generated_Source\PSoC4/CapSense_SMS.c **** 
 110:.\Generated_Source\PSoC4/CapSense_SMS.c **** /*******************************************************************************
 111:.\Generated_Source\PSoC4/CapSense_SMS.c **** * Function Name: CapSense_AutoTune
 112:.\Generated_Source\PSoC4/CapSense_SMS.c **** ********************************************************************************
 113:.\Generated_Source\PSoC4/CapSense_SMS.c **** *
 114:.\Generated_Source\PSoC4/CapSense_SMS.c **** * Summary:
 115:.\Generated_Source\PSoC4/CapSense_SMS.c **** *  Provides the tuning procedure for all sensors.
 116:.\Generated_Source\PSoC4/CapSense_SMS.c **** *
 117:.\Generated_Source\PSoC4/CapSense_SMS.c **** * Parameters:
 118:.\Generated_Source\PSoC4/CapSense_SMS.c **** *  None
 119:.\Generated_Source\PSoC4/CapSense_SMS.c **** *
 120:.\Generated_Source\PSoC4/CapSense_SMS.c **** * Return:
 121:.\Generated_Source\PSoC4/CapSense_SMS.c **** *  None
 122:.\Generated_Source\PSoC4/CapSense_SMS.c **** *
 123:.\Generated_Source\PSoC4/CapSense_SMS.c **** * Global Variables:
 124:.\Generated_Source\PSoC4/CapSense_SMS.c **** *   CapSense_config: the structure which contains configuration parameters
 125:.\Generated_Source\PSoC4/CapSense_SMS.c **** *   CapSense_senseClkDividerVal[]: used to store the Analog Switch 
 126:.\Generated_Source\PSoC4/CapSense_SMS.c **** *   dividers for each sensor.
 127:.\Generated_Source\PSoC4/CapSense_SMS.c **** *   CapSense_senseClkDividerVal[]: used to store the 
 128:.\Generated_Source\PSoC4/CapSense_SMS.c **** *    Analog Switch divider for all sensors.
 129:.\Generated_Source\PSoC4/CapSense_SMS.c **** *   CapSense_prescalersTuningDone - used to notify the Tuner GUI that 
 130:.\Generated_Source\PSoC4/CapSense_SMS.c **** *   the pre-scalers tuning  is done.
 131:.\Generated_Source\PSoC4/CapSense_SMS.c **** *
 132:.\Generated_Source\PSoC4/CapSense_SMS.c **** * Side Effects:
 133:.\Generated_Source\PSoC4/CapSense_SMS.c **** *  None
 134:.\Generated_Source\PSoC4/CapSense_SMS.c **** *
 135:.\Generated_Source\PSoC4/CapSense_SMS.c **** *******************************************************************************/
 136:.\Generated_Source\PSoC4/CapSense_SMS.c **** void CapSense_AutoTune(void)
 137:.\Generated_Source\PSoC4/CapSense_SMS.c **** {
  83              		.loc 1 137 0
  84              		.cfi_startproc
  85 0000 80B5     		push	{r7, lr}
  86              		.cfi_def_cfa_offset 8
  87              		.cfi_offset 7, -8
  88              		.cfi_offset 14, -4
  89 0002 82B0     		sub	sp, sp, #8
  90              		.cfi_def_cfa_offset 16
  91 0004 00AF     		add	r7, sp, #0
ARM GAS  C:\Users\jsing\AppData\Local\Temp\ccfzye9U.s 			page 5


  92              		.cfi_def_cfa_register 7
 138:.\Generated_Source\PSoC4/CapSense_SMS.c **** 	uint32 curSensor;
 139:.\Generated_Source\PSoC4/CapSense_SMS.c ****     uint32 widget;
 140:.\Generated_Source\PSoC4/CapSense_SMS.c **** 
 141:.\Generated_Source\PSoC4/CapSense_SMS.c **** 	CapSense_config.totalScanslotsNum = CapSense_TOTAL_SCANSLOT_COUNT;
  93              		.loc 1 141 0
  94 0006 314B     		ldr	r3, .L8
  95 0008 0122     		mov	r2, #1
  96 000a 1A70     		strb	r2, [r3]
 142:.\Generated_Source\PSoC4/CapSense_SMS.c **** 	CapSense_config.totalWidgetsNum = CapSense_END_OF_WIDGETS_INDEX;
  97              		.loc 1 142 0
  98 000c 2F4B     		ldr	r3, .L8
  99 000e 0122     		mov	r2, #1
 100 0010 5A70     		strb	r2, [r3, #1]
 143:.\Generated_Source\PSoC4/CapSense_SMS.c **** 	CapSense_config.totalSensorsNum = CapSense_TOTAL_SENSOR_COUNT;
 101              		.loc 1 143 0
 102 0012 2E4B     		ldr	r3, .L8
 103 0014 0122     		mov	r2, #1
 104 0016 9A70     		strb	r2, [r3, #2]
 144:.\Generated_Source\PSoC4/CapSense_SMS.c **** 	
 145:.\Generated_Source\PSoC4/CapSense_SMS.c **** 	CapSense_config.hfclkFreq_MHz = CYDEV_BCLK__HFCLK__MHZ;
 105              		.loc 1 145 0
 106 0018 2C4B     		ldr	r3, .L8
 107 001a 0C22     		mov	r2, #12
 108 001c DA80     		strh	r2, [r3, #6]
 146:.\Generated_Source\PSoC4/CapSense_SMS.c **** 	CapSense_config.sensetivitySeed = CapSense_SENSETIVITY_FACTOR;
 109              		.loc 1 146 0
 110 001e 2B4B     		ldr	r3, .L8
 111 0020 2B4A     		ldr	r2, .L8+4
 112 0022 9A80     		strh	r2, [r3, #4]
 147:.\Generated_Source\PSoC4/CapSense_SMS.c **** 	
 148:.\Generated_Source\PSoC4/CapSense_SMS.c ****     CapSense_config.pointers = &CapSense_configPointers;       
 113              		.loc 1 148 0
 114 0024 294B     		ldr	r3, .L8
 115 0026 2B4A     		ldr	r2, .L8+8
 116 0028 9A60     		str	r2, [r3, #8]
 149:.\Generated_Source\PSoC4/CapSense_SMS.c ****     
 150:.\Generated_Source\PSoC4/CapSense_SMS.c **** 	CapSense_SetAnalogSwitchesSrcDirect();
 117              		.loc 1 150 0
 118 002a FFF7FEFF 		bl	CapSense_SetAnalogSwitchesSrcDirect
 151:.\Generated_Source\PSoC4/CapSense_SMS.c ****     
 152:.\Generated_Source\PSoC4/CapSense_SMS.c ****     for(widget = 0u; widget < CapSense_config.totalWidgetsNum; widget++)
 119              		.loc 1 152 0
 120 002e 0023     		mov	r3, #0
 121 0030 3B60     		str	r3, [r7]
 122 0032 07E0     		b	.L2
 123              	.L3:
 153:.\Generated_Source\PSoC4/CapSense_SMS.c ****     {
 154:.\Generated_Source\PSoC4/CapSense_SMS.c ****         CapSense_widgetResolution[widget] = CapSense_CALIBRATION_RESOLUTION;
 124              		.loc 1 154 0 discriminator 2
 125 0034 284B     		ldr	r3, .L8+12
 126 0036 3A68     		ldr	r2, [r7]
 127 0038 9200     		lsl	r2, r2, #2
 128 003a 2849     		ldr	r1, .L8+16
 129 003c D150     		str	r1, [r2, r3]
 152:.\Generated_Source\PSoC4/CapSense_SMS.c ****     for(widget = 0u; widget < CapSense_config.totalWidgetsNum; widget++)
 130              		.loc 1 152 0 discriminator 2
ARM GAS  C:\Users\jsing\AppData\Local\Temp\ccfzye9U.s 			page 6


 131 003e 3B68     		ldr	r3, [r7]
 132 0040 0133     		add	r3, r3, #1
 133 0042 3B60     		str	r3, [r7]
 134              	.L2:
 152:.\Generated_Source\PSoC4/CapSense_SMS.c ****     for(widget = 0u; widget < CapSense_config.totalWidgetsNum; widget++)
 135              		.loc 1 152 0 is_stmt 0 discriminator 1
 136 0044 214B     		ldr	r3, .L8
 137 0046 5B78     		ldrb	r3, [r3, #1]
 138 0048 1A1C     		mov	r2, r3
 139 004a 3B68     		ldr	r3, [r7]
 140 004c 9A42     		cmp	r2, r3
 141 004e F1D8     		bhi	.L3
 155:.\Generated_Source\PSoC4/CapSense_SMS.c ****     }
 156:.\Generated_Source\PSoC4/CapSense_SMS.c **** 	
 157:.\Generated_Source\PSoC4/CapSense_SMS.c **** 
 158:.\Generated_Source\PSoC4/CapSense_SMS.c **** 	for(curSensor = 0u; curSensor < CapSense_TOTAL_SCANSLOT_COUNT; curSensor++)
 142              		.loc 1 158 0 is_stmt 1
 143 0050 0023     		mov	r3, #0
 144 0052 7B60     		str	r3, [r7, #4]
 145 0054 0CE0     		b	.L4
 146              	.L5:
 159:.\Generated_Source\PSoC4/CapSense_SMS.c ****     {
 160:.\Generated_Source\PSoC4/CapSense_SMS.c **** 		CapSense_senseClkDividerVal[curSensor] = CapSense_CALIBRATION_ASD;
 147              		.loc 1 160 0 discriminator 2
 148 0056 224A     		ldr	r2, .L8+20
 149 0058 7B68     		ldr	r3, [r7, #4]
 150 005a D318     		add	r3, r2, r3
 151 005c 0422     		mov	r2, #4
 152 005e 1A70     		strb	r2, [r3]
 161:.\Generated_Source\PSoC4/CapSense_SMS.c **** 		CapSense_sampleClkDividerVal[curSensor] = CapSense_CALIBRATION_MD;
 153              		.loc 1 161 0 discriminator 2
 154 0060 204A     		ldr	r2, .L8+24
 155 0062 7B68     		ldr	r3, [r7, #4]
 156 0064 D318     		add	r3, r2, r3
 157 0066 0122     		mov	r2, #1
 158 0068 1A70     		strb	r2, [r3]
 158:.\Generated_Source\PSoC4/CapSense_SMS.c **** 	for(curSensor = 0u; curSensor < CapSense_TOTAL_SCANSLOT_COUNT; curSensor++)
 159              		.loc 1 158 0 discriminator 2
 160 006a 7B68     		ldr	r3, [r7, #4]
 161 006c 0133     		add	r3, r3, #1
 162 006e 7B60     		str	r3, [r7, #4]
 163              	.L4:
 158:.\Generated_Source\PSoC4/CapSense_SMS.c **** 	for(curSensor = 0u; curSensor < CapSense_TOTAL_SCANSLOT_COUNT; curSensor++)
 164              		.loc 1 158 0 is_stmt 0 discriminator 1
 165 0070 7B68     		ldr	r3, [r7, #4]
 166 0072 002B     		cmp	r3, #0
 167 0074 EFD0     		beq	.L5
 162:.\Generated_Source\PSoC4/CapSense_SMS.c **** 	}
 163:.\Generated_Source\PSoC4/CapSense_SMS.c ****     
 164:.\Generated_Source\PSoC4/CapSense_SMS.c ****     CapSense_DisableBaselineIDAC();
 168              		.loc 1 164 0 is_stmt 1
 169 0076 FFF7FEFF 		bl	CapSense_DisableBaselineIDAC
 165:.\Generated_Source\PSoC4/CapSense_SMS.c **** 
 166:.\Generated_Source\PSoC4/CapSense_SMS.c ****     CalibrateSensors_P4_v2_10(&CapSense_config, CapSense_CAL_RAW_COUNT);
 170              		.loc 1 166 0
 171 007a 144A     		ldr	r2, .L8
 172 007c 1A4B     		ldr	r3, .L8+28
ARM GAS  C:\Users\jsing\AppData\Local\Temp\ccfzye9U.s 			page 7


 173 007e 101C     		mov	r0, r2
 174 0080 191C     		mov	r1, r3
 175 0082 FFF7FEFF 		bl	CalibrateSensors_P4_v2_10
 167:.\Generated_Source\PSoC4/CapSense_SMS.c **** 
 168:.\Generated_Source\PSoC4/CapSense_SMS.c **** 	#if(0u != CapSense_TOTAL_CENTROIDS_COUNT) 
 169:.\Generated_Source\PSoC4/CapSense_SMS.c **** 		CapSense_NormalizeWidgets(CapSense_END_OF_WIDGETS_INDEX, CapSense_modulationIDAC);
 170:.\Generated_Source\PSoC4/CapSense_SMS.c **** 	#endif /* (0u != CapSense_TOTAL_CENTROIDS_COUNT)  */
 171:.\Generated_Source\PSoC4/CapSense_SMS.c **** 	
 172:.\Generated_Source\PSoC4/CapSense_SMS.c ****     TunePrescalers_P4_v2_10(&CapSense_config);
 176              		.loc 1 172 0
 177 0086 114B     		ldr	r3, .L8
 178 0088 181C     		mov	r0, r3
 179 008a FFF7FEFF 		bl	TunePrescalers_P4_v2_10
 173:.\Generated_Source\PSoC4/CapSense_SMS.c **** 	
 174:.\Generated_Source\PSoC4/CapSense_SMS.c **** 	#if(CapSense_PRS_OPTIONS != CapSense__PRS_NONE)
 175:.\Generated_Source\PSoC4/CapSense_SMS.c **** 		CapSense_prescalersTuningDone = 1u;
 176:.\Generated_Source\PSoC4/CapSense_SMS.c **** 	#endif /* (CapSense_PRS_OPTIONS == CapSense__PRS_NONE) */
 177:.\Generated_Source\PSoC4/CapSense_SMS.c ****        
 178:.\Generated_Source\PSoC4/CapSense_SMS.c ****     CalibrateSensors_P4_v2_10(&CapSense_config, CapSense_CAL_RAW_COUNT);
 180              		.loc 1 178 0
 181 008e 0F4A     		ldr	r2, .L8
 182 0090 154B     		ldr	r3, .L8+28
 183 0092 101C     		mov	r0, r2
 184 0094 191C     		mov	r1, r3
 185 0096 FFF7FEFF 		bl	CalibrateSensors_P4_v2_10
 179:.\Generated_Source\PSoC4/CapSense_SMS.c **** 	#if(0u != CapSense_TOTAL_CENTROIDS_COUNT)
 180:.\Generated_Source\PSoC4/CapSense_SMS.c **** 		CapSense_NormalizeWidgets(CapSense_END_OF_WIDGETS_INDEX, CapSense_modulationIDAC);
 181:.\Generated_Source\PSoC4/CapSense_SMS.c **** 	#endif /* (0u != CapSense_TOTAL_CENTROIDS_COUNT)  */
 182:.\Generated_Source\PSoC4/CapSense_SMS.c ****     TuneSensitivity_P4_v2_10(&CapSense_config);
 186              		.loc 1 182 0
 187 009a 0C4B     		ldr	r3, .L8
 188 009c 181C     		mov	r0, r3
 189 009e FFF7FEFF 		bl	TuneSensitivity_P4_v2_10
 183:.\Generated_Source\PSoC4/CapSense_SMS.c **** 	
 184:.\Generated_Source\PSoC4/CapSense_SMS.c **** 	CapSense_EnableBaselineIDAC(&CapSense_config);
 190              		.loc 1 184 0
 191 00a2 0A4B     		ldr	r3, .L8
 192 00a4 181C     		mov	r0, r3
 193 00a6 FFF7FEFF 		bl	CapSense_EnableBaselineIDAC
 185:.\Generated_Source\PSoC4/CapSense_SMS.c ****     
 186:.\Generated_Source\PSoC4/CapSense_SMS.c ****     for(curSensor = 0u; curSensor < CapSense_TOTAL_SCANSLOT_COUNT; curSensor++)
 194              		.loc 1 186 0
 195 00aa 0023     		mov	r3, #0
 196 00ac 7B60     		str	r3, [r7, #4]
 197 00ae 06E0     		b	.L6
 198              	.L7:
 187:.\Generated_Source\PSoC4/CapSense_SMS.c ****     {
 188:.\Generated_Source\PSoC4/CapSense_SMS.c ****         CapSense_UpdateThresholds(curSensor);
 199              		.loc 1 188 0 discriminator 2
 200 00b0 7B68     		ldr	r3, [r7, #4]
 201 00b2 181C     		mov	r0, r3
 202 00b4 FFF7FEFF 		bl	CapSense_UpdateThresholds
 186:.\Generated_Source\PSoC4/CapSense_SMS.c ****     for(curSensor = 0u; curSensor < CapSense_TOTAL_SCANSLOT_COUNT; curSensor++)
 203              		.loc 1 186 0 discriminator 2
 204 00b8 7B68     		ldr	r3, [r7, #4]
 205 00ba 0133     		add	r3, r3, #1
 206 00bc 7B60     		str	r3, [r7, #4]
ARM GAS  C:\Users\jsing\AppData\Local\Temp\ccfzye9U.s 			page 8


 207              	.L6:
 186:.\Generated_Source\PSoC4/CapSense_SMS.c ****     for(curSensor = 0u; curSensor < CapSense_TOTAL_SCANSLOT_COUNT; curSensor++)
 208              		.loc 1 186 0 is_stmt 0 discriminator 1
 209 00be 7B68     		ldr	r3, [r7, #4]
 210 00c0 002B     		cmp	r3, #0
 211 00c2 F5D0     		beq	.L7
 189:.\Generated_Source\PSoC4/CapSense_SMS.c ****     }
 190:.\Generated_Source\PSoC4/CapSense_SMS.c **** }
 212              		.loc 1 190 0 is_stmt 1
 213 00c4 BD46     		mov	sp, r7
 214 00c6 02B0     		add	sp, sp, #8
 215              		@ sp needed
 216 00c8 80BD     		pop	{r7, pc}
 217              	.L9:
 218 00ca C046     		.align	2
 219              	.L8:
 220 00cc 00000000 		.word	CapSense_config
 221 00d0 98090000 		.word	2456
 222 00d4 00000000 		.word	CapSense_configPointers
 223 00d8 00000000 		.word	CapSense_widgetResolution
 224 00dc 0000FF0F 		.word	268369920
 225 00e0 00000000 		.word	CapSense_senseClkDividerVal
 226 00e4 00000000 		.word	CapSense_sampleClkDividerVal
 227 00e8 9A0D0000 		.word	3482
 228              		.cfi_endproc
 229              	.LFE35:
 230              		.size	CapSense_AutoTune, .-CapSense_AutoTune
 231              		.section	.text.CapSense_UpdateThresholds,"ax",%progbits
 232              		.align	2
 233              		.global	CapSense_UpdateThresholds
 234              		.code	16
 235              		.thumb_func
 236              		.type	CapSense_UpdateThresholds, %function
 237              	CapSense_UpdateThresholds:
 238              	.LFB36:
 191:.\Generated_Source\PSoC4/CapSense_SMS.c **** 
 192:.\Generated_Source\PSoC4/CapSense_SMS.c **** 
 193:.\Generated_Source\PSoC4/CapSense_SMS.c **** /*******************************************************************************
 194:.\Generated_Source\PSoC4/CapSense_SMS.c **** * Function Name: CapSense_UpdateThresholds
 195:.\Generated_Source\PSoC4/CapSense_SMS.c **** ********************************************************************************
 196:.\Generated_Source\PSoC4/CapSense_SMS.c **** *
 197:.\Generated_Source\PSoC4/CapSense_SMS.c **** * Summary:
 198:.\Generated_Source\PSoC4/CapSense_SMS.c **** *  The API updates the Finger Threshold, Hysteresis, Noise Threshold, and 
 199:.\Generated_Source\PSoC4/CapSense_SMS.c **** *  Negative Noise Threshold in the AutoTuning (Smartsense) Mode.
 200:.\Generated_Source\PSoC4/CapSense_SMS.c **** *
 201:.\Generated_Source\PSoC4/CapSense_SMS.c **** * Parameters:
 202:.\Generated_Source\PSoC4/CapSense_SMS.c **** *  sensor: sensor number.
 203:.\Generated_Source\PSoC4/CapSense_SMS.c **** *
 204:.\Generated_Source\PSoC4/CapSense_SMS.c **** * Return:
 205:.\Generated_Source\PSoC4/CapSense_SMS.c **** *  None
 206:.\Generated_Source\PSoC4/CapSense_SMS.c **** *
 207:.\Generated_Source\PSoC4/CapSense_SMS.c **** * Global Variables:
 208:.\Generated_Source\PSoC4/CapSense_SMS.c **** *  CapSense_widgetNumber[] - contains widget Number for given sensor.
 209:.\Generated_Source\PSoC4/CapSense_SMS.c **** *  0 through 7 (sensor 0 is bit 0, sensor 1 is bit 1).
 210:.\Generated_Source\PSoC4/CapSense_SMS.c **** *  For other sensors the array element equals to 255. 
 211:.\Generated_Source\PSoC4/CapSense_SMS.c **** *  CapSense_numberOfSensors[widget] - Number of sensors in the widget.
 212:.\Generated_Source\PSoC4/CapSense_SMS.c **** *   CapSense_fingerThreshold[] - contains the level of signal for each sensor
ARM GAS  C:\Users\jsing\AppData\Local\Temp\ccfzye9U.s 			page 9


 213:.\Generated_Source\PSoC4/CapSense_SMS.c **** *   that determines if a finger present on the sensor.
 214:.\Generated_Source\PSoC4/CapSense_SMS.c **** *   CapSense_negativeNoiseThreshold[] - negative Noise Threshold
 215:.\Generated_Source\PSoC4/CapSense_SMS.c **** *   CapSense_hysteresis[] - the array with hysteresis values.
 216:.\Generated_Source\PSoC4/CapSense_SMS.c **** *
 217:.\Generated_Source\PSoC4/CapSense_SMS.c **** * Side Effects:
 218:.\Generated_Source\PSoC4/CapSense_SMS.c **** *  None
 219:.\Generated_Source\PSoC4/CapSense_SMS.c **** *
 220:.\Generated_Source\PSoC4/CapSense_SMS.c **** *******************************************************************************/
 221:.\Generated_Source\PSoC4/CapSense_SMS.c **** void CapSense_UpdateThresholds(uint32 sensor)
 222:.\Generated_Source\PSoC4/CapSense_SMS.c **** {
 239              		.loc 1 222 0
 240              		.cfi_startproc
 241 0000 80B5     		push	{r7, lr}
 242              		.cfi_def_cfa_offset 8
 243              		.cfi_offset 7, -8
 244              		.cfi_offset 14, -4
 245 0002 84B0     		sub	sp, sp, #16
 246              		.cfi_def_cfa_offset 24
 247 0004 00AF     		add	r7, sp, #0
 248              		.cfi_def_cfa_register 7
 249 0006 7860     		str	r0, [r7, #4]
 223:.\Generated_Source\PSoC4/CapSense_SMS.c **** 	uint8 fingerThreshold;
 224:.\Generated_Source\PSoC4/CapSense_SMS.c **** 	uint32 widget;
 225:.\Generated_Source\PSoC4/CapSense_SMS.c **** 	
 226:.\Generated_Source\PSoC4/CapSense_SMS.c **** 	widget = CapSense_widgetNumber[sensor];
 250              		.loc 1 226 0
 251 0008 144A     		ldr	r2, .L11
 252 000a 7B68     		ldr	r3, [r7, #4]
 253 000c D318     		add	r3, r2, r3
 254 000e 1B78     		ldrb	r3, [r3]
 255 0010 FB60     		str	r3, [r7, #12]
 227:.\Generated_Source\PSoC4/CapSense_SMS.c **** 
 228:.\Generated_Source\PSoC4/CapSense_SMS.c **** 	#if(0u != CapSense_FLEXIBLE_THRESHOLDS_EN)
 229:.\Generated_Source\PSoC4/CapSense_SMS.c **** 	    fingerThreshold = CapSense_fingerThreshold[widget];
 256              		.loc 1 229 0
 257 0012 3B1C     		mov	r3, r7
 258 0014 0B33     		add	r3, r3, #11
 259 0016 1249     		ldr	r1, .L11+4
 260 0018 FA68     		ldr	r2, [r7, #12]
 261 001a 8A18     		add	r2, r1, r2
 262 001c 1278     		ldrb	r2, [r2]
 263 001e 1A70     		strb	r2, [r3]
 230:.\Generated_Source\PSoC4/CapSense_SMS.c ****         /* Update Threshold manually (flexible) */   
 231:.\Generated_Source\PSoC4/CapSense_SMS.c **** 		CapSense_noiseThreshold[widget] = (uint8)(fingerThreshold >> 1u);
 264              		.loc 1 231 0
 265 0020 3B1C     		mov	r3, r7
 266 0022 0B33     		add	r3, r3, #11
 267 0024 1B78     		ldrb	r3, [r3]
 268 0026 5B08     		lsr	r3, r3, #1
 269 0028 DAB2     		uxtb	r2, r3
 270 002a 0E49     		ldr	r1, .L11+8
 271 002c FB68     		ldr	r3, [r7, #12]
 272 002e CB18     		add	r3, r1, r3
 273 0030 1A70     		strb	r2, [r3]
 232:.\Generated_Source\PSoC4/CapSense_SMS.c **** 		CapSense_negativeNoiseThreshold[widget] = (uint8)(fingerThreshold >> 1u);
 274              		.loc 1 232 0
 275 0032 3B1C     		mov	r3, r7
ARM GAS  C:\Users\jsing\AppData\Local\Temp\ccfzye9U.s 			page 10


 276 0034 0B33     		add	r3, r3, #11
 277 0036 1B78     		ldrb	r3, [r3]
 278 0038 5B08     		lsr	r3, r3, #1
 279 003a DAB2     		uxtb	r2, r3
 280 003c 0A49     		ldr	r1, .L11+12
 281 003e FB68     		ldr	r3, [r7, #12]
 282 0040 CB18     		add	r3, r1, r3
 283 0042 1A70     		strb	r2, [r3]
 233:.\Generated_Source\PSoC4/CapSense_SMS.c **** 		CapSense_hysteresis[widget] = (uint8)(fingerThreshold >> 3u);
 284              		.loc 1 233 0
 285 0044 3B1C     		mov	r3, r7
 286 0046 0B33     		add	r3, r3, #11
 287 0048 1B78     		ldrb	r3, [r3]
 288 004a DB08     		lsr	r3, r3, #3
 289 004c DAB2     		uxtb	r2, r3
 290 004e 0749     		ldr	r1, .L11+16
 291 0050 FB68     		ldr	r3, [r7, #12]
 292 0052 CB18     		add	r3, r1, r3
 293 0054 1A70     		strb	r2, [r3]
 234:.\Generated_Source\PSoC4/CapSense_SMS.c **** 	#else
 235:.\Generated_Source\PSoC4/CapSense_SMS.c **** 		/* Calculate Finger Threshold and Noise Threshold with Smartsense (automatic) */ 	
 236:.\Generated_Source\PSoC4/CapSense_SMS.c **** 		CalculateThresholds_P4_v2_10(&CapSense_config, (uint8)sensor, CapSense_sensorRaw, (uint8)widget, 
 237:.\Generated_Source\PSoC4/CapSense_SMS.c **** 		
 238:.\Generated_Source\PSoC4/CapSense_SMS.c **** 	    fingerThreshold = CapSense_fingerThreshold[widget];
 239:.\Generated_Source\PSoC4/CapSense_SMS.c **** 		
 240:.\Generated_Source\PSoC4/CapSense_SMS.c **** 	    /* Update Threshold based on calculated with Smartsense (automatic) */
 241:.\Generated_Source\PSoC4/CapSense_SMS.c **** 		CapSense_negativeNoiseThreshold[widget] = CapSense_noiseThreshold[widget];
 242:.\Generated_Source\PSoC4/CapSense_SMS.c ****         
 243:.\Generated_Source\PSoC4/CapSense_SMS.c **** 		if(fingerThreshold < CapSense_THRESHOLD_1)
 244:.\Generated_Source\PSoC4/CapSense_SMS.c **** 		{
 245:.\Generated_Source\PSoC4/CapSense_SMS.c **** 			CapSense_hysteresis[widget] = (uint8)(fingerThreshold >> 3u);
 246:.\Generated_Source\PSoC4/CapSense_SMS.c **** 		}
 247:.\Generated_Source\PSoC4/CapSense_SMS.c **** 		else if(fingerThreshold <  CapSense_THRESHOLD_2)
 248:.\Generated_Source\PSoC4/CapSense_SMS.c **** 		{
 249:.\Generated_Source\PSoC4/CapSense_SMS.c **** 			CapSense_hysteresis[widget] = (uint8)(fingerThreshold >> 4u);
 250:.\Generated_Source\PSoC4/CapSense_SMS.c **** 		}
 251:.\Generated_Source\PSoC4/CapSense_SMS.c **** 		else if(fingerThreshold <  CapSense_THRESHOLD_3)
 252:.\Generated_Source\PSoC4/CapSense_SMS.c **** 		{
 253:.\Generated_Source\PSoC4/CapSense_SMS.c **** 			CapSense_hysteresis[widget] = (uint8)(fingerThreshold >> 5u);
 254:.\Generated_Source\PSoC4/CapSense_SMS.c **** 		}
 255:.\Generated_Source\PSoC4/CapSense_SMS.c **** 		else if(fingerThreshold <  CapSense_THRESHOLD_4)
 256:.\Generated_Source\PSoC4/CapSense_SMS.c **** 		{
 257:.\Generated_Source\PSoC4/CapSense_SMS.c **** 			CapSense_hysteresis[widget] = (uint8)(fingerThreshold >> 6u);
 258:.\Generated_Source\PSoC4/CapSense_SMS.c **** 		}
 259:.\Generated_Source\PSoC4/CapSense_SMS.c **** 		else
 260:.\Generated_Source\PSoC4/CapSense_SMS.c **** 		{
 261:.\Generated_Source\PSoC4/CapSense_SMS.c **** 			CapSense_hysteresis[widget] = 0u;
 262:.\Generated_Source\PSoC4/CapSense_SMS.c **** 		}
 263:.\Generated_Source\PSoC4/CapSense_SMS.c **** 	#endif /* (0u != CapSense_FLEXIBLE_THRESHOLDS_EN)  */
 264:.\Generated_Source\PSoC4/CapSense_SMS.c **** }
 294              		.loc 1 264 0
 295 0056 BD46     		mov	sp, r7
 296 0058 04B0     		add	sp, sp, #16
 297              		@ sp needed
 298 005a 80BD     		pop	{r7, pc}
 299              	.L12:
 300              		.align	2
ARM GAS  C:\Users\jsing\AppData\Local\Temp\ccfzye9U.s 			page 11


 301              	.L11:
 302 005c 00000000 		.word	CapSense_widgetNumber
 303 0060 00000000 		.word	CapSense_fingerThreshold
 304 0064 00000000 		.word	CapSense_noiseThreshold
 305 0068 00000000 		.word	CapSense_negativeNoiseThreshold
 306 006c 00000000 		.word	CapSense_hysteresis
 307              		.cfi_endproc
 308              	.LFE36:
 309              		.size	CapSense_UpdateThresholds, .-CapSense_UpdateThresholds
 310              		.section	.text.CapSense_SetAnalogSwitchesSrcDirect,"ax",%progbits
 311              		.align	2
 312              		.global	CapSense_SetAnalogSwitchesSrcDirect
 313              		.code	16
 314              		.thumb_func
 315              		.type	CapSense_SetAnalogSwitchesSrcDirect, %function
 316              	CapSense_SetAnalogSwitchesSrcDirect:
 317              	.LFB37:
 265:.\Generated_Source\PSoC4/CapSense_SMS.c **** 
 266:.\Generated_Source\PSoC4/CapSense_SMS.c **** /*******************************************************************************
 267:.\Generated_Source\PSoC4/CapSense_SMS.c **** * Function Name: CapSense_SetAnalogSwitchesSrcDirect
 268:.\Generated_Source\PSoC4/CapSense_SMS.c **** ********************************************************************************
 269:.\Generated_Source\PSoC4/CapSense_SMS.c **** *
 270:.\Generated_Source\PSoC4/CapSense_SMS.c **** * Summary:
 271:.\Generated_Source\PSoC4/CapSense_SMS.c **** *  This API switches the charge clock source to prescaler. 
 272:.\Generated_Source\PSoC4/CapSense_SMS.c **** *
 273:.\Generated_Source\PSoC4/CapSense_SMS.c **** * Parameters:
 274:.\Generated_Source\PSoC4/CapSense_SMS.c **** *  None
 275:.\Generated_Source\PSoC4/CapSense_SMS.c **** *
 276:.\Generated_Source\PSoC4/CapSense_SMS.c **** * Return:
 277:.\Generated_Source\PSoC4/CapSense_SMS.c **** *  None
 278:.\Generated_Source\PSoC4/CapSense_SMS.c **** *
 279:.\Generated_Source\PSoC4/CapSense_SMS.c **** * Global Variables:
 280:.\Generated_Source\PSoC4/CapSense_SMS.c **** *  None
 281:.\Generated_Source\PSoC4/CapSense_SMS.c **** *
 282:.\Generated_Source\PSoC4/CapSense_SMS.c **** * Side Effects:
 283:.\Generated_Source\PSoC4/CapSense_SMS.c **** *  None
 284:.\Generated_Source\PSoC4/CapSense_SMS.c **** *
 285:.\Generated_Source\PSoC4/CapSense_SMS.c **** *******************************************************************************/
 286:.\Generated_Source\PSoC4/CapSense_SMS.c **** void CapSense_SetAnalogSwitchesSrcDirect(void)
 287:.\Generated_Source\PSoC4/CapSense_SMS.c **** {
 318              		.loc 1 287 0
 319              		.cfi_startproc
 320 0000 80B5     		push	{r7, lr}
 321              		.cfi_def_cfa_offset 8
 322              		.cfi_offset 7, -8
 323              		.cfi_offset 14, -4
 324 0002 00AF     		add	r7, sp, #0
 325              		.cfi_def_cfa_register 7
 288:.\Generated_Source\PSoC4/CapSense_SMS.c **** 	CapSense_CSD_CFG_REG &= ~(CapSense_CSD_CFG_PRS_SELECT);
 326              		.loc 1 288 0
 327 0004 034B     		ldr	r3, .L14
 328 0006 034A     		ldr	r2, .L14
 329 0008 1268     		ldr	r2, [r2]
 330 000a 4021     		mov	r1, #64
 331 000c 8A43     		bic	r2, r1
 332 000e 1A60     		str	r2, [r3]
 289:.\Generated_Source\PSoC4/CapSense_SMS.c **** }
ARM GAS  C:\Users\jsing\AppData\Local\Temp\ccfzye9U.s 			page 12


 333              		.loc 1 289 0
 334 0010 BD46     		mov	sp, r7
 335              		@ sp needed
 336 0012 80BD     		pop	{r7, pc}
 337              	.L15:
 338              		.align	2
 339              	.L14:
 340 0014 04002840 		.word	1076363268
 341              		.cfi_endproc
 342              	.LFE37:
 343              		.size	CapSense_SetAnalogSwitchesSrcDirect, .-CapSense_SetAnalogSwitchesSrcDirect
 344              		.section	.text.CapSense_DisableBaselineIDAC,"ax",%progbits
 345              		.align	2
 346              		.global	CapSense_DisableBaselineIDAC
 347              		.code	16
 348              		.thumb_func
 349              		.type	CapSense_DisableBaselineIDAC, %function
 350              	CapSense_DisableBaselineIDAC:
 351              	.LFB38:
 290:.\Generated_Source\PSoC4/CapSense_SMS.c **** 
 291:.\Generated_Source\PSoC4/CapSense_SMS.c **** 
 292:.\Generated_Source\PSoC4/CapSense_SMS.c **** /*******************************************************************************
 293:.\Generated_Source\PSoC4/CapSense_SMS.c **** * Function Name: CapSense_DisableBaselineIDAC
 294:.\Generated_Source\PSoC4/CapSense_SMS.c **** ********************************************************************************
 295:.\Generated_Source\PSoC4/CapSense_SMS.c **** *
 296:.\Generated_Source\PSoC4/CapSense_SMS.c **** * Summary:
 297:.\Generated_Source\PSoC4/CapSense_SMS.c **** *  The API disables the Compensation IDAC. 
 298:.\Generated_Source\PSoC4/CapSense_SMS.c **** *
 299:.\Generated_Source\PSoC4/CapSense_SMS.c **** * Parameters:
 300:.\Generated_Source\PSoC4/CapSense_SMS.c **** *  None
 301:.\Generated_Source\PSoC4/CapSense_SMS.c **** *
 302:.\Generated_Source\PSoC4/CapSense_SMS.c **** * Return:
 303:.\Generated_Source\PSoC4/CapSense_SMS.c **** *  None
 304:.\Generated_Source\PSoC4/CapSense_SMS.c **** *
 305:.\Generated_Source\PSoC4/CapSense_SMS.c **** * Global Variables:
 306:.\Generated_Source\PSoC4/CapSense_SMS.c **** *  None
 307:.\Generated_Source\PSoC4/CapSense_SMS.c **** *
 308:.\Generated_Source\PSoC4/CapSense_SMS.c **** * Side Effects:
 309:.\Generated_Source\PSoC4/CapSense_SMS.c **** *  None
 310:.\Generated_Source\PSoC4/CapSense_SMS.c **** *
 311:.\Generated_Source\PSoC4/CapSense_SMS.c **** *******************************************************************************/
 312:.\Generated_Source\PSoC4/CapSense_SMS.c **** void CapSense_DisableBaselineIDAC(void)
 313:.\Generated_Source\PSoC4/CapSense_SMS.c **** {
 352              		.loc 1 313 0
 353              		.cfi_startproc
 354 0000 80B5     		push	{r7, lr}
 355              		.cfi_def_cfa_offset 8
 356              		.cfi_offset 7, -8
 357              		.cfi_offset 14, -4
 358 0002 82B0     		sub	sp, sp, #8
 359              		.cfi_def_cfa_offset 16
 360 0004 00AF     		add	r7, sp, #0
 361              		.cfi_def_cfa_register 7
 314:.\Generated_Source\PSoC4/CapSense_SMS.c **** 	uint32 newRegValue;
 315:.\Generated_Source\PSoC4/CapSense_SMS.c ****     
 316:.\Generated_Source\PSoC4/CapSense_SMS.c ****     newRegValue = CapSense_CSD_IDAC_REG;
 362              		.loc 1 316 0
ARM GAS  C:\Users\jsing\AppData\Local\Temp\ccfzye9U.s 			page 13


 363 0006 094B     		ldr	r3, .L17
 364 0008 1B68     		ldr	r3, [r3]
 365 000a 7B60     		str	r3, [r7, #4]
 317:.\Generated_Source\PSoC4/CapSense_SMS.c ****     
 318:.\Generated_Source\PSoC4/CapSense_SMS.c ****     newRegValue &= ~(CapSense_CSD_IDAC1_MODE_MASK | CapSense_CSD_IDAC2_MODE_MASK);
 366              		.loc 1 318 0
 367 000c 7A68     		ldr	r2, [r7, #4]
 368 000e 084B     		ldr	r3, .L17+4
 369 0010 1340     		and	r3, r2
 370 0012 7B60     		str	r3, [r7, #4]
 319:.\Generated_Source\PSoC4/CapSense_SMS.c ****     newRegValue |= CapSense_CSD_IDAC1_MODE_VARIABLE;
 371              		.loc 1 319 0
 372 0014 7B68     		ldr	r3, [r7, #4]
 373 0016 8022     		mov	r2, #128
 374 0018 9200     		lsl	r2, r2, #2
 375 001a 1343     		orr	r3, r2
 376 001c 7B60     		str	r3, [r7, #4]
 320:.\Generated_Source\PSoC4/CapSense_SMS.c ****     
 321:.\Generated_Source\PSoC4/CapSense_SMS.c **** 	CapSense_CSD_IDAC_REG = newRegValue;
 377              		.loc 1 321 0
 378 001e 034B     		ldr	r3, .L17
 379 0020 7A68     		ldr	r2, [r7, #4]
 380 0022 1A60     		str	r2, [r3]
 322:.\Generated_Source\PSoC4/CapSense_SMS.c **** }
 381              		.loc 1 322 0
 382 0024 BD46     		mov	sp, r7
 383 0026 02B0     		add	sp, sp, #8
 384              		@ sp needed
 385 0028 80BD     		pop	{r7, pc}
 386              	.L18:
 387 002a C046     		.align	2
 388              	.L17:
 389 002c 08002840 		.word	1076363272
 390 0030 FFFCFFFC 		.word	-50332417
 391              		.cfi_endproc
 392              	.LFE38:
 393              		.size	CapSense_DisableBaselineIDAC, .-CapSense_DisableBaselineIDAC
 394              		.section	.text.CapSense_EnableBaselineIDAC,"ax",%progbits
 395              		.align	2
 396              		.global	CapSense_EnableBaselineIDAC
 397              		.code	16
 398              		.thumb_func
 399              		.type	CapSense_EnableBaselineIDAC, %function
 400              	CapSense_EnableBaselineIDAC:
 401              	.LFB39:
 323:.\Generated_Source\PSoC4/CapSense_SMS.c **** 
 324:.\Generated_Source\PSoC4/CapSense_SMS.c **** 
 325:.\Generated_Source\PSoC4/CapSense_SMS.c **** /*******************************************************************************
 326:.\Generated_Source\PSoC4/CapSense_SMS.c **** * Function Name: CapSense_EnableBaselineIDAC
 327:.\Generated_Source\PSoC4/CapSense_SMS.c **** ********************************************************************************
 328:.\Generated_Source\PSoC4/CapSense_SMS.c **** *
 329:.\Generated_Source\PSoC4/CapSense_SMS.c **** * Summary:
 330:.\Generated_Source\PSoC4/CapSense_SMS.c **** *  The API enables the Compensation IDAC. 
 331:.\Generated_Source\PSoC4/CapSense_SMS.c **** *
 332:.\Generated_Source\PSoC4/CapSense_SMS.c **** * Parameters:
 333:.\Generated_Source\PSoC4/CapSense_SMS.c **** *  None
 334:.\Generated_Source\PSoC4/CapSense_SMS.c **** *
ARM GAS  C:\Users\jsing\AppData\Local\Temp\ccfzye9U.s 			page 14


 335:.\Generated_Source\PSoC4/CapSense_SMS.c **** * Return:
 336:.\Generated_Source\PSoC4/CapSense_SMS.c **** *  None
 337:.\Generated_Source\PSoC4/CapSense_SMS.c **** *
 338:.\Generated_Source\PSoC4/CapSense_SMS.c **** * Global Variables:
 339:.\Generated_Source\PSoC4/CapSense_SMS.c **** *  CapSense_compensationIDAC[] - used to store a 7-bit idac value for all the sensors.
 340:.\Generated_Source\PSoC4/CapSense_SMS.c **** *
 341:.\Generated_Source\PSoC4/CapSense_SMS.c **** * Side Effects:
 342:.\Generated_Source\PSoC4/CapSense_SMS.c **** *  None
 343:.\Generated_Source\PSoC4/CapSense_SMS.c **** *
 344:.\Generated_Source\PSoC4/CapSense_SMS.c **** *******************************************************************************/
 345:.\Generated_Source\PSoC4/CapSense_SMS.c **** void  CapSense_EnableBaselineIDAC(const CapSense_CONFIG_TYPE_P4_v2_10 *config)
 346:.\Generated_Source\PSoC4/CapSense_SMS.c **** {
 402              		.loc 1 346 0
 403              		.cfi_startproc
 404 0000 80B5     		push	{r7, lr}
 405              		.cfi_def_cfa_offset 8
 406              		.cfi_offset 7, -8
 407              		.cfi_offset 14, -4
 408 0002 84B0     		sub	sp, sp, #16
 409              		.cfi_def_cfa_offset 24
 410 0004 00AF     		add	r7, sp, #0
 411              		.cfi_def_cfa_register 7
 412 0006 7860     		str	r0, [r7, #4]
 347:.\Generated_Source\PSoC4/CapSense_SMS.c ****     uint32 curSensor;
 348:.\Generated_Source\PSoC4/CapSense_SMS.c ****     uint32 newRegValue;
 349:.\Generated_Source\PSoC4/CapSense_SMS.c **** 
 350:.\Generated_Source\PSoC4/CapSense_SMS.c ****     for(curSensor = 0u; curSensor < config->totalScanslotsNum; curSensor++)
 413              		.loc 1 350 0
 414 0008 0023     		mov	r3, #0
 415 000a FB60     		str	r3, [r7, #12]
 416 000c 17E0     		b	.L20
 417              	.L21:
 351:.\Generated_Source\PSoC4/CapSense_SMS.c ****     {
 352:.\Generated_Source\PSoC4/CapSense_SMS.c **** 		CapSense_compensationIDAC[curSensor] = CapSense_modulationIDAC[curSensor] / 2u;
 418              		.loc 1 352 0 discriminator 2
 419 000e 1A4A     		ldr	r2, .L22
 420 0010 FB68     		ldr	r3, [r7, #12]
 421 0012 D318     		add	r3, r2, r3
 422 0014 1B78     		ldrb	r3, [r3]
 423 0016 5B08     		lsr	r3, r3, #1
 424 0018 DAB2     		uxtb	r2, r3
 425 001a 1849     		ldr	r1, .L22+4
 426 001c FB68     		ldr	r3, [r7, #12]
 427 001e CB18     		add	r3, r1, r3
 428 0020 1A70     		strb	r2, [r3]
 353:.\Generated_Source\PSoC4/CapSense_SMS.c **** 	    CapSense_modulationIDAC[curSensor] = (CapSense_modulationIDAC[curSensor] + 1u) / 2u;
 429              		.loc 1 353 0 discriminator 2
 430 0022 154A     		ldr	r2, .L22
 431 0024 FB68     		ldr	r3, [r7, #12]
 432 0026 D318     		add	r3, r2, r3
 433 0028 1B78     		ldrb	r3, [r3]
 434 002a 0133     		add	r3, r3, #1
 435 002c 5B08     		lsr	r3, r3, #1
 436 002e DAB2     		uxtb	r2, r3
 437 0030 1149     		ldr	r1, .L22
 438 0032 FB68     		ldr	r3, [r7, #12]
 439 0034 CB18     		add	r3, r1, r3
ARM GAS  C:\Users\jsing\AppData\Local\Temp\ccfzye9U.s 			page 15


 440 0036 1A70     		strb	r2, [r3]
 350:.\Generated_Source\PSoC4/CapSense_SMS.c ****     for(curSensor = 0u; curSensor < config->totalScanslotsNum; curSensor++)
 441              		.loc 1 350 0 discriminator 2
 442 0038 FB68     		ldr	r3, [r7, #12]
 443 003a 0133     		add	r3, r3, #1
 444 003c FB60     		str	r3, [r7, #12]
 445              	.L20:
 350:.\Generated_Source\PSoC4/CapSense_SMS.c ****     for(curSensor = 0u; curSensor < config->totalScanslotsNum; curSensor++)
 446              		.loc 1 350 0 is_stmt 0 discriminator 1
 447 003e 7B68     		ldr	r3, [r7, #4]
 448 0040 1B78     		ldrb	r3, [r3]
 449 0042 1A1C     		mov	r2, r3
 450 0044 FB68     		ldr	r3, [r7, #12]
 451 0046 9A42     		cmp	r2, r3
 452 0048 E1D8     		bhi	.L21
 354:.\Generated_Source\PSoC4/CapSense_SMS.c ****     }
 355:.\Generated_Source\PSoC4/CapSense_SMS.c **** 	
 356:.\Generated_Source\PSoC4/CapSense_SMS.c **** 	CyIntDisable(CapSense_ISR_NUMBER);
 453              		.loc 1 356 0 is_stmt 1
 454 004a 1020     		mov	r0, #16
 455 004c FFF7FEFF 		bl	CyIntDisable
 357:.\Generated_Source\PSoC4/CapSense_SMS.c **** 	
 358:.\Generated_Source\PSoC4/CapSense_SMS.c **** 	newRegValue = CapSense_CSD_IDAC_REG;
 456              		.loc 1 358 0
 457 0050 0B4B     		ldr	r3, .L22+8
 458 0052 1B68     		ldr	r3, [r3]
 459 0054 BB60     		str	r3, [r7, #8]
 359:.\Generated_Source\PSoC4/CapSense_SMS.c ****     newRegValue &= ~(CapSense_CSD_IDAC1_MODE_MASK | CapSense_CSD_IDAC2_MODE_MASK);
 460              		.loc 1 359 0
 461 0056 BA68     		ldr	r2, [r7, #8]
 462 0058 0A4B     		ldr	r3, .L22+12
 463 005a 1340     		and	r3, r2
 464 005c BB60     		str	r3, [r7, #8]
 360:.\Generated_Source\PSoC4/CapSense_SMS.c ****     newRegValue |= (CapSense_CSD_IDAC1_MODE_VARIABLE | CapSense_CSD_IDAC2_MODE_FIXED);
 465              		.loc 1 360 0
 466 005e BB68     		ldr	r3, [r7, #8]
 467 0060 094A     		ldr	r2, .L22+16
 468 0062 1343     		orr	r3, r2
 469 0064 BB60     		str	r3, [r7, #8]
 361:.\Generated_Source\PSoC4/CapSense_SMS.c ****     CapSense_CSD_IDAC_REG = newRegValue;
 470              		.loc 1 361 0
 471 0066 064B     		ldr	r3, .L22+8
 472 0068 BA68     		ldr	r2, [r7, #8]
 473 006a 1A60     		str	r2, [r3]
 362:.\Generated_Source\PSoC4/CapSense_SMS.c **** 	
 363:.\Generated_Source\PSoC4/CapSense_SMS.c **** 	CyIntEnable(CapSense_ISR_NUMBER);
 474              		.loc 1 363 0
 475 006c 1020     		mov	r0, #16
 476 006e FFF7FEFF 		bl	CyIntEnable
 364:.\Generated_Source\PSoC4/CapSense_SMS.c **** }
 477              		.loc 1 364 0
 478 0072 BD46     		mov	sp, r7
 479 0074 04B0     		add	sp, sp, #16
 480              		@ sp needed
 481 0076 80BD     		pop	{r7, pc}
 482              	.L23:
 483              		.align	2
ARM GAS  C:\Users\jsing\AppData\Local\Temp\ccfzye9U.s 			page 16


 484              	.L22:
 485 0078 00000000 		.word	CapSense_modulationIDAC
 486 007c 00000000 		.word	CapSense_compensationIDAC
 487 0080 08002840 		.word	1076363272
 488 0084 FFFCFFFC 		.word	-50332417
 489 0088 00020001 		.word	16777728
 490              		.cfi_endproc
 491              	.LFE39:
 492              		.size	CapSense_EnableBaselineIDAC, .-CapSense_EnableBaselineIDAC
 493              		.section	.text.CapSense_SetSensitivity,"ax",%progbits
 494              		.align	2
 495              		.global	CapSense_SetSensitivity
 496              		.code	16
 497              		.thumb_func
 498              		.type	CapSense_SetSensitivity, %function
 499              	CapSense_SetSensitivity:
 500              	.LFB40:
 365:.\Generated_Source\PSoC4/CapSense_SMS.c **** 
 366:.\Generated_Source\PSoC4/CapSense_SMS.c **** 
 367:.\Generated_Source\PSoC4/CapSense_SMS.c **** /*******************************************************************************
 368:.\Generated_Source\PSoC4/CapSense_SMS.c **** * Function Name: CapSense_SetSensitivity
 369:.\Generated_Source\PSoC4/CapSense_SMS.c **** ********************************************************************************
 370:.\Generated_Source\PSoC4/CapSense_SMS.c **** *
 371:.\Generated_Source\PSoC4/CapSense_SMS.c **** * Summary:
 372:.\Generated_Source\PSoC4/CapSense_SMS.c **** *  This API sets the sensitivity value for the sensor. The sensitivity 
 373:.\Generated_Source\PSoC4/CapSense_SMS.c **** *  value is used during the auto-tuning algorithm executed as part of the CapSense_Start API.
 374:.\Generated_Source\PSoC4/CapSense_SMS.c **** *  This API is called by the application layer prior to calling the CapSense_Start API. 
 375:.\Generated_Source\PSoC4/CapSense_SMS.c **** *  Calling this API after execution of CapSense_Start API has no effect. 
 376:.\Generated_Source\PSoC4/CapSense_SMS.c **** *
 377:.\Generated_Source\PSoC4/CapSense_SMS.c **** * Parameters: 
 378:.\Generated_Source\PSoC4/CapSense_SMS.c **** *  sensor  Sensor index 
 379:.\Generated_Source\PSoC4/CapSense_SMS.c **** *  data    Sensitivity of the sensor. Possible values are below
 380:.\Generated_Source\PSoC4/CapSense_SMS.c **** *  1 - 0.1pf sensitivity
 381:.\Generated_Source\PSoC4/CapSense_SMS.c **** *  2 - 0.2pf sensitivity
 382:.\Generated_Source\PSoC4/CapSense_SMS.c **** *  3 - 0.3pf sensitivity
 383:.\Generated_Source\PSoC4/CapSense_SMS.c **** *  4 - 0.4pf sensitivity
 384:.\Generated_Source\PSoC4/CapSense_SMS.c **** *  All other values, set sensitivity to 0.4pf
 385:.\Generated_Source\PSoC4/CapSense_SMS.c **** *
 386:.\Generated_Source\PSoC4/CapSense_SMS.c **** *  Return Value:
 387:.\Generated_Source\PSoC4/CapSense_SMS.c **** *   None
 388:.\Generated_Source\PSoC4/CapSense_SMS.c **** *
 389:.\Generated_Source\PSoC4/CapSense_SMS.c **** * Global Variables:
 390:.\Generated_Source\PSoC4/CapSense_SMS.c **** * SMS_LIB_SensorSensitivity[] - This 8-bits array contains Sensitivity in the LSB nibble
 391:.\Generated_Source\PSoC4/CapSense_SMS.c **** *                                and Noise Reset Counter value in the MSB nibble.      
 392:.\Generated_Source\PSoC4/CapSense_SMS.c **** *
 393:.\Generated_Source\PSoC4/CapSense_SMS.c **** * Side Effects: 
 394:.\Generated_Source\PSoC4/CapSense_SMS.c **** *  None
 395:.\Generated_Source\PSoC4/CapSense_SMS.c **** *
 396:.\Generated_Source\PSoC4/CapSense_SMS.c **** *******************************************************************************/
 397:.\Generated_Source\PSoC4/CapSense_SMS.c **** void CapSense_SetSensitivity(uint32 sensor, uint32 value)
 398:.\Generated_Source\PSoC4/CapSense_SMS.c **** {
 501              		.loc 1 398 0
 502              		.cfi_startproc
 503 0000 80B5     		push	{r7, lr}
 504              		.cfi_def_cfa_offset 8
 505              		.cfi_offset 7, -8
 506              		.cfi_offset 14, -4
ARM GAS  C:\Users\jsing\AppData\Local\Temp\ccfzye9U.s 			page 17


 507 0002 82B0     		sub	sp, sp, #8
 508              		.cfi_def_cfa_offset 16
 509 0004 00AF     		add	r7, sp, #0
 510              		.cfi_def_cfa_register 7
 511 0006 7860     		str	r0, [r7, #4]
 512 0008 3960     		str	r1, [r7]
 399:.\Generated_Source\PSoC4/CapSense_SMS.c **** 	if(value > 4u)
 513              		.loc 1 399 0
 514 000a 3B68     		ldr	r3, [r7]
 515 000c 042B     		cmp	r3, #4
 516 000e 01D9     		bls	.L25
 400:.\Generated_Source\PSoC4/CapSense_SMS.c **** 	{
 401:.\Generated_Source\PSoC4/CapSense_SMS.c **** 		value = 4u;
 517              		.loc 1 401 0
 518 0010 0423     		mov	r3, #4
 519 0012 3B60     		str	r3, [r7]
 520              	.L25:
 402:.\Generated_Source\PSoC4/CapSense_SMS.c **** 	}
 403:.\Generated_Source\PSoC4/CapSense_SMS.c **** 	
 404:.\Generated_Source\PSoC4/CapSense_SMS.c ****     /* Clear SensorSensitivity value in LSB nibble */
 405:.\Generated_Source\PSoC4/CapSense_SMS.c **** 	SMS_LIB_SensorSensitivity[sensor] &= (uint8)~CapSense_SENSITIVITY_MASK;
 521              		.loc 1 405 0
 522 0014 0C4A     		ldr	r2, .L26
 523 0016 7B68     		ldr	r3, [r7, #4]
 524 0018 D318     		add	r3, r2, r3
 525 001a 1B78     		ldrb	r3, [r3]
 526 001c 0F22     		mov	r2, #15
 527 001e 9343     		bic	r3, r2
 528 0020 DAB2     		uxtb	r2, r3
 529 0022 0949     		ldr	r1, .L26
 530 0024 7B68     		ldr	r3, [r7, #4]
 531 0026 CB18     		add	r3, r1, r3
 532 0028 1A70     		strb	r2, [r3]
 406:.\Generated_Source\PSoC4/CapSense_SMS.c **** 	/* Set SensorSensitivity value in LSB nibble */
 407:.\Generated_Source\PSoC4/CapSense_SMS.c **** 	SMS_LIB_SensorSensitivity[sensor] |= (uint8)value;
 533              		.loc 1 407 0
 534 002a 074A     		ldr	r2, .L26
 535 002c 7B68     		ldr	r3, [r7, #4]
 536 002e D318     		add	r3, r2, r3
 537 0030 1A78     		ldrb	r2, [r3]
 538 0032 3B68     		ldr	r3, [r7]
 539 0034 DBB2     		uxtb	r3, r3
 540 0036 1343     		orr	r3, r2
 541 0038 DAB2     		uxtb	r2, r3
 542 003a 0349     		ldr	r1, .L26
 543 003c 7B68     		ldr	r3, [r7, #4]
 544 003e CB18     		add	r3, r1, r3
 545 0040 1A70     		strb	r2, [r3]
 408:.\Generated_Source\PSoC4/CapSense_SMS.c **** }
 546              		.loc 1 408 0
 547 0042 BD46     		mov	sp, r7
 548 0044 02B0     		add	sp, sp, #8
 549              		@ sp needed
 550 0046 80BD     		pop	{r7, pc}
 551              	.L27:
 552              		.align	2
 553              	.L26:
ARM GAS  C:\Users\jsing\AppData\Local\Temp\ccfzye9U.s 			page 18


 554 0048 00000000 		.word	SMS_LIB_SensorSensitivity
 555              		.cfi_endproc
 556              	.LFE40:
 557              		.size	CapSense_SetSensitivity, .-CapSense_SetSensitivity
 558              		.section	.text.CapSense_GetSensitivityCoefficient,"ax",%progbits
 559              		.align	2
 560              		.global	CapSense_GetSensitivityCoefficient
 561              		.code	16
 562              		.thumb_func
 563              		.type	CapSense_GetSensitivityCoefficient, %function
 564              	CapSense_GetSensitivityCoefficient:
 565              	.LFB41:
 409:.\Generated_Source\PSoC4/CapSense_SMS.c **** 
 410:.\Generated_Source\PSoC4/CapSense_SMS.c **** 
 411:.\Generated_Source\PSoC4/CapSense_SMS.c **** /*******************************************************************************
 412:.\Generated_Source\PSoC4/CapSense_SMS.c **** * Function Name: CapSense_GetSensitivityCoefficient
 413:.\Generated_Source\PSoC4/CapSense_SMS.c **** ********************************************************************************
 414:.\Generated_Source\PSoC4/CapSense_SMS.c **** *
 415:.\Generated_Source\PSoC4/CapSense_SMS.c **** * Summary:
 416:.\Generated_Source\PSoC4/CapSense_SMS.c **** *  This API returns the K coefficient for the appropriate sensor. 
 417:.\Generated_Source\PSoC4/CapSense_SMS.c **** *
 418:.\Generated_Source\PSoC4/CapSense_SMS.c **** * Parameters: 
 419:.\Generated_Source\PSoC4/CapSense_SMS.c **** *  sensor:  Sensor index 
 420:.\Generated_Source\PSoC4/CapSense_SMS.c **** *
 421:.\Generated_Source\PSoC4/CapSense_SMS.c **** *  Return Value:
 422:.\Generated_Source\PSoC4/CapSense_SMS.c **** *   K - value for the appropriate sensor.
 423:.\Generated_Source\PSoC4/CapSense_SMS.c **** *
 424:.\Generated_Source\PSoC4/CapSense_SMS.c **** * Global Variables:
 425:.\Generated_Source\PSoC4/CapSense_SMS.c **** *  kValueTbl[] - This 8-bits array contains the K value for each sensor.
 426:.\Generated_Source\PSoC4/CapSense_SMS.c **** *
 427:.\Generated_Source\PSoC4/CapSense_SMS.c **** * Side Effects: 
 428:.\Generated_Source\PSoC4/CapSense_SMS.c **** *  None
 429:.\Generated_Source\PSoC4/CapSense_SMS.c **** *
 430:.\Generated_Source\PSoC4/CapSense_SMS.c **** *******************************************************************************/
 431:.\Generated_Source\PSoC4/CapSense_SMS.c **** uint8 CapSense_GetSensitivityCoefficient(uint32 sensor)
 432:.\Generated_Source\PSoC4/CapSense_SMS.c **** {
 566              		.loc 1 432 0
 567              		.cfi_startproc
 568 0000 80B5     		push	{r7, lr}
 569              		.cfi_def_cfa_offset 8
 570              		.cfi_offset 7, -8
 571              		.cfi_offset 14, -4
 572 0002 82B0     		sub	sp, sp, #8
 573              		.cfi_def_cfa_offset 16
 574 0004 00AF     		add	r7, sp, #0
 575              		.cfi_def_cfa_register 7
 576 0006 7860     		str	r0, [r7, #4]
 433:.\Generated_Source\PSoC4/CapSense_SMS.c **** 	return (kValueTbl[sensor]);
 577              		.loc 1 433 0
 578 0008 034A     		ldr	r2, .L30
 579 000a 7B68     		ldr	r3, [r7, #4]
 580 000c D318     		add	r3, r2, r3
 581 000e 1B78     		ldrb	r3, [r3]
 434:.\Generated_Source\PSoC4/CapSense_SMS.c **** }
 582              		.loc 1 434 0
 583 0010 181C     		mov	r0, r3
 584 0012 BD46     		mov	sp, r7
ARM GAS  C:\Users\jsing\AppData\Local\Temp\ccfzye9U.s 			page 19


 585 0014 02B0     		add	sp, sp, #8
 586              		@ sp needed
 587 0016 80BD     		pop	{r7, pc}
 588              	.L31:
 589              		.align	2
 590              	.L30:
 591 0018 00000000 		.word	kValueTbl
 592              		.cfi_endproc
 593              	.LFE41:
 594              		.size	CapSense_GetSensitivityCoefficient, .-CapSense_GetSensitivityCoefficient
 595              		.section	.text.CapSense_GetNoiseEnvelope,"ax",%progbits
 596              		.align	2
 597              		.global	CapSense_GetNoiseEnvelope
 598              		.code	16
 599              		.thumb_func
 600              		.type	CapSense_GetNoiseEnvelope, %function
 601              	CapSense_GetNoiseEnvelope:
 602              	.LFB42:
 435:.\Generated_Source\PSoC4/CapSense_SMS.c **** 
 436:.\Generated_Source\PSoC4/CapSense_SMS.c **** 
 437:.\Generated_Source\PSoC4/CapSense_SMS.c **** /*******************************************************************************
 438:.\Generated_Source\PSoC4/CapSense_SMS.c **** * Function Name: CapSense_GetNoiseEnvelope
 439:.\Generated_Source\PSoC4/CapSense_SMS.c **** ********************************************************************************
 440:.\Generated_Source\PSoC4/CapSense_SMS.c **** *
 441:.\Generated_Source\PSoC4/CapSense_SMS.c **** * Summary:
 442:.\Generated_Source\PSoC4/CapSense_SMS.c **** *  This function returns the noise value of a
 443:.\Generated_Source\PSoC4/CapSense_SMS.c **** *  component.
 444:.\Generated_Source\PSoC4/CapSense_SMS.c **** *
 445:.\Generated_Source\PSoC4/CapSense_SMS.c **** * Parameters:
 446:.\Generated_Source\PSoC4/CapSense_SMS.c **** *  sensor - Sensor number.
 447:.\Generated_Source\PSoC4/CapSense_SMS.c **** *
 448:.\Generated_Source\PSoC4/CapSense_SMS.c **** * Return:
 449:.\Generated_Source\PSoC4/CapSense_SMS.c **** *  The noise envelope value of the sensor
 450:.\Generated_Source\PSoC4/CapSense_SMS.c **** *  indicated by argument.
 451:.\Generated_Source\PSoC4/CapSense_SMS.c **** *
 452:.\Generated_Source\PSoC4/CapSense_SMS.c **** * Global Variables:
 453:.\Generated_Source\PSoC4/CapSense_SMS.c **** *  baNoiseEnvelope[] - array with Noise Envelope.
 454:.\Generated_Source\PSoC4/CapSense_SMS.c **** *
 455:.\Generated_Source\PSoC4/CapSense_SMS.c **** * Side Effects:
 456:.\Generated_Source\PSoC4/CapSense_SMS.c **** *  None
 457:.\Generated_Source\PSoC4/CapSense_SMS.c **** *
 458:.\Generated_Source\PSoC4/CapSense_SMS.c **** *******************************************************************************/
 459:.\Generated_Source\PSoC4/CapSense_SMS.c **** uint16 CapSense_GetNoiseEnvelope(uint32 sensor)
 460:.\Generated_Source\PSoC4/CapSense_SMS.c **** {
 603              		.loc 1 460 0
 604              		.cfi_startproc
 605 0000 80B5     		push	{r7, lr}
 606              		.cfi_def_cfa_offset 8
 607              		.cfi_offset 7, -8
 608              		.cfi_offset 14, -4
 609 0002 82B0     		sub	sp, sp, #8
 610              		.cfi_def_cfa_offset 16
 611 0004 00AF     		add	r7, sp, #0
 612              		.cfi_def_cfa_register 7
 613 0006 7860     		str	r0, [r7, #4]
 461:.\Generated_Source\PSoC4/CapSense_SMS.c ****     return((uint16)((uint16)noiseEnvelopeTbl[sensor] << 1u) + 1u);
 614              		.loc 1 461 0
ARM GAS  C:\Users\jsing\AppData\Local\Temp\ccfzye9U.s 			page 20


 615 0008 054A     		ldr	r2, .L34
 616 000a 7B68     		ldr	r3, [r7, #4]
 617 000c D318     		add	r3, r2, r3
 618 000e 1B78     		ldrb	r3, [r3]
 619 0010 DB18     		add	r3, r3, r3
 620 0012 9BB2     		uxth	r3, r3
 621 0014 0133     		add	r3, r3, #1
 622 0016 9BB2     		uxth	r3, r3
 462:.\Generated_Source\PSoC4/CapSense_SMS.c **** }
 623              		.loc 1 462 0
 624 0018 181C     		mov	r0, r3
 625 001a BD46     		mov	sp, r7
 626 001c 02B0     		add	sp, sp, #8
 627              		@ sp needed
 628 001e 80BD     		pop	{r7, pc}
 629              	.L35:
 630              		.align	2
 631              	.L34:
 632 0020 00000000 		.word	noiseEnvelopeTbl
 633              		.cfi_endproc
 634              	.LFE42:
 635              		.size	CapSense_GetNoiseEnvelope, .-CapSense_GetNoiseEnvelope
 636              		.global	__aeabi_uidiv
 637              		.section	.text.CapSense_GetNormalizedDiffCountData,"ax",%progbits
 638              		.align	2
 639              		.global	CapSense_GetNormalizedDiffCountData
 640              		.code	16
 641              		.thumb_func
 642              		.type	CapSense_GetNormalizedDiffCountData, %function
 643              	CapSense_GetNormalizedDiffCountData:
 644              	.LFB43:
 463:.\Generated_Source\PSoC4/CapSense_SMS.c **** 
 464:.\Generated_Source\PSoC4/CapSense_SMS.c **** 
 465:.\Generated_Source\PSoC4/CapSense_SMS.c **** /*******************************************************************************
 466:.\Generated_Source\PSoC4/CapSense_SMS.c **** * Function Name: CapSense_GetNormalizedDiffCountData
 467:.\Generated_Source\PSoC4/CapSense_SMS.c **** ********************************************************************************
 468:.\Generated_Source\PSoC4/CapSense_SMS.c **** *
 469:.\Generated_Source\PSoC4/CapSense_SMS.c **** * Summary:
 470:.\Generated_Source\PSoC4/CapSense_SMS.c **** *  This API returns normalized difference count data.
 471:.\Generated_Source\PSoC4/CapSense_SMS.c **** *
 472:.\Generated_Source\PSoC4/CapSense_SMS.c **** * Parameters:
 473:.\Generated_Source\PSoC4/CapSense_SMS.c **** *  sensor:  Sensor number.
 474:.\Generated_Source\PSoC4/CapSense_SMS.c **** *
 475:.\Generated_Source\PSoC4/CapSense_SMS.c **** * Return:
 476:.\Generated_Source\PSoC4/CapSense_SMS.c **** *  This API returns a normalized count value of the sensor indicated by the 
 477:.\Generated_Source\PSoC4/CapSense_SMS.c **** *  argument. 
 478:.\Generated_Source\PSoC4/CapSense_SMS.c **** *
 479:.\Generated_Source\PSoC4/CapSense_SMS.c **** * Global Variables:
 480:.\Generated_Source\PSoC4/CapSense_SMS.c **** *  CapSense_sensorSignal[] - array with difference counts for sensors
 481:.\Generated_Source\PSoC4/CapSense_SMS.c **** * 
 482:.\Generated_Source\PSoC4/CapSense_SMS.c **** * Side Effects:
 483:.\Generated_Source\PSoC4/CapSense_SMS.c **** *  None
 484:.\Generated_Source\PSoC4/CapSense_SMS.c **** *
 485:.\Generated_Source\PSoC4/CapSense_SMS.c **** *******************************************************************************/
 486:.\Generated_Source\PSoC4/CapSense_SMS.c **** uint16 CapSense_GetNormalizedDiffCountData(uint32 sensor)
 487:.\Generated_Source\PSoC4/CapSense_SMS.c **** {
 645              		.loc 1 487 0
ARM GAS  C:\Users\jsing\AppData\Local\Temp\ccfzye9U.s 			page 21


 646              		.cfi_startproc
 647 0000 80B5     		push	{r7, lr}
 648              		.cfi_def_cfa_offset 8
 649              		.cfi_offset 7, -8
 650              		.cfi_offset 14, -4
 651 0002 82B0     		sub	sp, sp, #8
 652              		.cfi_def_cfa_offset 16
 653 0004 00AF     		add	r7, sp, #0
 654              		.cfi_def_cfa_register 7
 655 0006 7860     		str	r0, [r7, #4]
 488:.\Generated_Source\PSoC4/CapSense_SMS.c **** 	return (uint16)(((uint32)CapSense_sensorSignal[sensor] << 7u) / kValueTbl[sensor]);
 656              		.loc 1 488 0
 657 0008 094A     		ldr	r2, .L38
 658 000a 7B68     		ldr	r3, [r7, #4]
 659 000c D318     		add	r3, r2, r3
 660 000e 1B78     		ldrb	r3, [r3]
 661 0010 DA01     		lsl	r2, r3, #7
 662 0012 0849     		ldr	r1, .L38+4
 663 0014 7B68     		ldr	r3, [r7, #4]
 664 0016 CB18     		add	r3, r1, r3
 665 0018 1B78     		ldrb	r3, [r3]
 666 001a 101C     		mov	r0, r2
 667 001c 191C     		mov	r1, r3
 668 001e FFF7FEFF 		bl	__aeabi_uidiv
 669 0022 031C     		mov	r3, r0
 670 0024 9BB2     		uxth	r3, r3
 489:.\Generated_Source\PSoC4/CapSense_SMS.c **** }
 671              		.loc 1 489 0
 672 0026 181C     		mov	r0, r3
 673 0028 BD46     		mov	sp, r7
 674 002a 02B0     		add	sp, sp, #8
 675              		@ sp needed
 676 002c 80BD     		pop	{r7, pc}
 677              	.L39:
 678 002e C046     		.align	2
 679              	.L38:
 680 0030 00000000 		.word	CapSense_sensorSignal
 681 0034 00000000 		.word	kValueTbl
 682              		.cfi_endproc
 683              	.LFE43:
 684              		.size	CapSense_GetNormalizedDiffCountData, .-CapSense_GetNormalizedDiffCountData
 685              		.text
 686              	.Letext0:
 687              		.file 2 ".\\Generated_Source\\PSoC4\\cytypes.h"
 688              		.file 3 ".\\Generated_Source\\PSoC4\\CapSense_PVT.h"
 689              		.file 4 ".\\Generated_Source\\PSoC4\\CapSense.h"
 690              		.file 5 ".\\Generated_Source\\PSoC4\\CapSense_CSHL.h"