ARM GAS  C:\Users\jsing\AppData\Local\Temp\ccHQxQnh.s 			page 1


   1              		.cpu cortex-m0
   2              		.fpu softvfp
   3              		.eabi_attribute 20, 1
   4              		.eabi_attribute 21, 1
   5              		.eabi_attribute 23, 3
   6              		.eabi_attribute 24, 1
   7              		.eabi_attribute 25, 1
   8              		.eabi_attribute 26, 1
   9              		.eabi_attribute 30, 6
  10              		.eabi_attribute 34, 0
  11              		.eabi_attribute 18, 4
  12              		.code	16
  13              		.file	"CapSense_CSHL.c"
  14              		.text
  15              	.Ltext0:
  16              		.cfi_sections	.debug_frame
  17              		.comm	CapSense_rawFilterData1,2,4
  18              		.global	CapSense_sensorBaseline
  19              		.bss
  20              		.align	2
  21              		.type	CapSense_sensorBaseline, %object
  22              		.size	CapSense_sensorBaseline, 2
  23              	CapSense_sensorBaseline:
  24 0000 0000     		.space	2
  25              		.global	CapSense_sensorBaselineLow
  26 0002 0000     		.align	2
  27              		.type	CapSense_sensorBaselineLow, %object
  28              		.size	CapSense_sensorBaselineLow, 1
  29              	CapSense_sensorBaselineLow:
  30 0004 00       		.space	1
  31              		.global	CapSense_sensorSignal
  32 0005 000000   		.align	2
  33              		.type	CapSense_sensorSignal, %object
  34              		.size	CapSense_sensorSignal, 1
  35              	CapSense_sensorSignal:
  36 0008 00       		.space	1
  37              		.global	CapSense_sensorOnMask
  38 0009 000000   		.align	2
  39              		.type	CapSense_sensorOnMask, %object
  40              		.size	CapSense_sensorOnMask, 1
  41              	CapSense_sensorOnMask:
  42 000c 00       		.space	1
  43              		.comm	CapSense_lowBaselineResetCnt,1,4
  44              		.global	CapSense_lowBaselineReset
  45              		.data
  46              		.align	2
  47              		.type	CapSense_lowBaselineReset, %object
  48              		.size	CapSense_lowBaselineReset, 1
  49              	CapSense_lowBaselineReset:
  50 0000 1E       		.byte	30
  51              		.global	CapSense_enableRawFilters
  52              		.type	CapSense_enableRawFilters, %object
  53              		.size	CapSense_enableRawFilters, 1
  54              	CapSense_enableRawFilters:
  55 0001 01       		.byte	1
  56              		.comm	CapSense_fingerThreshold,1,4
  57              		.comm	CapSense_noiseThreshold,1,4
ARM GAS  C:\Users\jsing\AppData\Local\Temp\ccHQxQnh.s 			page 2


  58              		.comm	CapSense_negativeNoiseThreshold,1,4
  59              		.comm	CapSense_hysteresis,1,4
  60              		.global	CapSense_debounce
  61 0002 0000     		.align	2
  62              		.type	CapSense_debounce, %object
  63              		.size	CapSense_debounce, 1
  64              	CapSense_debounce:
  65 0004 05       		.byte	5
  66 0005 000000   		.bss
  67 000d 000000   		.align	2
  68              	CapSense_debounceCounter:
  69 0010 0000     		.space	2
  70              		.global	CapSense_rawDataIndex
  71 0012 0000     		.section	.rodata
  72              		.align	2
  73              		.type	CapSense_rawDataIndex, %object
  74              		.size	CapSense_rawDataIndex, 1
  75              	CapSense_rawDataIndex:
  76 0000 00       		.space	1
  77              		.global	CapSense_numberOfSensors
  78 0001 000000   		.align	2
  79              		.type	CapSense_numberOfSensors, %object
  80              		.size	CapSense_numberOfSensors, 1
  81              	CapSense_numberOfSensors:
  82 0004 01       		.byte	1
  83 0005 000000   		.section	.text.CapSense_BaseInit,"ax",%progbits
  84              		.align	2
  85              		.global	CapSense_BaseInit
  86              		.code	16
  87              		.thumb_func
  88              		.type	CapSense_BaseInit, %function
  89              	CapSense_BaseInit:
  90              	.LFB35:
  91              		.file 1 ".\\Generated_Source\\PSoC4\\CapSense_CSHL.c"
   1:.\Generated_Source\PSoC4/CapSense_CSHL.c **** /*******************************************************************************
   2:.\Generated_Source\PSoC4/CapSense_CSHL.c **** * File Name: CapSense_CSHL.c
   3:.\Generated_Source\PSoC4/CapSense_CSHL.c **** * Version 2.10
   4:.\Generated_Source\PSoC4/CapSense_CSHL.c **** *
   5:.\Generated_Source\PSoC4/CapSense_CSHL.c **** * Description:
   6:.\Generated_Source\PSoC4/CapSense_CSHL.c **** *  This file provides the source code to the High Level APIs for the CapSesne
   7:.\Generated_Source\PSoC4/CapSense_CSHL.c **** *  CSD component.
   8:.\Generated_Source\PSoC4/CapSense_CSHL.c **** *
   9:.\Generated_Source\PSoC4/CapSense_CSHL.c **** * Note:
  10:.\Generated_Source\PSoC4/CapSense_CSHL.c **** *
  11:.\Generated_Source\PSoC4/CapSense_CSHL.c **** ********************************************************************************
  12:.\Generated_Source\PSoC4/CapSense_CSHL.c **** * Copyright 2014, Cypress Semiconductor Corporation.  All rights reserved.
  13:.\Generated_Source\PSoC4/CapSense_CSHL.c **** * You may use this file only in accordance with the license, terms, conditions,
  14:.\Generated_Source\PSoC4/CapSense_CSHL.c **** * disclaimers, and limitations in the end user license agreement accompanying
  15:.\Generated_Source\PSoC4/CapSense_CSHL.c **** * the software package with which this file was provided.
  16:.\Generated_Source\PSoC4/CapSense_CSHL.c **** *******************************************************************************/
  17:.\Generated_Source\PSoC4/CapSense_CSHL.c **** 
  18:.\Generated_Source\PSoC4/CapSense_CSHL.c **** #include "CapSense_CSHL.h"
  19:.\Generated_Source\PSoC4/CapSense_CSHL.c **** #include "CapSense_PVT.h"
  20:.\Generated_Source\PSoC4/CapSense_CSHL.c **** 
  21:.\Generated_Source\PSoC4/CapSense_CSHL.c **** /* SmartSense functions */
  22:.\Generated_Source\PSoC4/CapSense_CSHL.c **** #if (CapSense_TUNING_METHOD == CapSense__TUNING_AUTO)
  23:.\Generated_Source\PSoC4/CapSense_CSHL.c ****     extern void CapSense_UpdateThresholds(uint32 sensor);
ARM GAS  C:\Users\jsing\AppData\Local\Temp\ccHQxQnh.s 			page 3


  24:.\Generated_Source\PSoC4/CapSense_CSHL.c **** #endif /* (CapSense_TUNING_METHOD == CapSense__TUNING_AUTO) */
  25:.\Generated_Source\PSoC4/CapSense_CSHL.c **** 
  26:.\Generated_Source\PSoC4/CapSense_CSHL.c **** /* Storage of filters data */
  27:.\Generated_Source\PSoC4/CapSense_CSHL.c **** #if ( (0u != (CapSense_RAW_FILTER_MASK & CapSense_MEDIAN_FILTER)) || \
  28:.\Generated_Source\PSoC4/CapSense_CSHL.c ****       (0u != (CapSense_RAW_FILTER_MASK & CapSense_AVERAGING_FILTER)) )
  29:.\Generated_Source\PSoC4/CapSense_CSHL.c **** 
  30:.\Generated_Source\PSoC4/CapSense_CSHL.c ****     uint16 CapSense_rawFilterData1[CapSense_TOTAL_SENSOR_COUNT];
  31:.\Generated_Source\PSoC4/CapSense_CSHL.c ****     uint16 CapSense_rawFilterData2[CapSense_TOTAL_SENSOR_COUNT];
  32:.\Generated_Source\PSoC4/CapSense_CSHL.c **** 
  33:.\Generated_Source\PSoC4/CapSense_CSHL.c **** #elif ( (0u != (CapSense_RAW_FILTER_MASK & CapSense_IIR2_FILTER))   || \
  34:.\Generated_Source\PSoC4/CapSense_CSHL.c ****         (0u != (CapSense_RAW_FILTER_MASK & CapSense_IIR4_FILTER))   || \
  35:.\Generated_Source\PSoC4/CapSense_CSHL.c ****         (0u != (CapSense_RAW_FILTER_MASK & CapSense_JITTER_FILTER)) || \
  36:.\Generated_Source\PSoC4/CapSense_CSHL.c ****         (0u != (CapSense_RAW_FILTER_MASK & CapSense_IIR8_FILTER))   || \
  37:.\Generated_Source\PSoC4/CapSense_CSHL.c ****         (0u != (CapSense_RAW_FILTER_MASK & CapSense_IIR16_FILTER)) )
  38:.\Generated_Source\PSoC4/CapSense_CSHL.c ****         
  39:.\Generated_Source\PSoC4/CapSense_CSHL.c ****     uint16 CapSense_rawFilterData1[CapSense_TOTAL_SENSOR_COUNT];
  40:.\Generated_Source\PSoC4/CapSense_CSHL.c **** #endif  /* ( (CapSense_RAW_FILTER_MASK & CapSense_MEDIAN_FILTER) || \
  41:.\Generated_Source\PSoC4/CapSense_CSHL.c ****         *    (CapSense_RAW_FILTER_MASK & CapSense_AVERAGING_FILTER) )
  42:.\Generated_Source\PSoC4/CapSense_CSHL.c ****         */
  43:.\Generated_Source\PSoC4/CapSense_CSHL.c **** 
  44:.\Generated_Source\PSoC4/CapSense_CSHL.c **** extern uint16 CapSense_sensorRaw[CapSense_TOTAL_SENSOR_COUNT];
  45:.\Generated_Source\PSoC4/CapSense_CSHL.c **** extern uint8 CapSense_sensorEnableMask[CapSense_TOTAL_SENSOR_MASK];
  46:.\Generated_Source\PSoC4/CapSense_CSHL.c **** extern const uint8 CapSense_widgetNumber[CapSense_TOTAL_SENSOR_COUNT];
  47:.\Generated_Source\PSoC4/CapSense_CSHL.c **** 
  48:.\Generated_Source\PSoC4/CapSense_CSHL.c **** #if (CapSense_TUNING_METHOD != CapSense__TUNING_NONE)
  49:.\Generated_Source\PSoC4/CapSense_CSHL.c **** 	extern uint32 CapSense_widgetResolution[CapSense_RESOLUTIONS_TBL_SIZE];	
  50:.\Generated_Source\PSoC4/CapSense_CSHL.c **** #endif /* (CapSense_TUNING_METHOD != CapSense__TUNING_NONE) */
  51:.\Generated_Source\PSoC4/CapSense_CSHL.c **** 
  52:.\Generated_Source\PSoC4/CapSense_CSHL.c **** uint16 CapSense_sensorBaseline[CapSense_TOTAL_SENSOR_COUNT] = {0u};
  53:.\Generated_Source\PSoC4/CapSense_CSHL.c **** uint8 CapSense_sensorBaselineLow[CapSense_TOTAL_SENSOR_COUNT] = {0u};
  54:.\Generated_Source\PSoC4/CapSense_CSHL.c **** uint8 CapSense_sensorSignal[CapSense_TOTAL_SENSOR_COUNT] = {0u};
  55:.\Generated_Source\PSoC4/CapSense_CSHL.c **** uint8 CapSense_sensorOnMask[CapSense_TOTAL_SENSOR_MASK] = {0u};
  56:.\Generated_Source\PSoC4/CapSense_CSHL.c **** 
  57:.\Generated_Source\PSoC4/CapSense_CSHL.c **** uint8 CapSense_lowBaselineResetCnt[CapSense_TOTAL_SENSOR_COUNT];
  58:.\Generated_Source\PSoC4/CapSense_CSHL.c **** uint8 CapSense_lowBaselineReset[CapSense_TOTAL_SENSOR_COUNT] = {
  59:.\Generated_Source\PSoC4/CapSense_CSHL.c ****     30u, 
  60:.\Generated_Source\PSoC4/CapSense_CSHL.c **** };
  61:.\Generated_Source\PSoC4/CapSense_CSHL.c **** 
  62:.\Generated_Source\PSoC4/CapSense_CSHL.c **** 
  63:.\Generated_Source\PSoC4/CapSense_CSHL.c **** 
  64:.\Generated_Source\PSoC4/CapSense_CSHL.c **** #if (CapSense_TUNING_METHOD == CapSense__TUNING_AUTO)
  65:.\Generated_Source\PSoC4/CapSense_CSHL.c **** 	extern CapSense_CONFIG_TYPE_P4_v2_10 CapSense_config;
  66:.\Generated_Source\PSoC4/CapSense_CSHL.c **** #endif  /* (CapSense_TUNING_METHOD == CapSense__TUNING_AUTO) */
  67:.\Generated_Source\PSoC4/CapSense_CSHL.c **** 
  68:.\Generated_Source\PSoC4/CapSense_CSHL.c **** #if (CapSense_RAW_FILTER_MASK != 0u)
  69:.\Generated_Source\PSoC4/CapSense_CSHL.c **** uint8 CapSense_enableRawFilters = CapSense_RAW_FILTERS_ENABLED;
  70:.\Generated_Source\PSoC4/CapSense_CSHL.c **** #endif  /* (CapSense_RAW_FILTER_MASK != 0u) */
  71:.\Generated_Source\PSoC4/CapSense_CSHL.c **** 
  72:.\Generated_Source\PSoC4/CapSense_CSHL.c **** /* Generated by Customizer */
  73:.\Generated_Source\PSoC4/CapSense_CSHL.c **** uint8 CapSense_fingerThreshold[CapSense_THRESHOLD_TBL_SIZE];
  74:.\Generated_Source\PSoC4/CapSense_CSHL.c **** 
  75:.\Generated_Source\PSoC4/CapSense_CSHL.c **** uint8 CapSense_noiseThreshold[CapSense_THRESHOLD_TBL_SIZE];
  76:.\Generated_Source\PSoC4/CapSense_CSHL.c **** 
  77:.\Generated_Source\PSoC4/CapSense_CSHL.c **** uint8 CapSense_negativeNoiseThreshold[CapSense_THRESHOLD_TBL_SIZE];
  78:.\Generated_Source\PSoC4/CapSense_CSHL.c **** 
  79:.\Generated_Source\PSoC4/CapSense_CSHL.c **** uint8 CapSense_hysteresis[CapSense_WIDGET_PARAM_TBL_SIZE];
  80:.\Generated_Source\PSoC4/CapSense_CSHL.c **** 
ARM GAS  C:\Users\jsing\AppData\Local\Temp\ccHQxQnh.s 			page 4


  81:.\Generated_Source\PSoC4/CapSense_CSHL.c **** uint8 CapSense_debounce[] = {
  82:.\Generated_Source\PSoC4/CapSense_CSHL.c ****     5u, 
  83:.\Generated_Source\PSoC4/CapSense_CSHL.c **** };
  84:.\Generated_Source\PSoC4/CapSense_CSHL.c **** 
  85:.\Generated_Source\PSoC4/CapSense_CSHL.c **** static uint8 CapSense_debounceCounter[] = {
  86:.\Generated_Source\PSoC4/CapSense_CSHL.c ****     0u, 0u, 
  87:.\Generated_Source\PSoC4/CapSense_CSHL.c **** };
  88:.\Generated_Source\PSoC4/CapSense_CSHL.c **** 
  89:.\Generated_Source\PSoC4/CapSense_CSHL.c **** const uint8 CapSense_rawDataIndex[] = {
  90:.\Generated_Source\PSoC4/CapSense_CSHL.c ****     0u, /* ProximitySensor0__PROX */
  91:.\Generated_Source\PSoC4/CapSense_CSHL.c **** };
  92:.\Generated_Source\PSoC4/CapSense_CSHL.c **** 
  93:.\Generated_Source\PSoC4/CapSense_CSHL.c **** const uint8 CapSense_numberOfSensors[] = {
  94:.\Generated_Source\PSoC4/CapSense_CSHL.c ****     1u, /* ProximitySensor0__PROX */
  95:.\Generated_Source\PSoC4/CapSense_CSHL.c **** };
  96:.\Generated_Source\PSoC4/CapSense_CSHL.c **** 
  97:.\Generated_Source\PSoC4/CapSense_CSHL.c **** 
  98:.\Generated_Source\PSoC4/CapSense_CSHL.c **** 
  99:.\Generated_Source\PSoC4/CapSense_CSHL.c **** 
 100:.\Generated_Source\PSoC4/CapSense_CSHL.c **** /*******************************************************************************
 101:.\Generated_Source\PSoC4/CapSense_CSHL.c **** * Function Name: CapSense_BaseInit
 102:.\Generated_Source\PSoC4/CapSense_CSHL.c **** ********************************************************************************
 103:.\Generated_Source\PSoC4/CapSense_CSHL.c **** *
 104:.\Generated_Source\PSoC4/CapSense_CSHL.c **** * Summary:
 105:.\Generated_Source\PSoC4/CapSense_CSHL.c **** *  Loads the CapSense_sensorBaseline[sensor] array element with an 
 106:.\Generated_Source\PSoC4/CapSense_CSHL.c **** *  initial value which is equal to the raw count value. 
 107:.\Generated_Source\PSoC4/CapSense_CSHL.c **** *  Resets to zero CapSense_sensorBaselineLow[sensor] and 
 108:.\Generated_Source\PSoC4/CapSense_CSHL.c **** *  CapSense_sensorSignal[sensor] array element.
 109:.\Generated_Source\PSoC4/CapSense_CSHL.c **** *  Loads the CapSense_rawFilterData2[sensor] and 
 110:.\Generated_Source\PSoC4/CapSense_CSHL.c **** *  CapSense_rawFilterData2[sensor] array element with an 
 111:.\Generated_Source\PSoC4/CapSense_CSHL.c **** *  initial value which is equal to the raw count value if the raw data filter is enabled.
 112:.\Generated_Source\PSoC4/CapSense_CSHL.c **** *
 113:.\Generated_Source\PSoC4/CapSense_CSHL.c **** * Parameters:
 114:.\Generated_Source\PSoC4/CapSense_CSHL.c **** *  sensor:  Sensor number.
 115:.\Generated_Source\PSoC4/CapSense_CSHL.c **** *
 116:.\Generated_Source\PSoC4/CapSense_CSHL.c **** * Return:
 117:.\Generated_Source\PSoC4/CapSense_CSHL.c **** *  None
 118:.\Generated_Source\PSoC4/CapSense_CSHL.c **** *
 119:.\Generated_Source\PSoC4/CapSense_CSHL.c **** * Global Variables:
 120:.\Generated_Source\PSoC4/CapSense_CSHL.c **** *  CapSense_sensorBaseline[]    - used to store the baseline value.
 121:.\Generated_Source\PSoC4/CapSense_CSHL.c **** *  CapSense_sensorBaselineLow[] - used to store the fraction byte of 
 122:.\Generated_Source\PSoC4/CapSense_CSHL.c **** *  the baseline value.
 123:.\Generated_Source\PSoC4/CapSense_CSHL.c **** *  CapSense_sensorSignal[]      - used to store a difference between 
 124:.\Generated_Source\PSoC4/CapSense_CSHL.c **** *  the current value of raw data and the previous value of the baseline.
 125:.\Generated_Source\PSoC4/CapSense_CSHL.c **** *  CapSense_rawFilterData1[]    - used to store a previous sample of 
 126:.\Generated_Source\PSoC4/CapSense_CSHL.c **** *  any enabled raw data filter.
 127:.\Generated_Source\PSoC4/CapSense_CSHL.c **** *  CapSense_rawFilterData2[]    - used to store before a previous sample
 128:.\Generated_Source\PSoC4/CapSense_CSHL.c **** *  of the enabled raw data filter. Required only for median or average filters.
 129:.\Generated_Source\PSoC4/CapSense_CSHL.c **** *
 130:.\Generated_Source\PSoC4/CapSense_CSHL.c **** * Side Effects:
 131:.\Generated_Source\PSoC4/CapSense_CSHL.c **** *  None
 132:.\Generated_Source\PSoC4/CapSense_CSHL.c **** * 
 133:.\Generated_Source\PSoC4/CapSense_CSHL.c **** *******************************************************************************/
 134:.\Generated_Source\PSoC4/CapSense_CSHL.c **** void CapSense_BaseInit(uint32 sensor)
 135:.\Generated_Source\PSoC4/CapSense_CSHL.c **** {
  92              		.loc 1 135 0
  93              		.cfi_startproc
ARM GAS  C:\Users\jsing\AppData\Local\Temp\ccHQxQnh.s 			page 5


  94 0000 80B5     		push	{r7, lr}
  95              		.cfi_def_cfa_offset 8
  96              		.cfi_offset 7, -8
  97              		.cfi_offset 14, -4
  98 0002 84B0     		sub	sp, sp, #16
  99              		.cfi_def_cfa_offset 24
 100 0004 00AF     		add	r7, sp, #0
 101              		.cfi_def_cfa_register 7
 102 0006 7860     		str	r0, [r7, #4]
 136:.\Generated_Source\PSoC4/CapSense_CSHL.c ****     #if ((CapSense_TOTAL_BUTTONS_COUNT) || (CapSense_TOTAL_MATRIX_BUTTONS_COUNT) || \
 137:.\Generated_Source\PSoC4/CapSense_CSHL.c ****          (CapSense_TOTAL_GENERICS_COUNT))
 138:.\Generated_Source\PSoC4/CapSense_CSHL.c ****         uint8 widget = CapSense_widgetNumber[sensor];
 103              		.loc 1 138 0
 104 0008 3B1C     		mov	r3, r7
 105 000a 0F33     		add	r3, r3, #15
 106 000c 1549     		ldr	r1, .L2
 107 000e 7A68     		ldr	r2, [r7, #4]
 108 0010 8A18     		add	r2, r1, r2
 109 0012 1278     		ldrb	r2, [r2]
 110 0014 1A70     		strb	r2, [r3]
 139:.\Generated_Source\PSoC4/CapSense_CSHL.c ****     #endif /* ((CapSense_TOTAL_MATRIX_BUTTONS_COUNT) || (CapSense_TOTAL_MATRIX_BUTTONS_COUNT)) */
 140:.\Generated_Source\PSoC4/CapSense_CSHL.c ****     
 141:.\Generated_Source\PSoC4/CapSense_CSHL.c ****     #if (CapSense_TOTAL_MATRIX_BUTTONS_COUNT)
 142:.\Generated_Source\PSoC4/CapSense_CSHL.c ****         uint8 debounceIndex;
 143:.\Generated_Source\PSoC4/CapSense_CSHL.c ****     #endif  /* (CapSense_TOTAL_MATRIX_BUTTONS_COUNT) */
 144:.\Generated_Source\PSoC4/CapSense_CSHL.c ****     
 145:.\Generated_Source\PSoC4/CapSense_CSHL.c ****     #if (CapSense_TOTAL_GENERICS_COUNT)
 146:.\Generated_Source\PSoC4/CapSense_CSHL.c ****         /* Exclude generic widget */
 147:.\Generated_Source\PSoC4/CapSense_CSHL.c ****         if(widget < CapSense_END_OF_WIDGETS_INDEX)
 148:.\Generated_Source\PSoC4/CapSense_CSHL.c ****         {
 149:.\Generated_Source\PSoC4/CapSense_CSHL.c ****     #endif  /* CapSense_TOTAL_GENERICS_COUNT */
 150:.\Generated_Source\PSoC4/CapSense_CSHL.c ****     
 151:.\Generated_Source\PSoC4/CapSense_CSHL.c ****     /* Initialize Baseline */
 152:.\Generated_Source\PSoC4/CapSense_CSHL.c ****     CapSense_sensorBaseline[sensor] = CapSense_sensorRaw[sensor];
 111              		.loc 1 152 0
 112 0016 144B     		ldr	r3, .L2+4
 113 0018 7A68     		ldr	r2, [r7, #4]
 114 001a 5200     		lsl	r2, r2, #1
 115 001c D15A     		ldrh	r1, [r2, r3]
 116 001e 134B     		ldr	r3, .L2+8
 117 0020 7A68     		ldr	r2, [r7, #4]
 118 0022 5200     		lsl	r2, r2, #1
 119 0024 D152     		strh	r1, [r2, r3]
 153:.\Generated_Source\PSoC4/CapSense_CSHL.c ****     CapSense_sensorBaselineLow[sensor] = 0u;
 120              		.loc 1 153 0
 121 0026 124A     		ldr	r2, .L2+12
 122 0028 7B68     		ldr	r3, [r7, #4]
 123 002a D318     		add	r3, r2, r3
 124 002c 0022     		mov	r2, #0
 125 002e 1A70     		strb	r2, [r3]
 154:.\Generated_Source\PSoC4/CapSense_CSHL.c ****     CapSense_sensorSignal[sensor] = 0u;
 126              		.loc 1 154 0
 127 0030 104A     		ldr	r2, .L2+16
 128 0032 7B68     		ldr	r3, [r7, #4]
 129 0034 D318     		add	r3, r2, r3
 130 0036 0022     		mov	r2, #0
 131 0038 1A70     		strb	r2, [r3]
ARM GAS  C:\Users\jsing\AppData\Local\Temp\ccHQxQnh.s 			page 6


 155:.\Generated_Source\PSoC4/CapSense_CSHL.c ****         
 156:.\Generated_Source\PSoC4/CapSense_CSHL.c ****     CapSense_debounceCounter[widget] =  CapSense_debounce[widget];
 132              		.loc 1 156 0
 133 003a 3B1C     		mov	r3, r7
 134 003c 0F33     		add	r3, r3, #15
 135 003e 1B78     		ldrb	r3, [r3]
 136 0040 3A1C     		mov	r2, r7
 137 0042 0F32     		add	r2, r2, #15
 138 0044 1278     		ldrb	r2, [r2]
 139 0046 0C49     		ldr	r1, .L2+20
 140 0048 895C     		ldrb	r1, [r1, r2]
 141 004a 0C4A     		ldr	r2, .L2+24
 142 004c D154     		strb	r1, [r2, r3]
 157:.\Generated_Source\PSoC4/CapSense_CSHL.c **** 
 158:.\Generated_Source\PSoC4/CapSense_CSHL.c ****     
 159:.\Generated_Source\PSoC4/CapSense_CSHL.c ****     #if ((0u != (CapSense_RAW_FILTER_MASK & CapSense_MEDIAN_FILTER)) ||\
 160:.\Generated_Source\PSoC4/CapSense_CSHL.c ****          (0u != (CapSense_RAW_FILTER_MASK & CapSense_AVERAGING_FILTER)))
 161:.\Generated_Source\PSoC4/CapSense_CSHL.c **** 
 162:.\Generated_Source\PSoC4/CapSense_CSHL.c ****         CapSense_rawFilterData1[sensor] = CapSense_sensorRaw[sensor];
 163:.\Generated_Source\PSoC4/CapSense_CSHL.c ****         CapSense_rawFilterData2[sensor] = CapSense_sensorRaw[sensor];
 164:.\Generated_Source\PSoC4/CapSense_CSHL.c ****     
 165:.\Generated_Source\PSoC4/CapSense_CSHL.c ****     #elif ((CapSense_RAW_FILTER_MASK & CapSense_IIR2_FILTER) ||\
 166:.\Generated_Source\PSoC4/CapSense_CSHL.c ****            (CapSense_RAW_FILTER_MASK & CapSense_IIR4_FILTER) ||\
 167:.\Generated_Source\PSoC4/CapSense_CSHL.c ****            (CapSense_RAW_FILTER_MASK & CapSense_JITTER_FILTER) ||\
 168:.\Generated_Source\PSoC4/CapSense_CSHL.c ****            (CapSense_RAW_FILTER_MASK & CapSense_IIR8_FILTER) ||\
 169:.\Generated_Source\PSoC4/CapSense_CSHL.c ****            (CapSense_RAW_FILTER_MASK & CapSense_IIR16_FILTER))
 170:.\Generated_Source\PSoC4/CapSense_CSHL.c ****             
 171:.\Generated_Source\PSoC4/CapSense_CSHL.c ****         CapSense_rawFilterData1[sensor] = CapSense_sensorRaw[sensor];
 143              		.loc 1 171 0
 144 004e 064B     		ldr	r3, .L2+4
 145 0050 7A68     		ldr	r2, [r7, #4]
 146 0052 5200     		lsl	r2, r2, #1
 147 0054 D15A     		ldrh	r1, [r2, r3]
 148 0056 0A4B     		ldr	r3, .L2+28
 149 0058 7A68     		ldr	r2, [r7, #4]
 150 005a 5200     		lsl	r2, r2, #1
 151 005c D152     		strh	r1, [r2, r3]
 172:.\Generated_Source\PSoC4/CapSense_CSHL.c ****     
 173:.\Generated_Source\PSoC4/CapSense_CSHL.c ****     #else
 174:.\Generated_Source\PSoC4/CapSense_CSHL.c ****         /* No Raw filters */
 175:.\Generated_Source\PSoC4/CapSense_CSHL.c ****     #endif  /* ((CapSense_RAW_FILTER_MASK & CapSense_MEDIAN_FILTER) || \
 176:.\Generated_Source\PSoC4/CapSense_CSHL.c ****             *   (CapSense_RAW_FILTER_MASK & CapSense_AVERAGING_FILTER))
 177:.\Generated_Source\PSoC4/CapSense_CSHL.c ****             */
 178:.\Generated_Source\PSoC4/CapSense_CSHL.c ****     
 179:.\Generated_Source\PSoC4/CapSense_CSHL.c ****     #if (CapSense_TOTAL_GENERICS_COUNT)
 180:.\Generated_Source\PSoC4/CapSense_CSHL.c ****         /* Exclude generic widget */
 181:.\Generated_Source\PSoC4/CapSense_CSHL.c ****         }
 182:.\Generated_Source\PSoC4/CapSense_CSHL.c ****     #endif  /* CapSense_TOTAL_GENERICS_COUNT */
 183:.\Generated_Source\PSoC4/CapSense_CSHL.c **** }
 152              		.loc 1 183 0
 153 005e BD46     		mov	sp, r7
 154 0060 04B0     		add	sp, sp, #16
 155              		@ sp needed
 156 0062 80BD     		pop	{r7, pc}
 157              	.L3:
 158              		.align	2
 159              	.L2:
ARM GAS  C:\Users\jsing\AppData\Local\Temp\ccHQxQnh.s 			page 7


 160 0064 00000000 		.word	CapSense_widgetNumber
 161 0068 00000000 		.word	CapSense_sensorRaw
 162 006c 00000000 		.word	CapSense_sensorBaseline
 163 0070 00000000 		.word	CapSense_sensorBaselineLow
 164 0074 00000000 		.word	CapSense_sensorSignal
 165 0078 00000000 		.word	CapSense_debounce
 166 007c 10000000 		.word	CapSense_debounceCounter
 167 0080 00000000 		.word	CapSense_rawFilterData1
 168              		.cfi_endproc
 169              	.LFE35:
 170              		.size	CapSense_BaseInit, .-CapSense_BaseInit
 171              		.section	.text.CapSense_InitializeSensorBaseline,"ax",%progbits
 172              		.align	2
 173              		.global	CapSense_InitializeSensorBaseline
 174              		.code	16
 175              		.thumb_func
 176              		.type	CapSense_InitializeSensorBaseline, %function
 177              	CapSense_InitializeSensorBaseline:
 178              	.LFB36:
 184:.\Generated_Source\PSoC4/CapSense_CSHL.c **** 
 185:.\Generated_Source\PSoC4/CapSense_CSHL.c **** 
 186:.\Generated_Source\PSoC4/CapSense_CSHL.c **** /*******************************************************************************
 187:.\Generated_Source\PSoC4/CapSense_CSHL.c **** * Function Name: CapSense_InitializeSensorBaseline
 188:.\Generated_Source\PSoC4/CapSense_CSHL.c **** ********************************************************************************
 189:.\Generated_Source\PSoC4/CapSense_CSHL.c **** *
 190:.\Generated_Source\PSoC4/CapSense_CSHL.c **** * Summary:
 191:.\Generated_Source\PSoC4/CapSense_CSHL.c **** *  Loads the CapSense_sensorBaseline[sensor] array element with an 
 192:.\Generated_Source\PSoC4/CapSense_CSHL.c **** *  initial value by scanning the selected sensor (one channel design) or a pair 
 193:.\Generated_Source\PSoC4/CapSense_CSHL.c **** *  of sensors (two channels designs). The raw count value is copied into the 
 194:.\Generated_Source\PSoC4/CapSense_CSHL.c **** *  baseline array for each sensor. The raw data filters are initialized if 
 195:.\Generated_Source\PSoC4/CapSense_CSHL.c **** *  enabled.
 196:.\Generated_Source\PSoC4/CapSense_CSHL.c **** *
 197:.\Generated_Source\PSoC4/CapSense_CSHL.c **** * Parameters:
 198:.\Generated_Source\PSoC4/CapSense_CSHL.c **** *  sensor:  Sensor number.
 199:.\Generated_Source\PSoC4/CapSense_CSHL.c **** *
 200:.\Generated_Source\PSoC4/CapSense_CSHL.c **** * Return:
 201:.\Generated_Source\PSoC4/CapSense_CSHL.c **** *  None
 202:.\Generated_Source\PSoC4/CapSense_CSHL.c **** *
 203:.\Generated_Source\PSoC4/CapSense_CSHL.c **** * Global Variables:
 204:.\Generated_Source\PSoC4/CapSense_CSHL.c **** *  None
 205:.\Generated_Source\PSoC4/CapSense_CSHL.c **** *
 206:.\Generated_Source\PSoC4/CapSense_CSHL.c **** * Side Effects:
 207:.\Generated_Source\PSoC4/CapSense_CSHL.c **** *  None
 208:.\Generated_Source\PSoC4/CapSense_CSHL.c **** * 
 209:.\Generated_Source\PSoC4/CapSense_CSHL.c **** *******************************************************************************/
 210:.\Generated_Source\PSoC4/CapSense_CSHL.c **** void CapSense_InitializeSensorBaseline(uint32 sensor)
 211:.\Generated_Source\PSoC4/CapSense_CSHL.c **** {
 179              		.loc 1 211 0
 180              		.cfi_startproc
 181 0000 80B5     		push	{r7, lr}
 182              		.cfi_def_cfa_offset 8
 183              		.cfi_offset 7, -8
 184              		.cfi_offset 14, -4
 185 0002 82B0     		sub	sp, sp, #8
 186              		.cfi_def_cfa_offset 16
 187 0004 00AF     		add	r7, sp, #0
 188              		.cfi_def_cfa_register 7
ARM GAS  C:\Users\jsing\AppData\Local\Temp\ccHQxQnh.s 			page 8


 189 0006 7860     		str	r0, [r7, #4]
 212:.\Generated_Source\PSoC4/CapSense_CSHL.c ****     /* Scan sensor */
 213:.\Generated_Source\PSoC4/CapSense_CSHL.c ****     CapSense_ScanSensor(sensor);
 190              		.loc 1 213 0
 191 0008 7B68     		ldr	r3, [r7, #4]
 192 000a 181C     		mov	r0, r3
 193 000c FFF7FEFF 		bl	CapSense_ScanSensor
 214:.\Generated_Source\PSoC4/CapSense_CSHL.c ****     while(CapSense_IsBusy() != 0u)
 194              		.loc 1 214 0
 195 0010 C046     		mov	r8, r8
 196              	.L5:
 197              		.loc 1 214 0 is_stmt 0 discriminator 1
 198 0012 FFF7FEFF 		bl	CapSense_IsBusy
 199 0016 031C     		mov	r3, r0
 200 0018 002B     		cmp	r3, #0
 201 001a FAD1     		bne	.L5
 215:.\Generated_Source\PSoC4/CapSense_CSHL.c ****     {
 216:.\Generated_Source\PSoC4/CapSense_CSHL.c ****         /* Wait while sensor is busy */
 217:.\Generated_Source\PSoC4/CapSense_CSHL.c ****     }
 218:.\Generated_Source\PSoC4/CapSense_CSHL.c ****     
 219:.\Generated_Source\PSoC4/CapSense_CSHL.c ****     /* Initialize Baseline, Signal and debounce counters */       
 220:.\Generated_Source\PSoC4/CapSense_CSHL.c ****     CapSense_BaseInit(sensor);
 202              		.loc 1 220 0 is_stmt 1
 203 001c 7B68     		ldr	r3, [r7, #4]
 204 001e 181C     		mov	r0, r3
 205 0020 FFF7FEFF 		bl	CapSense_BaseInit
 221:.\Generated_Source\PSoC4/CapSense_CSHL.c **** }
 206              		.loc 1 221 0
 207 0024 BD46     		mov	sp, r7
 208 0026 02B0     		add	sp, sp, #8
 209              		@ sp needed
 210 0028 80BD     		pop	{r7, pc}
 211              		.cfi_endproc
 212              	.LFE36:
 213              		.size	CapSense_InitializeSensorBaseline, .-CapSense_InitializeSensorBaseline
 214 002a C046     		.section	.text.CapSense_InitializeAllBaselines,"ax",%progbits
 215              		.align	2
 216              		.global	CapSense_InitializeAllBaselines
 217              		.code	16
 218              		.thumb_func
 219              		.type	CapSense_InitializeAllBaselines, %function
 220              	CapSense_InitializeAllBaselines:
 221              	.LFB37:
 222:.\Generated_Source\PSoC4/CapSense_CSHL.c **** 
 223:.\Generated_Source\PSoC4/CapSense_CSHL.c **** 
 224:.\Generated_Source\PSoC4/CapSense_CSHL.c **** /*******************************************************************************
 225:.\Generated_Source\PSoC4/CapSense_CSHL.c **** * Function Name: CapSense_InitializeAllBaselines
 226:.\Generated_Source\PSoC4/CapSense_CSHL.c **** ********************************************************************************
 227:.\Generated_Source\PSoC4/CapSense_CSHL.c **** *
 228:.\Generated_Source\PSoC4/CapSense_CSHL.c **** * Summary:
 229:.\Generated_Source\PSoC4/CapSense_CSHL.c **** *  Uses the CapSense_InitializeSensorBaseline function to load the 
 230:.\Generated_Source\PSoC4/CapSense_CSHL.c **** *  CapSense_sensorBaseline[] array with an initial values by scanning 
 231:.\Generated_Source\PSoC4/CapSense_CSHL.c **** *  all the sensors. The raw count values are copied into the baseline array for 
 232:.\Generated_Source\PSoC4/CapSense_CSHL.c **** *  all the sensors. The raw data filters are initialized if enabled.
 233:.\Generated_Source\PSoC4/CapSense_CSHL.c **** *
 234:.\Generated_Source\PSoC4/CapSense_CSHL.c **** * Parameters:
 235:.\Generated_Source\PSoC4/CapSense_CSHL.c **** *  None
ARM GAS  C:\Users\jsing\AppData\Local\Temp\ccHQxQnh.s 			page 9


 236:.\Generated_Source\PSoC4/CapSense_CSHL.c **** *
 237:.\Generated_Source\PSoC4/CapSense_CSHL.c **** * Return:
 238:.\Generated_Source\PSoC4/CapSense_CSHL.c **** *  None
 239:.\Generated_Source\PSoC4/CapSense_CSHL.c **** *
 240:.\Generated_Source\PSoC4/CapSense_CSHL.c **** * Global Variables:
 241:.\Generated_Source\PSoC4/CapSense_CSHL.c **** *  None
 242:.\Generated_Source\PSoC4/CapSense_CSHL.c **** *
 243:.\Generated_Source\PSoC4/CapSense_CSHL.c **** * Side Effects:
 244:.\Generated_Source\PSoC4/CapSense_CSHL.c **** *  None
 245:.\Generated_Source\PSoC4/CapSense_CSHL.c **** * 
 246:.\Generated_Source\PSoC4/CapSense_CSHL.c **** *******************************************************************************/
 247:.\Generated_Source\PSoC4/CapSense_CSHL.c **** void CapSense_InitializeAllBaselines(void)
 248:.\Generated_Source\PSoC4/CapSense_CSHL.c **** {
 222              		.loc 1 248 0
 223              		.cfi_startproc
 224 0000 80B5     		push	{r7, lr}
 225              		.cfi_def_cfa_offset 8
 226              		.cfi_offset 7, -8
 227              		.cfi_offset 14, -4
 228 0002 82B0     		sub	sp, sp, #8
 229              		.cfi_def_cfa_offset 16
 230 0004 00AF     		add	r7, sp, #0
 231              		.cfi_def_cfa_register 7
 249:.\Generated_Source\PSoC4/CapSense_CSHL.c ****     uint32 i;
 250:.\Generated_Source\PSoC4/CapSense_CSHL.c ****     
 251:.\Generated_Source\PSoC4/CapSense_CSHL.c **** 	for(i = 0u; i < CapSense_TOTAL_SCANSLOT_COUNT; i++)
 232              		.loc 1 251 0
 233 0006 0023     		mov	r3, #0
 234 0008 7B60     		str	r3, [r7, #4]
 235 000a 06E0     		b	.L7
 236              	.L8:
 252:.\Generated_Source\PSoC4/CapSense_CSHL.c **** 	{
 253:.\Generated_Source\PSoC4/CapSense_CSHL.c ****     	CapSense_InitializeSensorBaseline(i);
 237              		.loc 1 253 0 discriminator 2
 238 000c 7B68     		ldr	r3, [r7, #4]
 239 000e 181C     		mov	r0, r3
 240 0010 FFF7FEFF 		bl	CapSense_InitializeSensorBaseline
 251:.\Generated_Source\PSoC4/CapSense_CSHL.c **** 	for(i = 0u; i < CapSense_TOTAL_SCANSLOT_COUNT; i++)
 241              		.loc 1 251 0 discriminator 2
 242 0014 7B68     		ldr	r3, [r7, #4]
 243 0016 0133     		add	r3, r3, #1
 244 0018 7B60     		str	r3, [r7, #4]
 245              	.L7:
 251:.\Generated_Source\PSoC4/CapSense_CSHL.c **** 	for(i = 0u; i < CapSense_TOTAL_SCANSLOT_COUNT; i++)
 246              		.loc 1 251 0 is_stmt 0 discriminator 1
 247 001a 7B68     		ldr	r3, [r7, #4]
 248 001c 002B     		cmp	r3, #0
 249 001e F5D0     		beq	.L8
 254:.\Generated_Source\PSoC4/CapSense_CSHL.c **** 	}
 255:.\Generated_Source\PSoC4/CapSense_CSHL.c **** }
 250              		.loc 1 255 0 is_stmt 1
 251 0020 BD46     		mov	sp, r7
 252 0022 02B0     		add	sp, sp, #8
 253              		@ sp needed
 254 0024 80BD     		pop	{r7, pc}
 255              		.cfi_endproc
 256              	.LFE37:
ARM GAS  C:\Users\jsing\AppData\Local\Temp\ccHQxQnh.s 			page 10


 257              		.size	CapSense_InitializeAllBaselines, .-CapSense_InitializeAllBaselines
 258 0026 C046     		.section	.text.CapSense_InitializeEnabledBaselines,"ax",%progbits
 259              		.align	2
 260              		.global	CapSense_InitializeEnabledBaselines
 261              		.code	16
 262              		.thumb_func
 263              		.type	CapSense_InitializeEnabledBaselines, %function
 264              	CapSense_InitializeEnabledBaselines:
 265              	.LFB38:
 256:.\Generated_Source\PSoC4/CapSense_CSHL.c **** 
 257:.\Generated_Source\PSoC4/CapSense_CSHL.c **** 
 258:.\Generated_Source\PSoC4/CapSense_CSHL.c **** /*******************************************************************************
 259:.\Generated_Source\PSoC4/CapSense_CSHL.c **** * Function Name: CapSense_InitializeEnabledBaselines
 260:.\Generated_Source\PSoC4/CapSense_CSHL.c **** ********************************************************************************
 261:.\Generated_Source\PSoC4/CapSense_CSHL.c **** *
 262:.\Generated_Source\PSoC4/CapSense_CSHL.c **** * Summary:
 263:.\Generated_Source\PSoC4/CapSense_CSHL.c **** *  Scans all the enabled widgets and the raw count values are copied into the 
 264:.\Generated_Source\PSoC4/CapSense_CSHL.c **** *  baseline array for all the sensors enabled in the scanning process. The baselines 
 265:.\Generated_Source\PSoC4/CapSense_CSHL.c **** *  are initialized with zero values for sensors disabled from the scanning process. 
 266:.\Generated_Source\PSoC4/CapSense_CSHL.c **** *  The raw data filters are initialized if enabled.
 267:.\Generated_Source\PSoC4/CapSense_CSHL.c **** *
 268:.\Generated_Source\PSoC4/CapSense_CSHL.c **** * Parameters:
 269:.\Generated_Source\PSoC4/CapSense_CSHL.c **** *  None
 270:.\Generated_Source\PSoC4/CapSense_CSHL.c **** *
 271:.\Generated_Source\PSoC4/CapSense_CSHL.c **** * Return:
 272:.\Generated_Source\PSoC4/CapSense_CSHL.c **** *  None
 273:.\Generated_Source\PSoC4/CapSense_CSHL.c **** *
 274:.\Generated_Source\PSoC4/CapSense_CSHL.c **** * Global Variables:
 275:.\Generated_Source\PSoC4/CapSense_CSHL.c **** *  CapSense_sensorRaw[] - used to store the sensors raw data.
 276:.\Generated_Source\PSoC4/CapSense_CSHL.c **** *  CapSense_sensorEnableMask[ ] - used to store bit masks of the enabled sensors.
 277:.\Generated_Source\PSoC4/CapSense_CSHL.c **** *
 278:.\Generated_Source\PSoC4/CapSense_CSHL.c **** * Side Effects:
 279:.\Generated_Source\PSoC4/CapSense_CSHL.c **** *  None
 280:.\Generated_Source\PSoC4/CapSense_CSHL.c **** * 
 281:.\Generated_Source\PSoC4/CapSense_CSHL.c **** *******************************************************************************/
 282:.\Generated_Source\PSoC4/CapSense_CSHL.c **** void CapSense_InitializeEnabledBaselines(void)
 283:.\Generated_Source\PSoC4/CapSense_CSHL.c **** {
 266              		.loc 1 283 0
 267              		.cfi_startproc
 268 0000 80B5     		push	{r7, lr}
 269              		.cfi_def_cfa_offset 8
 270              		.cfi_offset 7, -8
 271              		.cfi_offset 14, -4
 272 0002 82B0     		sub	sp, sp, #8
 273              		.cfi_def_cfa_offset 16
 274 0004 00AF     		add	r7, sp, #0
 275              		.cfi_def_cfa_register 7
 284:.\Generated_Source\PSoC4/CapSense_CSHL.c ****     uint32 i;
 285:.\Generated_Source\PSoC4/CapSense_CSHL.c ****     uint32 isSensorEnabled;
 286:.\Generated_Source\PSoC4/CapSense_CSHL.c ****     
 287:.\Generated_Source\PSoC4/CapSense_CSHL.c ****     CapSense_ScanEnabledWidgets();
 276              		.loc 1 287 0
 277 0006 FFF7FEFF 		bl	CapSense_ScanEnabledWidgets
 288:.\Generated_Source\PSoC4/CapSense_CSHL.c ****     while(CapSense_IsBusy() != 0u)
 278              		.loc 1 288 0
 279 000a C046     		mov	r8, r8
 280              	.L10:
ARM GAS  C:\Users\jsing\AppData\Local\Temp\ccHQxQnh.s 			page 11


 281              		.loc 1 288 0 is_stmt 0 discriminator 1
 282 000c FFF7FEFF 		bl	CapSense_IsBusy
 283 0010 031C     		mov	r3, r0
 284 0012 002B     		cmp	r3, #0
 285 0014 FAD1     		bne	.L10
 289:.\Generated_Source\PSoC4/CapSense_CSHL.c ****     {
 290:.\Generated_Source\PSoC4/CapSense_CSHL.c ****         /* Wait while sensor is busy */
 291:.\Generated_Source\PSoC4/CapSense_CSHL.c ****     }
 292:.\Generated_Source\PSoC4/CapSense_CSHL.c ****     
 293:.\Generated_Source\PSoC4/CapSense_CSHL.c ****     for(i = 0u; i < CapSense_TOTAL_SENSOR_COUNT; i++)
 286              		.loc 1 293 0 is_stmt 1
 287 0016 0023     		mov	r3, #0
 288 0018 7B60     		str	r3, [r7, #4]
 289 001a 11E0     		b	.L11
 290              	.L13:
 294:.\Generated_Source\PSoC4/CapSense_CSHL.c ****     {
 295:.\Generated_Source\PSoC4/CapSense_CSHL.c ****         isSensorEnabled = CapSense_GetBitValue(CapSense_sensorEnableMask, i);
 291              		.loc 1 295 0
 292 001c 0B4A     		ldr	r2, .L14
 293 001e 7B68     		ldr	r3, [r7, #4]
 294 0020 101C     		mov	r0, r2
 295 0022 191C     		mov	r1, r3
 296 0024 FFF7FEFF 		bl	CapSense_GetBitValue
 297 0028 031C     		mov	r3, r0
 298 002a 3B60     		str	r3, [r7]
 296:.\Generated_Source\PSoC4/CapSense_CSHL.c ****         
 297:.\Generated_Source\PSoC4/CapSense_CSHL.c ****         /* Clear raw data if sensor is disabled from scanning process */
 298:.\Generated_Source\PSoC4/CapSense_CSHL.c ****         if(isSensorEnabled != 0u)
 299              		.loc 1 298 0
 300 002c 3B68     		ldr	r3, [r7]
 301 002e 002B     		cmp	r3, #0
 302 0030 03D0     		beq	.L12
 299:.\Generated_Source\PSoC4/CapSense_CSHL.c ****         {
 300:.\Generated_Source\PSoC4/CapSense_CSHL.c ****             /* Initialize baselines */
 301:.\Generated_Source\PSoC4/CapSense_CSHL.c ****             CapSense_BaseInit(i);
 303              		.loc 1 301 0
 304 0032 7B68     		ldr	r3, [r7, #4]
 305 0034 181C     		mov	r0, r3
 306 0036 FFF7FEFF 		bl	CapSense_BaseInit
 307              	.L12:
 293:.\Generated_Source\PSoC4/CapSense_CSHL.c ****     for(i = 0u; i < CapSense_TOTAL_SENSOR_COUNT; i++)
 308              		.loc 1 293 0
 309 003a 7B68     		ldr	r3, [r7, #4]
 310 003c 0133     		add	r3, r3, #1
 311 003e 7B60     		str	r3, [r7, #4]
 312              	.L11:
 293:.\Generated_Source\PSoC4/CapSense_CSHL.c ****     for(i = 0u; i < CapSense_TOTAL_SENSOR_COUNT; i++)
 313              		.loc 1 293 0 is_stmt 0 discriminator 1
 314 0040 7B68     		ldr	r3, [r7, #4]
 315 0042 002B     		cmp	r3, #0
 316 0044 EAD0     		beq	.L13
 302:.\Generated_Source\PSoC4/CapSense_CSHL.c ****         }
 303:.\Generated_Source\PSoC4/CapSense_CSHL.c ****     }
 304:.\Generated_Source\PSoC4/CapSense_CSHL.c **** }  
 317              		.loc 1 304 0 is_stmt 1
 318 0046 BD46     		mov	sp, r7
 319 0048 02B0     		add	sp, sp, #8
ARM GAS  C:\Users\jsing\AppData\Local\Temp\ccHQxQnh.s 			page 12


 320              		@ sp needed
 321 004a 80BD     		pop	{r7, pc}
 322              	.L15:
 323              		.align	2
 324              	.L14:
 325 004c 00000000 		.word	CapSense_sensorEnableMask
 326              		.cfi_endproc
 327              	.LFE38:
 328              		.size	CapSense_InitializeEnabledBaselines, .-CapSense_InitializeEnabledBaselines
 329              		.section	.text.CapSense_UpdateBaselineNoThreshold,"ax",%progbits
 330              		.align	2
 331              		.global	CapSense_UpdateBaselineNoThreshold
 332              		.code	16
 333              		.thumb_func
 334              		.type	CapSense_UpdateBaselineNoThreshold, %function
 335              	CapSense_UpdateBaselineNoThreshold:
 336              	.LFB39:
 305:.\Generated_Source\PSoC4/CapSense_CSHL.c **** 
 306:.\Generated_Source\PSoC4/CapSense_CSHL.c **** 
 307:.\Generated_Source\PSoC4/CapSense_CSHL.c **** /*******************************************************************************
 308:.\Generated_Source\PSoC4/CapSense_CSHL.c **** * Function Name: CapSense_UpdateBaselineNoThreshold
 309:.\Generated_Source\PSoC4/CapSense_CSHL.c **** ********************************************************************************
 310:.\Generated_Source\PSoC4/CapSense_CSHL.c **** *
 311:.\Generated_Source\PSoC4/CapSense_CSHL.c **** * Summary:
 312:.\Generated_Source\PSoC4/CapSense_CSHL.c **** *  Updates the CapSense_sensorBaseline[sensor] array element using the 
 313:.\Generated_Source\PSoC4/CapSense_CSHL.c **** *  LP filter with k = 256. The signal calculates the difference of count by 
 314:.\Generated_Source\PSoC4/CapSense_CSHL.c **** *  subtracting the previous baseline from the current raw count value and stores
 315:.\Generated_Source\PSoC4/CapSense_CSHL.c **** *  it in CapSense_sensorSignal[sensor]. 
 316:.\Generated_Source\PSoC4/CapSense_CSHL.c **** *  If the auto reset option is enabled, the baseline updated regards the noise threshold. 
 317:.\Generated_Source\PSoC4/CapSense_CSHL.c **** *  If the auto reset option is disabled, the baseline stops updating; baseline is loaded 
 318:.\Generated_Source\PSoC4/CapSense_CSHL.c **** *  with a raw count value if a signal is greater than zero and if signal is less 
 319:.\Generated_Source\PSoC4/CapSense_CSHL.c **** *  than noise threshold.
 320:.\Generated_Source\PSoC4/CapSense_CSHL.c **** *  Raw data filters are applied to the values if enabled before baseline 
 321:.\Generated_Source\PSoC4/CapSense_CSHL.c **** *  calculation.
 322:.\Generated_Source\PSoC4/CapSense_CSHL.c **** *
 323:.\Generated_Source\PSoC4/CapSense_CSHL.c **** *  This API does not update the thresholds in the Smartsense Mode.
 324:.\Generated_Source\PSoC4/CapSense_CSHL.c **** *
 325:.\Generated_Source\PSoC4/CapSense_CSHL.c **** * Parameters:
 326:.\Generated_Source\PSoC4/CapSense_CSHL.c **** *  sensor:  Sensor number.
 327:.\Generated_Source\PSoC4/CapSense_CSHL.c **** *
 328:.\Generated_Source\PSoC4/CapSense_CSHL.c **** * Return:
 329:.\Generated_Source\PSoC4/CapSense_CSHL.c **** *  None
 330:.\Generated_Source\PSoC4/CapSense_CSHL.c **** *
 331:.\Generated_Source\PSoC4/CapSense_CSHL.c **** * Global Variables:
 332:.\Generated_Source\PSoC4/CapSense_CSHL.c **** *  CapSense_widgetNumber[]  - stores widget numbers.
 333:.\Generated_Source\PSoC4/CapSense_CSHL.c **** *  CapSense_sensorBaseline[]    - used to store baseline value.
 334:.\Generated_Source\PSoC4/CapSense_CSHL.c **** *  CapSense_sensorBaselineLow[] - used to store fraction byte of 
 335:.\Generated_Source\PSoC4/CapSense_CSHL.c **** *  baseline value.
 336:.\Generated_Source\PSoC4/CapSense_CSHL.c **** *  CapSense_sensorSignal[]      - used to store difference between 
 337:.\Generated_Source\PSoC4/CapSense_CSHL.c **** *  current value of raw data and previous value of baseline.
 338:.\Generated_Source\PSoC4/CapSense_CSHL.c **** *  CapSense_rawFilterData1[]    - used to store previous sample of 
 339:.\Generated_Source\PSoC4/CapSense_CSHL.c **** *  any enabled raw data filter.
 340:.\Generated_Source\PSoC4/CapSense_CSHL.c **** *  CapSense_rawFilterData2[]    - used to store before previous sample
 341:.\Generated_Source\PSoC4/CapSense_CSHL.c **** *  of enabled raw data filter. Only required for median or average filters.
 342:.\Generated_Source\PSoC4/CapSense_CSHL.c **** * 
 343:.\Generated_Source\PSoC4/CapSense_CSHL.c **** * Side Effects:
 344:.\Generated_Source\PSoC4/CapSense_CSHL.c **** *  None
ARM GAS  C:\Users\jsing\AppData\Local\Temp\ccHQxQnh.s 			page 13


 345:.\Generated_Source\PSoC4/CapSense_CSHL.c **** * 
 346:.\Generated_Source\PSoC4/CapSense_CSHL.c **** *******************************************************************************/
 347:.\Generated_Source\PSoC4/CapSense_CSHL.c **** void CapSense_UpdateBaselineNoThreshold(uint32 sensor)
 348:.\Generated_Source\PSoC4/CapSense_CSHL.c **** {
 337              		.loc 1 348 0
 338              		.cfi_startproc
 339 0000 90B5     		push	{r4, r7, lr}
 340              		.cfi_def_cfa_offset 12
 341              		.cfi_offset 4, -12
 342              		.cfi_offset 7, -8
 343              		.cfi_offset 14, -4
 344 0002 87B0     		sub	sp, sp, #28
 345              		.cfi_def_cfa_offset 40
 346 0004 00AF     		add	r7, sp, #0
 347              		.cfi_def_cfa_register 7
 348 0006 7860     		str	r0, [r7, #4]
 349:.\Generated_Source\PSoC4/CapSense_CSHL.c ****     uint32 calc;
 350:.\Generated_Source\PSoC4/CapSense_CSHL.c **** 	uint32 sign;
 351:.\Generated_Source\PSoC4/CapSense_CSHL.c ****     uint16 tempRaw;
 352:.\Generated_Source\PSoC4/CapSense_CSHL.c ****     uint16 filteredRawData;
 353:.\Generated_Source\PSoC4/CapSense_CSHL.c ****     uint8 widget = CapSense_widgetNumber[sensor];
 349              		.loc 1 353 0
 350 0008 3B1C     		mov	r3, r7
 351 000a 0F33     		add	r3, r3, #15
 352 000c 7A49     		ldr	r1, .L29
 353 000e 7A68     		ldr	r2, [r7, #4]
 354 0010 8A18     		add	r2, r1, r2
 355 0012 1278     		ldrb	r2, [r2]
 356 0014 1A70     		strb	r2, [r3]
 354:.\Generated_Source\PSoC4/CapSense_CSHL.c ****     uint8 noiseThreshold = CapSense_noiseThreshold[widget];
 357              		.loc 1 354 0
 358 0016 3B1C     		mov	r3, r7
 359 0018 0F33     		add	r3, r3, #15
 360 001a 1A78     		ldrb	r2, [r3]
 361 001c 3B1C     		mov	r3, r7
 362 001e 0E33     		add	r3, r3, #14
 363 0020 7649     		ldr	r1, .L29+4
 364 0022 8A5C     		ldrb	r2, [r1, r2]
 365 0024 1A70     		strb	r2, [r3]
 355:.\Generated_Source\PSoC4/CapSense_CSHL.c ****     
 356:.\Generated_Source\PSoC4/CapSense_CSHL.c ****     #if (CapSense_TOTAL_GENERICS_COUNT)
 357:.\Generated_Source\PSoC4/CapSense_CSHL.c ****         /* Exclude generic widget */
 358:.\Generated_Source\PSoC4/CapSense_CSHL.c ****         if(widget < CapSense_END_OF_WIDGETS_INDEX)
 359:.\Generated_Source\PSoC4/CapSense_CSHL.c ****         {
 360:.\Generated_Source\PSoC4/CapSense_CSHL.c ****     #endif  /* CapSense_TOTAL_GENERICS_COUNT */
 361:.\Generated_Source\PSoC4/CapSense_CSHL.c ****     
 362:.\Generated_Source\PSoC4/CapSense_CSHL.c ****     filteredRawData = CapSense_sensorRaw[sensor];
 366              		.loc 1 362 0
 367 0026 3B1C     		mov	r3, r7
 368 0028 1033     		add	r3, r3, #16
 369 002a 754A     		ldr	r2, .L29+8
 370 002c 7968     		ldr	r1, [r7, #4]
 371 002e 4900     		lsl	r1, r1, #1
 372 0030 8A5A     		ldrh	r2, [r1, r2]
 373 0032 1A80     		strh	r2, [r3]
 363:.\Generated_Source\PSoC4/CapSense_CSHL.c **** 
 364:.\Generated_Source\PSoC4/CapSense_CSHL.c **** 	#if (CapSense_RAW_FILTER_MASK != 0u)
ARM GAS  C:\Users\jsing\AppData\Local\Temp\ccHQxQnh.s 			page 14


 365:.\Generated_Source\PSoC4/CapSense_CSHL.c **** 	if(CapSense_enableRawFilters != 0u)
 374              		.loc 1 365 0
 375 0034 734B     		ldr	r3, .L29+12
 376 0036 1B78     		ldrb	r3, [r3]
 377 0038 002B     		cmp	r3, #0
 378 003a 15D0     		beq	.L17
 366:.\Generated_Source\PSoC4/CapSense_CSHL.c **** 	{
 367:.\Generated_Source\PSoC4/CapSense_CSHL.c **** 		#if (CapSense_RAW_FILTER_MASK & CapSense_MEDIAN_FILTER)
 368:.\Generated_Source\PSoC4/CapSense_CSHL.c **** 			tempRaw = filteredRawData;
 369:.\Generated_Source\PSoC4/CapSense_CSHL.c **** 			filteredRawData = CapSense_MedianFilter(filteredRawData, CapSense_rawFilterData1[sensor], 
 370:.\Generated_Source\PSoC4/CapSense_CSHL.c **** 															CapSense_rawFilterData2[sensor]);
 371:.\Generated_Source\PSoC4/CapSense_CSHL.c **** 			CapSense_rawFilterData2[sensor] = CapSense_rawFilterData1[sensor];
 372:.\Generated_Source\PSoC4/CapSense_CSHL.c **** 			CapSense_rawFilterData1[sensor] = tempRaw;
 373:.\Generated_Source\PSoC4/CapSense_CSHL.c **** 			
 374:.\Generated_Source\PSoC4/CapSense_CSHL.c **** 		#elif (CapSense_RAW_FILTER_MASK & CapSense_AVERAGING_FILTER)
 375:.\Generated_Source\PSoC4/CapSense_CSHL.c **** 			tempRaw = filteredRawData;
 376:.\Generated_Source\PSoC4/CapSense_CSHL.c **** 			filteredRawData = CapSense_AveragingFilter(filteredRawData, CapSense_rawFilterData1[sensor],
 377:.\Generated_Source\PSoC4/CapSense_CSHL.c **** 															   CapSense_rawFilterData2[sensor]);
 378:.\Generated_Source\PSoC4/CapSense_CSHL.c **** 			CapSense_rawFilterData2[sensor] = CapSense_rawFilterData1[sensor];
 379:.\Generated_Source\PSoC4/CapSense_CSHL.c **** 			CapSense_rawFilterData1[sensor] = tempRaw;
 380:.\Generated_Source\PSoC4/CapSense_CSHL.c **** 			
 381:.\Generated_Source\PSoC4/CapSense_CSHL.c **** 		#elif (CapSense_RAW_FILTER_MASK & CapSense_IIR2_FILTER)
 382:.\Generated_Source\PSoC4/CapSense_CSHL.c **** 			filteredRawData = CapSense_IIR2Filter(filteredRawData, CapSense_rawFilterData1[sensor]);
 383:.\Generated_Source\PSoC4/CapSense_CSHL.c **** 			CapSense_rawFilterData1[sensor] = filteredRawData;
 384:.\Generated_Source\PSoC4/CapSense_CSHL.c **** 			
 385:.\Generated_Source\PSoC4/CapSense_CSHL.c **** 		#elif (CapSense_RAW_FILTER_MASK & CapSense_IIR4_FILTER)
 386:.\Generated_Source\PSoC4/CapSense_CSHL.c **** 			filteredRawData = CapSense_IIR4Filter(filteredRawData, CapSense_rawFilterData1[sensor]);
 379              		.loc 1 386 0
 380 003c 724B     		ldr	r3, .L29+16
 381 003e 7A68     		ldr	r2, [r7, #4]
 382 0040 5200     		lsl	r2, r2, #1
 383 0042 D35A     		ldrh	r3, [r2, r3]
 384 0044 3C1C     		mov	r4, r7
 385 0046 1034     		add	r4, r4, #16
 386 0048 3A1C     		mov	r2, r7
 387 004a 1032     		add	r2, r2, #16
 388 004c 1288     		ldrh	r2, [r2]
 389 004e 101C     		mov	r0, r2
 390 0050 191C     		mov	r1, r3
 391 0052 FFF7FEFF 		bl	CapSense_IIR4Filter
 392 0056 031C     		mov	r3, r0
 393 0058 2380     		strh	r3, [r4]
 387:.\Generated_Source\PSoC4/CapSense_CSHL.c **** 			CapSense_rawFilterData1[sensor] = filteredRawData;
 394              		.loc 1 387 0
 395 005a 6B4B     		ldr	r3, .L29+16
 396 005c 7A68     		ldr	r2, [r7, #4]
 397 005e 5200     		lsl	r2, r2, #1
 398 0060 391C     		mov	r1, r7
 399 0062 1031     		add	r1, r1, #16
 400 0064 0988     		ldrh	r1, [r1]
 401 0066 D152     		strh	r1, [r2, r3]
 402              	.L17:
 388:.\Generated_Source\PSoC4/CapSense_CSHL.c **** 				
 389:.\Generated_Source\PSoC4/CapSense_CSHL.c **** 		#elif (CapSense_RAW_FILTER_MASK & CapSense_JITTER_FILTER)
 390:.\Generated_Source\PSoC4/CapSense_CSHL.c **** 			filteredRawData = CapSense_JitterFilter(filteredRawData, CapSense_rawFilterData1[sensor]);
 391:.\Generated_Source\PSoC4/CapSense_CSHL.c **** 			CapSense_rawFilterData1[sensor] = filteredRawData;
 392:.\Generated_Source\PSoC4/CapSense_CSHL.c **** 			
ARM GAS  C:\Users\jsing\AppData\Local\Temp\ccHQxQnh.s 			page 15


 393:.\Generated_Source\PSoC4/CapSense_CSHL.c **** 		#elif (CapSense_RAW_FILTER_MASK & CapSense_IIR8_FILTER)
 394:.\Generated_Source\PSoC4/CapSense_CSHL.c **** 			filteredRawData = CapSense_IIR8Filter(filteredRawData, CapSense_rawFilterData1[sensor]);
 395:.\Generated_Source\PSoC4/CapSense_CSHL.c **** 			CapSense_rawFilterData1[sensor] = filteredRawData;
 396:.\Generated_Source\PSoC4/CapSense_CSHL.c **** 			
 397:.\Generated_Source\PSoC4/CapSense_CSHL.c **** 		#elif (CapSense_RAW_FILTER_MASK & CapSense_IIR16_FILTER)
 398:.\Generated_Source\PSoC4/CapSense_CSHL.c **** 			filteredRawData = CapSense_IIR16Filter(filteredRawData, CapSense_rawFilterData1[sensor]);
 399:.\Generated_Source\PSoC4/CapSense_CSHL.c **** 			CapSense_rawFilterData1[sensor] = filteredRawData;
 400:.\Generated_Source\PSoC4/CapSense_CSHL.c **** 			
 401:.\Generated_Source\PSoC4/CapSense_CSHL.c **** 		#else
 402:.\Generated_Source\PSoC4/CapSense_CSHL.c **** 			/* No Raw filters */
 403:.\Generated_Source\PSoC4/CapSense_CSHL.c **** 		#endif  /* (CapSense_RAW_FILTER_MASK & CapSense_MEDIAN_FILTER) */
 404:.\Generated_Source\PSoC4/CapSense_CSHL.c **** 	}
 405:.\Generated_Source\PSoC4/CapSense_CSHL.c **** 	#endif  /* (CapSense_RAW_FILTER_MASK != 0u) */
 406:.\Generated_Source\PSoC4/CapSense_CSHL.c **** 	
 407:.\Generated_Source\PSoC4/CapSense_CSHL.c **** 	#if (CapSense_TUNING_METHOD == CapSense__TUNING_AUTO)
 408:.\Generated_Source\PSoC4/CapSense_CSHL.c **** 	    MeasureNoiseEnvelope_P4_v2_10(&CapSense_config, (uint8)sensor, CapSense_sensorRaw);
 403              		.loc 1 408 0
 404 0068 7B68     		ldr	r3, [r7, #4]
 405 006a DAB2     		uxtb	r2, r3
 406 006c 6749     		ldr	r1, .L29+20
 407 006e 644B     		ldr	r3, .L29+8
 408 0070 081C     		mov	r0, r1
 409 0072 111C     		mov	r1, r2
 410 0074 1A1C     		mov	r2, r3
 411 0076 FFF7FEFF 		bl	MeasureNoiseEnvelope_P4_v2_10
 409:.\Generated_Source\PSoC4/CapSense_CSHL.c **** 	#endif /* (CapSense_TUNING_METHOD == CapSense__TUNING_AUTO) */
 410:.\Generated_Source\PSoC4/CapSense_CSHL.c **** 
 411:.\Generated_Source\PSoC4/CapSense_CSHL.c ****     /* Baseline calculation */
 412:.\Generated_Source\PSoC4/CapSense_CSHL.c ****     /* Calculate difference RawData[cur] - Baseline[prev] */
 413:.\Generated_Source\PSoC4/CapSense_CSHL.c ****     if(filteredRawData >= CapSense_sensorBaseline[sensor])
 412              		.loc 1 413 0
 413 007a 654B     		ldr	r3, .L29+24
 414 007c 7A68     		ldr	r2, [r7, #4]
 415 007e 5200     		lsl	r2, r2, #1
 416 0080 D35A     		ldrh	r3, [r2, r3]
 417 0082 3A1C     		mov	r2, r7
 418 0084 1032     		add	r2, r2, #16
 419 0086 1288     		ldrh	r2, [r2]
 420 0088 9A42     		cmp	r2, r3
 421 008a 12D3     		bcc	.L18
 414:.\Generated_Source\PSoC4/CapSense_CSHL.c ****     {
 415:.\Generated_Source\PSoC4/CapSense_CSHL.c **** 		CapSense_lowBaselineResetCnt[sensor] = 0u;	
 422              		.loc 1 415 0
 423 008c 614A     		ldr	r2, .L29+28
 424 008e 7B68     		ldr	r3, [r7, #4]
 425 0090 D318     		add	r3, r2, r3
 426 0092 0022     		mov	r2, #0
 427 0094 1A70     		strb	r2, [r3]
 416:.\Generated_Source\PSoC4/CapSense_CSHL.c ****         tempRaw = filteredRawData - CapSense_sensorBaseline[sensor];
 428              		.loc 1 416 0
 429 0096 5E4B     		ldr	r3, .L29+24
 430 0098 7A68     		ldr	r2, [r7, #4]
 431 009a 5200     		lsl	r2, r2, #1
 432 009c D25A     		ldrh	r2, [r2, r3]
 433 009e 3B1C     		mov	r3, r7
 434 00a0 1233     		add	r3, r3, #18
 435 00a2 391C     		mov	r1, r7
ARM GAS  C:\Users\jsing\AppData\Local\Temp\ccHQxQnh.s 			page 16


 436 00a4 1031     		add	r1, r1, #16
 437 00a6 0988     		ldrh	r1, [r1]
 438 00a8 8A1A     		sub	r2, r1, r2
 439 00aa 1A80     		strh	r2, [r3]
 417:.\Generated_Source\PSoC4/CapSense_CSHL.c ****         sign = 1u;    /* Positive difference - Calculate the Signal */
 440              		.loc 1 417 0
 441 00ac 0123     		mov	r3, #1
 442 00ae 7B61     		str	r3, [r7, #20]
 443 00b0 0CE0     		b	.L19
 444              	.L18:
 418:.\Generated_Source\PSoC4/CapSense_CSHL.c ****     }
 419:.\Generated_Source\PSoC4/CapSense_CSHL.c ****     else
 420:.\Generated_Source\PSoC4/CapSense_CSHL.c ****     {
 421:.\Generated_Source\PSoC4/CapSense_CSHL.c ****         tempRaw = CapSense_sensorBaseline[sensor] - filteredRawData;
 445              		.loc 1 421 0
 446 00b2 574B     		ldr	r3, .L29+24
 447 00b4 7A68     		ldr	r2, [r7, #4]
 448 00b6 5200     		lsl	r2, r2, #1
 449 00b8 D15A     		ldrh	r1, [r2, r3]
 450 00ba 3B1C     		mov	r3, r7
 451 00bc 1233     		add	r3, r3, #18
 452 00be 3A1C     		mov	r2, r7
 453 00c0 1032     		add	r2, r2, #16
 454 00c2 1288     		ldrh	r2, [r2]
 455 00c4 8A1A     		sub	r2, r1, r2
 456 00c6 1A80     		strh	r2, [r3]
 422:.\Generated_Source\PSoC4/CapSense_CSHL.c ****         sign = 0u;    /* Negative difference - Do NOT calculate the Signal */
 457              		.loc 1 422 0
 458 00c8 0023     		mov	r3, #0
 459 00ca 7B61     		str	r3, [r7, #20]
 460              	.L19:
 423:.\Generated_Source\PSoC4/CapSense_CSHL.c ****     }
 424:.\Generated_Source\PSoC4/CapSense_CSHL.c **** 
 425:.\Generated_Source\PSoC4/CapSense_CSHL.c **** 	#if (CapSense_TUNING_METHOD != CapSense__TUNING_NONE)
 426:.\Generated_Source\PSoC4/CapSense_CSHL.c **** 	if((sign == 0u) && (tempRaw > (uint16) CapSense_negativeNoiseThreshold[widget]))
 461              		.loc 1 426 0
 462 00cc 7B69     		ldr	r3, [r7, #20]
 463 00ce 002B     		cmp	r3, #0
 464 00d0 28D1     		bne	.L20
 465              		.loc 1 426 0 is_stmt 0 discriminator 1
 466 00d2 3B1C     		mov	r3, r7
 467 00d4 0F33     		add	r3, r3, #15
 468 00d6 1B78     		ldrb	r3, [r3]
 469 00d8 4F4A     		ldr	r2, .L29+32
 470 00da D35C     		ldrb	r3, [r2, r3]
 471 00dc 3A1C     		mov	r2, r7
 472 00de 1232     		add	r2, r2, #18
 473 00e0 1288     		ldrh	r2, [r2]
 474 00e2 9A42     		cmp	r2, r3
 475 00e4 1ED9     		bls	.L20
 427:.\Generated_Source\PSoC4/CapSense_CSHL.c **** 	#else
 428:.\Generated_Source\PSoC4/CapSense_CSHL.c **** 	if((sign == 0u) && (tempRaw > (uint16) CapSense_NEGATIVE_NOISE_THRESHOLD))
 429:.\Generated_Source\PSoC4/CapSense_CSHL.c **** 	#endif /* (CapSense_TUNING_METHOD != CapSense__TUNING_NONE) */ 
 430:.\Generated_Source\PSoC4/CapSense_CSHL.c ****     {
 431:.\Generated_Source\PSoC4/CapSense_CSHL.c ****         if(CapSense_lowBaselineResetCnt[sensor] >= CapSense_lowBaselineReset[sensor])
 476              		.loc 1 431 0 is_stmt 1
 477 00e6 4B4A     		ldr	r2, .L29+28
ARM GAS  C:\Users\jsing\AppData\Local\Temp\ccHQxQnh.s 			page 17


 478 00e8 7B68     		ldr	r3, [r7, #4]
 479 00ea D318     		add	r3, r2, r3
 480 00ec 1A78     		ldrb	r2, [r3]
 481 00ee 4B49     		ldr	r1, .L29+36
 482 00f0 7B68     		ldr	r3, [r7, #4]
 483 00f2 CB18     		add	r3, r1, r3
 484 00f4 1B78     		ldrb	r3, [r3]
 485 00f6 9A42     		cmp	r2, r3
 486 00f8 09D3     		bcc	.L21
 432:.\Generated_Source\PSoC4/CapSense_CSHL.c ****         {
 433:.\Generated_Source\PSoC4/CapSense_CSHL.c ****             CapSense_BaseInit(sensor);
 487              		.loc 1 433 0
 488 00fa 7B68     		ldr	r3, [r7, #4]
 489 00fc 181C     		mov	r0, r3
 490 00fe FFF7FEFF 		bl	CapSense_BaseInit
 434:.\Generated_Source\PSoC4/CapSense_CSHL.c ****             CapSense_lowBaselineResetCnt[sensor] = 0u;
 491              		.loc 1 434 0
 492 0102 444A     		ldr	r2, .L29+28
 493 0104 7B68     		ldr	r3, [r7, #4]
 494 0106 D318     		add	r3, r2, r3
 495 0108 0022     		mov	r2, #0
 496 010a 1A70     		strb	r2, [r3]
 431:.\Generated_Source\PSoC4/CapSense_CSHL.c ****         if(CapSense_lowBaselineResetCnt[sensor] >= CapSense_lowBaselineReset[sensor])
 497              		.loc 1 431 0
 498 010c 4CE0     		b	.L23
 499              	.L21:
 435:.\Generated_Source\PSoC4/CapSense_CSHL.c ****         }
 436:.\Generated_Source\PSoC4/CapSense_CSHL.c ****         else
 437:.\Generated_Source\PSoC4/CapSense_CSHL.c ****         {
 438:.\Generated_Source\PSoC4/CapSense_CSHL.c ****             CapSense_lowBaselineResetCnt[sensor]++;
 500              		.loc 1 438 0
 501 010e 414A     		ldr	r2, .L29+28
 502 0110 7B68     		ldr	r3, [r7, #4]
 503 0112 D318     		add	r3, r2, r3
 504 0114 1B78     		ldrb	r3, [r3]
 505 0116 0133     		add	r3, r3, #1
 506 0118 DAB2     		uxtb	r2, r3
 507 011a 3E49     		ldr	r1, .L29+28
 508 011c 7B68     		ldr	r3, [r7, #4]
 509 011e CB18     		add	r3, r1, r3
 510 0120 1A70     		strb	r2, [r3]
 431:.\Generated_Source\PSoC4/CapSense_CSHL.c ****         if(CapSense_lowBaselineResetCnt[sensor] >= CapSense_lowBaselineReset[sensor])
 511              		.loc 1 431 0
 512 0122 41E0     		b	.L23
 513              	.L20:
 439:.\Generated_Source\PSoC4/CapSense_CSHL.c ****         }
 440:.\Generated_Source\PSoC4/CapSense_CSHL.c ****     }
 441:.\Generated_Source\PSoC4/CapSense_CSHL.c ****     else
 442:.\Generated_Source\PSoC4/CapSense_CSHL.c ****     {
 443:.\Generated_Source\PSoC4/CapSense_CSHL.c ****         #if (CapSense_AUTO_RESET == CapSense_AUTO_RESET_DISABLE)
 444:.\Generated_Source\PSoC4/CapSense_CSHL.c **** 		#if (CapSense_TUNING_METHOD != CapSense__TUNING_NONE)			
 445:.\Generated_Source\PSoC4/CapSense_CSHL.c **** 			/* Update Baseline if lower than noiseThreshold */
 446:.\Generated_Source\PSoC4/CapSense_CSHL.c **** 			if ( (tempRaw <= noiseThreshold) || 
 514              		.loc 1 446 0
 515 0124 3B1C     		mov	r3, r7
 516 0126 0E33     		add	r3, r3, #14
 517 0128 1B78     		ldrb	r3, [r3]
ARM GAS  C:\Users\jsing\AppData\Local\Temp\ccHQxQnh.s 			page 18


 518 012a 9BB2     		uxth	r3, r3
 519 012c 3A1C     		mov	r2, r7
 520 012e 1232     		add	r2, r2, #18
 521 0130 1288     		ldrh	r2, [r2]
 522 0132 9A42     		cmp	r2, r3
 523 0134 0CD9     		bls	.L24
 447:.\Generated_Source\PSoC4/CapSense_CSHL.c **** 			 ((tempRaw < (uint16) CapSense_negativeNoiseThreshold[widget])
 524              		.loc 1 447 0 discriminator 1
 525 0136 3B1C     		mov	r3, r7
 526 0138 0F33     		add	r3, r3, #15
 527 013a 1B78     		ldrb	r3, [r3]
 528 013c 364A     		ldr	r2, .L29+32
 529 013e D35C     		ldrb	r3, [r2, r3]
 446:.\Generated_Source\PSoC4/CapSense_CSHL.c **** 			if ( (tempRaw <= noiseThreshold) || 
 530              		.loc 1 446 0 discriminator 1
 531 0140 3A1C     		mov	r2, r7
 532 0142 1232     		add	r2, r2, #18
 533 0144 1288     		ldrh	r2, [r2]
 534 0146 9A42     		cmp	r2, r3
 535 0148 2ED2     		bcs	.L23
 448:.\Generated_Source\PSoC4/CapSense_CSHL.c **** 			   && (sign == 0u)))
 536              		.loc 1 448 0
 537 014a 7B69     		ldr	r3, [r7, #20]
 538 014c 002B     		cmp	r3, #0
 539 014e 2BD1     		bne	.L23
 540              	.L24:
 449:.\Generated_Source\PSoC4/CapSense_CSHL.c **** 			{
 450:.\Generated_Source\PSoC4/CapSense_CSHL.c **** 		#else
 451:.\Generated_Source\PSoC4/CapSense_CSHL.c **** 			/* Update Baseline if lower than noiseThreshold */
 452:.\Generated_Source\PSoC4/CapSense_CSHL.c **** 			if ( (tempRaw <= noiseThreshold) || 
 453:.\Generated_Source\PSoC4/CapSense_CSHL.c **** 				 ((tempRaw < (uint16) CapSense_NEGATIVE_NOISE_THRESHOLD)
 454:.\Generated_Source\PSoC4/CapSense_CSHL.c **** 				   && (sign == 0u)))
 455:.\Generated_Source\PSoC4/CapSense_CSHL.c **** 			{
 456:.\Generated_Source\PSoC4/CapSense_CSHL.c **** 		#endif /* (CapSense_TUNING_METHOD != CapSense__TUNING_NONE) */ 
 457:.\Generated_Source\PSoC4/CapSense_CSHL.c ****         #endif /* (CapSense_AUTO_RESET == CapSense_AUTO_RESET_DISABLE) */
 458:.\Generated_Source\PSoC4/CapSense_CSHL.c ****                 /* Make full Baseline 23 bits */
 459:.\Generated_Source\PSoC4/CapSense_CSHL.c ****                 calc = (uint32) CapSense_sensorBaseline[sensor] << 8u;
 541              		.loc 1 459 0
 542 0150 2F4B     		ldr	r3, .L29+24
 543 0152 7A68     		ldr	r2, [r7, #4]
 544 0154 5200     		lsl	r2, r2, #1
 545 0156 D35A     		ldrh	r3, [r2, r3]
 546 0158 1B02     		lsl	r3, r3, #8
 547 015a BB60     		str	r3, [r7, #8]
 460:.\Generated_Source\PSoC4/CapSense_CSHL.c ****                 calc |= (uint32) CapSense_sensorBaselineLow[sensor];
 548              		.loc 1 460 0
 549 015c 304A     		ldr	r2, .L29+40
 550 015e 7B68     		ldr	r3, [r7, #4]
 551 0160 D318     		add	r3, r2, r3
 552 0162 1B78     		ldrb	r3, [r3]
 553 0164 BA68     		ldr	r2, [r7, #8]
 554 0166 1343     		orr	r3, r2
 555 0168 BB60     		str	r3, [r7, #8]
 461:.\Generated_Source\PSoC4/CapSense_CSHL.c **** 
 462:.\Generated_Source\PSoC4/CapSense_CSHL.c ****                 /* Add Raw Data to Baseline */
 463:.\Generated_Source\PSoC4/CapSense_CSHL.c ****                 calc += filteredRawData;
 556              		.loc 1 463 0
ARM GAS  C:\Users\jsing\AppData\Local\Temp\ccHQxQnh.s 			page 19


 557 016a 3B1C     		mov	r3, r7
 558 016c 1033     		add	r3, r3, #16
 559 016e 1B88     		ldrh	r3, [r3]
 560 0170 BA68     		ldr	r2, [r7, #8]
 561 0172 D318     		add	r3, r2, r3
 562 0174 BB60     		str	r3, [r7, #8]
 464:.\Generated_Source\PSoC4/CapSense_CSHL.c **** 
 465:.\Generated_Source\PSoC4/CapSense_CSHL.c ****                 /* Sub the high Baseline */
 466:.\Generated_Source\PSoC4/CapSense_CSHL.c ****                 calc -= CapSense_sensorBaseline[sensor];
 563              		.loc 1 466 0
 564 0176 264B     		ldr	r3, .L29+24
 565 0178 7A68     		ldr	r2, [r7, #4]
 566 017a 5200     		lsl	r2, r2, #1
 567 017c D35A     		ldrh	r3, [r2, r3]
 568 017e BA68     		ldr	r2, [r7, #8]
 569 0180 D31A     		sub	r3, r2, r3
 570 0182 BB60     		str	r3, [r7, #8]
 467:.\Generated_Source\PSoC4/CapSense_CSHL.c **** 
 468:.\Generated_Source\PSoC4/CapSense_CSHL.c ****                 /* Put Baseline and BaselineLow */
 469:.\Generated_Source\PSoC4/CapSense_CSHL.c ****                 CapSense_sensorBaseline[sensor] = ((uint16) (calc >> 8u));
 571              		.loc 1 469 0
 572 0184 BB68     		ldr	r3, [r7, #8]
 573 0186 1B0A     		lsr	r3, r3, #8
 574 0188 99B2     		uxth	r1, r3
 575 018a 214B     		ldr	r3, .L29+24
 576 018c 7A68     		ldr	r2, [r7, #4]
 577 018e 5200     		lsl	r2, r2, #1
 578 0190 D152     		strh	r1, [r2, r3]
 470:.\Generated_Source\PSoC4/CapSense_CSHL.c ****                 CapSense_sensorBaselineLow[sensor] = ((uint8) calc);
 579              		.loc 1 470 0
 580 0192 BB68     		ldr	r3, [r7, #8]
 581 0194 DAB2     		uxtb	r2, r3
 582 0196 2249     		ldr	r1, .L29+40
 583 0198 7B68     		ldr	r3, [r7, #4]
 584 019a CB18     		add	r3, r1, r3
 585 019c 1A70     		strb	r2, [r3]
 471:.\Generated_Source\PSoC4/CapSense_CSHL.c **** 
 472:.\Generated_Source\PSoC4/CapSense_CSHL.c ****                 CapSense_lowBaselineResetCnt[sensor] = 0u;
 586              		.loc 1 472 0
 587 019e 1D4A     		ldr	r2, .L29+28
 588 01a0 7B68     		ldr	r3, [r7, #4]
 589 01a2 D318     		add	r3, r2, r3
 590 01a4 0022     		mov	r2, #0
 591 01a6 1A70     		strb	r2, [r3]
 592              	.L23:
 473:.\Generated_Source\PSoC4/CapSense_CSHL.c ****         #if (CapSense_AUTO_RESET == CapSense_AUTO_RESET_DISABLE)
 474:.\Generated_Source\PSoC4/CapSense_CSHL.c ****             }
 475:.\Generated_Source\PSoC4/CapSense_CSHL.c ****         #endif /* (CapSense_AUTO_RESET == CapSense_AUTO_RESET_DISABLE) */
 476:.\Generated_Source\PSoC4/CapSense_CSHL.c ****     }
 477:.\Generated_Source\PSoC4/CapSense_CSHL.c **** 
 478:.\Generated_Source\PSoC4/CapSense_CSHL.c ****     /* Calculate Signal if positive difference > noiseThreshold */
 479:.\Generated_Source\PSoC4/CapSense_CSHL.c ****     if((tempRaw > (uint16) noiseThreshold) && (sign != 0u))
 593              		.loc 1 479 0
 594 01a8 3B1C     		mov	r3, r7
 595 01aa 0E33     		add	r3, r3, #14
 596 01ac 1B78     		ldrb	r3, [r3]
 597 01ae 9BB2     		uxth	r3, r3
ARM GAS  C:\Users\jsing\AppData\Local\Temp\ccHQxQnh.s 			page 20


 598 01b0 3A1C     		mov	r2, r7
 599 01b2 1232     		add	r2, r2, #18
 600 01b4 1288     		ldrh	r2, [r2]
 601 01b6 9A42     		cmp	r2, r3
 602 01b8 16D9     		bls	.L25
 603              		.loc 1 479 0 is_stmt 0 discriminator 1
 604 01ba 7B69     		ldr	r3, [r7, #20]
 605 01bc 002B     		cmp	r3, #0
 606 01be 13D0     		beq	.L25
 480:.\Generated_Source\PSoC4/CapSense_CSHL.c ****     {
 481:.\Generated_Source\PSoC4/CapSense_CSHL.c ****         #if (CapSense_SIGNAL_SIZE == CapSense_SIGNAL_SIZE_UINT8)
 482:.\Generated_Source\PSoC4/CapSense_CSHL.c ****             /* Over flow defence for uint8 */
 483:.\Generated_Source\PSoC4/CapSense_CSHL.c ****             if (tempRaw > 0xFFu)
 607              		.loc 1 483 0 is_stmt 1
 608 01c0 3B1C     		mov	r3, r7
 609 01c2 1233     		add	r3, r3, #18
 610 01c4 1B88     		ldrh	r3, [r3]
 611 01c6 FF2B     		cmp	r3, #255
 612 01c8 05D9     		bls	.L26
 484:.\Generated_Source\PSoC4/CapSense_CSHL.c ****             {
 485:.\Generated_Source\PSoC4/CapSense_CSHL.c ****                 CapSense_sensorSignal[sensor] = 0xFFu;
 613              		.loc 1 485 0
 614 01ca 164A     		ldr	r2, .L29+44
 615 01cc 7B68     		ldr	r3, [r7, #4]
 616 01ce D318     		add	r3, r2, r3
 617 01d0 FF22     		mov	r2, #255
 618 01d2 1A70     		strb	r2, [r3]
 483:.\Generated_Source\PSoC4/CapSense_CSHL.c ****             if (tempRaw > 0xFFu)
 619              		.loc 1 483 0
 620 01d4 0DE0     		b	.L16
 621              	.L26:
 486:.\Generated_Source\PSoC4/CapSense_CSHL.c ****             }    
 487:.\Generated_Source\PSoC4/CapSense_CSHL.c ****             else 
 488:.\Generated_Source\PSoC4/CapSense_CSHL.c ****             {
 489:.\Generated_Source\PSoC4/CapSense_CSHL.c ****                 CapSense_sensorSignal[sensor] = ((uint8) tempRaw);
 622              		.loc 1 489 0
 623 01d6 3B1C     		mov	r3, r7
 624 01d8 1233     		add	r3, r3, #18
 625 01da 1B88     		ldrh	r3, [r3]
 626 01dc DAB2     		uxtb	r2, r3
 627 01de 1149     		ldr	r1, .L29+44
 628 01e0 7B68     		ldr	r3, [r7, #4]
 629 01e2 CB18     		add	r3, r1, r3
 630 01e4 1A70     		strb	r2, [r3]
 483:.\Generated_Source\PSoC4/CapSense_CSHL.c ****             if (tempRaw > 0xFFu)
 631              		.loc 1 483 0
 632 01e6 04E0     		b	.L16
 633              	.L25:
 490:.\Generated_Source\PSoC4/CapSense_CSHL.c ****             }
 491:.\Generated_Source\PSoC4/CapSense_CSHL.c ****         #else
 492:.\Generated_Source\PSoC4/CapSense_CSHL.c ****             CapSense_sensorSignal[sensor] = ((uint16) tempRaw);
 493:.\Generated_Source\PSoC4/CapSense_CSHL.c ****         #endif  /* (CapSense_SIGNAL_SIZE == CapSense_SIGNAL_SIZE_UINT8) */
 494:.\Generated_Source\PSoC4/CapSense_CSHL.c ****     }
 495:.\Generated_Source\PSoC4/CapSense_CSHL.c ****     else
 496:.\Generated_Source\PSoC4/CapSense_CSHL.c ****     {
 497:.\Generated_Source\PSoC4/CapSense_CSHL.c ****         /* Signal is zero */
 498:.\Generated_Source\PSoC4/CapSense_CSHL.c ****         CapSense_sensorSignal[sensor] = 0u;
ARM GAS  C:\Users\jsing\AppData\Local\Temp\ccHQxQnh.s 			page 21


 634              		.loc 1 498 0
 635 01e8 0E4A     		ldr	r2, .L29+44
 636 01ea 7B68     		ldr	r3, [r7, #4]
 637 01ec D318     		add	r3, r2, r3
 638 01ee 0022     		mov	r2, #0
 639 01f0 1A70     		strb	r2, [r3]
 640              	.L16:
 499:.\Generated_Source\PSoC4/CapSense_CSHL.c ****     }
 500:.\Generated_Source\PSoC4/CapSense_CSHL.c **** 
 501:.\Generated_Source\PSoC4/CapSense_CSHL.c ****     #if (CapSense_TOTAL_GENERICS_COUNT)
 502:.\Generated_Source\PSoC4/CapSense_CSHL.c ****         /* Exclude generic widget */
 503:.\Generated_Source\PSoC4/CapSense_CSHL.c ****         }
 504:.\Generated_Source\PSoC4/CapSense_CSHL.c ****     #endif  /* CapSense_TOTAL_GENERICS_COUNT */
 505:.\Generated_Source\PSoC4/CapSense_CSHL.c **** }
 641              		.loc 1 505 0
 642 01f2 BD46     		mov	sp, r7
 643 01f4 07B0     		add	sp, sp, #28
 644              		@ sp needed
 645 01f6 90BD     		pop	{r4, r7, pc}
 646              	.L30:
 647              		.align	2
 648              	.L29:
 649 01f8 00000000 		.word	CapSense_widgetNumber
 650 01fc 00000000 		.word	CapSense_noiseThreshold
 651 0200 00000000 		.word	CapSense_sensorRaw
 652 0204 00000000 		.word	CapSense_enableRawFilters
 653 0208 00000000 		.word	CapSense_rawFilterData1
 654 020c 00000000 		.word	CapSense_config
 655 0210 00000000 		.word	CapSense_sensorBaseline
 656 0214 00000000 		.word	CapSense_lowBaselineResetCnt
 657 0218 00000000 		.word	CapSense_negativeNoiseThreshold
 658 021c 00000000 		.word	CapSense_lowBaselineReset
 659 0220 00000000 		.word	CapSense_sensorBaselineLow
 660 0224 00000000 		.word	CapSense_sensorSignal
 661              		.cfi_endproc
 662              	.LFE39:
 663              		.size	CapSense_UpdateBaselineNoThreshold, .-CapSense_UpdateBaselineNoThreshold
 664              		.section	.text.CapSense_UpdateSensorBaseline,"ax",%progbits
 665              		.align	2
 666              		.global	CapSense_UpdateSensorBaseline
 667              		.code	16
 668              		.thumb_func
 669              		.type	CapSense_UpdateSensorBaseline, %function
 670              	CapSense_UpdateSensorBaseline:
 671              	.LFB40:
 506:.\Generated_Source\PSoC4/CapSense_CSHL.c **** 
 507:.\Generated_Source\PSoC4/CapSense_CSHL.c **** 
 508:.\Generated_Source\PSoC4/CapSense_CSHL.c **** /*******************************************************************************
 509:.\Generated_Source\PSoC4/CapSense_CSHL.c **** * Function Name: CapSense_UpdateSensorBaseline
 510:.\Generated_Source\PSoC4/CapSense_CSHL.c **** ********************************************************************************
 511:.\Generated_Source\PSoC4/CapSense_CSHL.c **** *
 512:.\Generated_Source\PSoC4/CapSense_CSHL.c **** * Summary:
 513:.\Generated_Source\PSoC4/CapSense_CSHL.c **** *  Updates the CapSense_sensorBaseline[sensor] array element using the 
 514:.\Generated_Source\PSoC4/CapSense_CSHL.c **** *  LP filter with k = 256. The signal calculates the difference of count by 
 515:.\Generated_Source\PSoC4/CapSense_CSHL.c **** *  subtracting the previous baseline from the current raw count value and stores
 516:.\Generated_Source\PSoC4/CapSense_CSHL.c **** *  it in CapSense_sensorSignal[sensor]. 
 517:.\Generated_Source\PSoC4/CapSense_CSHL.c **** *  If the auto reset option is enabled, the baseline updated regards the noise threshold. 
ARM GAS  C:\Users\jsing\AppData\Local\Temp\ccHQxQnh.s 			page 22


 518:.\Generated_Source\PSoC4/CapSense_CSHL.c **** *  If the auto reset option is disabled, the baseline stops updating. 
 519:.\Generated_Source\PSoC4/CapSense_CSHL.c **** *  Baseline is loaded with raw count value if a signal is greater than zero and  
 520:.\Generated_Source\PSoC4/CapSense_CSHL.c **** *  if signal is less than noise threshold.
 521:.\Generated_Source\PSoC4/CapSense_CSHL.c **** *  Raw data filters are applied to the values if enabled before baseline 
 522:.\Generated_Source\PSoC4/CapSense_CSHL.c **** *  calculation.
 523:.\Generated_Source\PSoC4/CapSense_CSHL.c **** *  This API updates the thresholds in the Smartsense Mode.
 524:.\Generated_Source\PSoC4/CapSense_CSHL.c **** *
 525:.\Generated_Source\PSoC4/CapSense_CSHL.c **** * Parameters:
 526:.\Generated_Source\PSoC4/CapSense_CSHL.c **** *  sensor:  Sensor number.
 527:.\Generated_Source\PSoC4/CapSense_CSHL.c **** *
 528:.\Generated_Source\PSoC4/CapSense_CSHL.c **** * Return:
 529:.\Generated_Source\PSoC4/CapSense_CSHL.c **** *  None
 530:.\Generated_Source\PSoC4/CapSense_CSHL.c **** *
 531:.\Generated_Source\PSoC4/CapSense_CSHL.c **** * Global Variables:
 532:.\Generated_Source\PSoC4/CapSense_CSHL.c **** *  CapSense_widgetNumber[]  - stores widget numbers.
 533:.\Generated_Source\PSoC4/CapSense_CSHL.c **** * 
 534:.\Generated_Source\PSoC4/CapSense_CSHL.c **** * Side Effects:
 535:.\Generated_Source\PSoC4/CapSense_CSHL.c **** *  None
 536:.\Generated_Source\PSoC4/CapSense_CSHL.c **** * 
 537:.\Generated_Source\PSoC4/CapSense_CSHL.c **** *******************************************************************************/
 538:.\Generated_Source\PSoC4/CapSense_CSHL.c ****  void CapSense_UpdateSensorBaseline(uint32 sensor)
 539:.\Generated_Source\PSoC4/CapSense_CSHL.c **** {
 672              		.loc 1 539 0
 673              		.cfi_startproc
 674 0000 80B5     		push	{r7, lr}
 675              		.cfi_def_cfa_offset 8
 676              		.cfi_offset 7, -8
 677              		.cfi_offset 14, -4
 678 0002 82B0     		sub	sp, sp, #8
 679              		.cfi_def_cfa_offset 16
 680 0004 00AF     		add	r7, sp, #0
 681              		.cfi_def_cfa_register 7
 682 0006 7860     		str	r0, [r7, #4]
 540:.\Generated_Source\PSoC4/CapSense_CSHL.c ****     #if (CapSense_TOTAL_GENERICS_COUNT)
 541:.\Generated_Source\PSoC4/CapSense_CSHL.c **** 		uint32 widget;
 542:.\Generated_Source\PSoC4/CapSense_CSHL.c **** 		
 543:.\Generated_Source\PSoC4/CapSense_CSHL.c **** 		widget = CapSense_widgetNumber[sensor];
 544:.\Generated_Source\PSoC4/CapSense_CSHL.c **** 	
 545:.\Generated_Source\PSoC4/CapSense_CSHL.c ****         /* Exclude generic widget */
 546:.\Generated_Source\PSoC4/CapSense_CSHL.c ****         if(widget < CapSense_END_OF_WIDGETS_INDEX)
 547:.\Generated_Source\PSoC4/CapSense_CSHL.c ****         {
 548:.\Generated_Source\PSoC4/CapSense_CSHL.c ****     #endif  /* CapSense_TOTAL_GENERICS_COUNT */
 549:.\Generated_Source\PSoC4/CapSense_CSHL.c **** 
 550:.\Generated_Source\PSoC4/CapSense_CSHL.c ****     #if (CapSense_TUNING_METHOD == CapSense__TUNING_AUTO)
 551:.\Generated_Source\PSoC4/CapSense_CSHL.c ****     	CapSense_UpdateThresholds(sensor);
 683              		.loc 1 551 0
 684 0008 7B68     		ldr	r3, [r7, #4]
 685 000a 181C     		mov	r0, r3
 686 000c FFF7FEFF 		bl	CapSense_UpdateThresholds
 552:.\Generated_Source\PSoC4/CapSense_CSHL.c ****     #endif /* (CapSense_TUNING_METHOD == CapSense__TUNING_AUTO) */
 553:.\Generated_Source\PSoC4/CapSense_CSHL.c **** 
 554:.\Generated_Source\PSoC4/CapSense_CSHL.c ****     CapSense_UpdateBaselineNoThreshold(sensor);
 687              		.loc 1 554 0
 688 0010 7B68     		ldr	r3, [r7, #4]
 689 0012 181C     		mov	r0, r3
 690 0014 FFF7FEFF 		bl	CapSense_UpdateBaselineNoThreshold
 555:.\Generated_Source\PSoC4/CapSense_CSHL.c ****     
ARM GAS  C:\Users\jsing\AppData\Local\Temp\ccHQxQnh.s 			page 23


 556:.\Generated_Source\PSoC4/CapSense_CSHL.c ****     #if (CapSense_TOTAL_GENERICS_COUNT)
 557:.\Generated_Source\PSoC4/CapSense_CSHL.c ****         /* Exclude generic widget */
 558:.\Generated_Source\PSoC4/CapSense_CSHL.c ****         }
 559:.\Generated_Source\PSoC4/CapSense_CSHL.c ****     #endif  /* CapSense_TOTAL_GENERICS_COUNT */
 560:.\Generated_Source\PSoC4/CapSense_CSHL.c **** }
 691              		.loc 1 560 0
 692 0018 BD46     		mov	sp, r7
 693 001a 02B0     		add	sp, sp, #8
 694              		@ sp needed
 695 001c 80BD     		pop	{r7, pc}
 696              		.cfi_endproc
 697              	.LFE40:
 698              		.size	CapSense_UpdateSensorBaseline, .-CapSense_UpdateSensorBaseline
 699 001e C046     		.section	.text.CapSense_UpdateEnabledBaselines,"ax",%progbits
 700              		.align	2
 701              		.global	CapSense_UpdateEnabledBaselines
 702              		.code	16
 703              		.thumb_func
 704              		.type	CapSense_UpdateEnabledBaselines, %function
 705              	CapSense_UpdateEnabledBaselines:
 706              	.LFB41:
 561:.\Generated_Source\PSoC4/CapSense_CSHL.c **** 
 562:.\Generated_Source\PSoC4/CapSense_CSHL.c **** 
 563:.\Generated_Source\PSoC4/CapSense_CSHL.c **** /*******************************************************************************
 564:.\Generated_Source\PSoC4/CapSense_CSHL.c **** * Function Name: CapSense_UpdateEnabledBaselines
 565:.\Generated_Source\PSoC4/CapSense_CSHL.c **** ********************************************************************************
 566:.\Generated_Source\PSoC4/CapSense_CSHL.c **** *
 567:.\Generated_Source\PSoC4/CapSense_CSHL.c **** * Summary:
 568:.\Generated_Source\PSoC4/CapSense_CSHL.c **** *  Checks CapSense_sensorEnableMask[] array and calls the 
 569:.\Generated_Source\PSoC4/CapSense_CSHL.c **** *  CapSense_UpdateSensorBaseline function to update the baselines 
 570:.\Generated_Source\PSoC4/CapSense_CSHL.c **** *  for the enabled sensors.
 571:.\Generated_Source\PSoC4/CapSense_CSHL.c **** *
 572:.\Generated_Source\PSoC4/CapSense_CSHL.c **** * Parameters:
 573:.\Generated_Source\PSoC4/CapSense_CSHL.c **** *  None
 574:.\Generated_Source\PSoC4/CapSense_CSHL.c **** *
 575:.\Generated_Source\PSoC4/CapSense_CSHL.c **** * Return:
 576:.\Generated_Source\PSoC4/CapSense_CSHL.c **** *  None
 577:.\Generated_Source\PSoC4/CapSense_CSHL.c **** *
 578:.\Generated_Source\PSoC4/CapSense_CSHL.c **** * Global Variables:
 579:.\Generated_Source\PSoC4/CapSense_CSHL.c **** *  CapSense_sensorEnableMask[] - used to store the sensor scanning 
 580:.\Generated_Source\PSoC4/CapSense_CSHL.c **** *  state.
 581:.\Generated_Source\PSoC4/CapSense_CSHL.c **** *  CapSense_sensorEnableMask[0] contains the masked bits for sensors 
 582:.\Generated_Source\PSoC4/CapSense_CSHL.c **** *   0 through 7 (sensor 0 is bit 0, sensor 1 is bit 1).
 583:.\Generated_Source\PSoC4/CapSense_CSHL.c **** *  CapSense_sensorEnableMask[1] contains the masked bits for 
 584:.\Generated_Source\PSoC4/CapSense_CSHL.c **** *  sensors 8 through 15 (if needed), and so on.
 585:.\Generated_Source\PSoC4/CapSense_CSHL.c **** *  0 - sensor doesn't scan by CapSense_ScanEnabledWidgets().
 586:.\Generated_Source\PSoC4/CapSense_CSHL.c **** *  1 - sensor scans by CapSense_ScanEnabledWidgets().
 587:.\Generated_Source\PSoC4/CapSense_CSHL.c **** * 
 588:.\Generated_Source\PSoC4/CapSense_CSHL.c **** * Side Effects:
 589:.\Generated_Source\PSoC4/CapSense_CSHL.c **** *  None
 590:.\Generated_Source\PSoC4/CapSense_CSHL.c **** * 
 591:.\Generated_Source\PSoC4/CapSense_CSHL.c **** *******************************************************************************/
 592:.\Generated_Source\PSoC4/CapSense_CSHL.c ****  void CapSense_UpdateEnabledBaselines(void)
 593:.\Generated_Source\PSoC4/CapSense_CSHL.c **** {
 707              		.loc 1 593 0
 708              		.cfi_startproc
 709 0000 80B5     		push	{r7, lr}
ARM GAS  C:\Users\jsing\AppData\Local\Temp\ccHQxQnh.s 			page 24


 710              		.cfi_def_cfa_offset 8
 711              		.cfi_offset 7, -8
 712              		.cfi_offset 14, -4
 713 0002 82B0     		sub	sp, sp, #8
 714              		.cfi_def_cfa_offset 16
 715 0004 00AF     		add	r7, sp, #0
 716              		.cfi_def_cfa_register 7
 594:.\Generated_Source\PSoC4/CapSense_CSHL.c ****     uint32 i;
 595:.\Generated_Source\PSoC4/CapSense_CSHL.c ****     uint32 isSensorEnabled;
 596:.\Generated_Source\PSoC4/CapSense_CSHL.c ****     
 597:.\Generated_Source\PSoC4/CapSense_CSHL.c ****     for(i = 0u; i < CapSense_TOTAL_SENSOR_COUNT; i++)
 717              		.loc 1 597 0
 718 0006 0023     		mov	r3, #0
 719 0008 7B60     		str	r3, [r7, #4]
 720 000a 11E0     		b	.L33
 721              	.L35:
 598:.\Generated_Source\PSoC4/CapSense_CSHL.c ****     {
 599:.\Generated_Source\PSoC4/CapSense_CSHL.c ****         isSensorEnabled = CapSense_GetBitValue(CapSense_sensorEnableMask, i);
 722              		.loc 1 599 0
 723 000c 0B4A     		ldr	r2, .L36
 724 000e 7B68     		ldr	r3, [r7, #4]
 725 0010 101C     		mov	r0, r2
 726 0012 191C     		mov	r1, r3
 727 0014 FFF7FEFF 		bl	CapSense_GetBitValue
 728 0018 031C     		mov	r3, r0
 729 001a 3B60     		str	r3, [r7]
 600:.\Generated_Source\PSoC4/CapSense_CSHL.c ****         
 601:.\Generated_Source\PSoC4/CapSense_CSHL.c ****         if(0u != isSensorEnabled)
 730              		.loc 1 601 0
 731 001c 3B68     		ldr	r3, [r7]
 732 001e 002B     		cmp	r3, #0
 733 0020 03D0     		beq	.L34
 602:.\Generated_Source\PSoC4/CapSense_CSHL.c ****         {
 603:.\Generated_Source\PSoC4/CapSense_CSHL.c ****             CapSense_UpdateSensorBaseline(i);
 734              		.loc 1 603 0
 735 0022 7B68     		ldr	r3, [r7, #4]
 736 0024 181C     		mov	r0, r3
 737 0026 FFF7FEFF 		bl	CapSense_UpdateSensorBaseline
 738              	.L34:
 597:.\Generated_Source\PSoC4/CapSense_CSHL.c ****     for(i = 0u; i < CapSense_TOTAL_SENSOR_COUNT; i++)
 739              		.loc 1 597 0
 740 002a 7B68     		ldr	r3, [r7, #4]
 741 002c 0133     		add	r3, r3, #1
 742 002e 7B60     		str	r3, [r7, #4]
 743              	.L33:
 597:.\Generated_Source\PSoC4/CapSense_CSHL.c ****     for(i = 0u; i < CapSense_TOTAL_SENSOR_COUNT; i++)
 744              		.loc 1 597 0 is_stmt 0 discriminator 1
 745 0030 7B68     		ldr	r3, [r7, #4]
 746 0032 002B     		cmp	r3, #0
 747 0034 EAD0     		beq	.L35
 604:.\Generated_Source\PSoC4/CapSense_CSHL.c ****         }
 605:.\Generated_Source\PSoC4/CapSense_CSHL.c ****     }
 606:.\Generated_Source\PSoC4/CapSense_CSHL.c **** }
 748              		.loc 1 606 0 is_stmt 1
 749 0036 BD46     		mov	sp, r7
 750 0038 02B0     		add	sp, sp, #8
 751              		@ sp needed
ARM GAS  C:\Users\jsing\AppData\Local\Temp\ccHQxQnh.s 			page 25


 752 003a 80BD     		pop	{r7, pc}
 753              	.L37:
 754              		.align	2
 755              	.L36:
 756 003c 00000000 		.word	CapSense_sensorEnableMask
 757              		.cfi_endproc
 758              	.LFE41:
 759              		.size	CapSense_UpdateEnabledBaselines, .-CapSense_UpdateEnabledBaselines
 760              		.section	.text.CapSense_UpdateWidgetBaseline,"ax",%progbits
 761              		.align	2
 762              		.global	CapSense_UpdateWidgetBaseline
 763              		.code	16
 764              		.thumb_func
 765              		.type	CapSense_UpdateWidgetBaseline, %function
 766              	CapSense_UpdateWidgetBaseline:
 767              	.LFB42:
 607:.\Generated_Source\PSoC4/CapSense_CSHL.c **** 
 608:.\Generated_Source\PSoC4/CapSense_CSHL.c **** /*******************************************************************************
 609:.\Generated_Source\PSoC4/CapSense_CSHL.c **** * Function Name: CapSense_UpdateWidgetBaseline
 610:.\Generated_Source\PSoC4/CapSense_CSHL.c **** ********************************************************************************
 611:.\Generated_Source\PSoC4/CapSense_CSHL.c **** *
 612:.\Generated_Source\PSoC4/CapSense_CSHL.c **** * Summary:
 613:.\Generated_Source\PSoC4/CapSense_CSHL.c **** *  Checks CapSense_sensorEnableMask[] array and calls the 
 614:.\Generated_Source\PSoC4/CapSense_CSHL.c **** *  CapSense_UpdateSensorBaseline function to update the baselines 
 615:.\Generated_Source\PSoC4/CapSense_CSHL.c **** *  for the enabled sensors that belong to widget.
 616:.\Generated_Source\PSoC4/CapSense_CSHL.c **** *
 617:.\Generated_Source\PSoC4/CapSense_CSHL.c **** * Parameters:
 618:.\Generated_Source\PSoC4/CapSense_CSHL.c **** *  widget:  Widget number.
 619:.\Generated_Source\PSoC4/CapSense_CSHL.c **** *
 620:.\Generated_Source\PSoC4/CapSense_CSHL.c **** * Return:
 621:.\Generated_Source\PSoC4/CapSense_CSHL.c **** *  None
 622:.\Generated_Source\PSoC4/CapSense_CSHL.c **** *
 623:.\Generated_Source\PSoC4/CapSense_CSHL.c **** * Global Variables:
 624:.\Generated_Source\PSoC4/CapSense_CSHL.c **** *  CapSense_sensorEnableMask[] - used to store the sensor scanning 
 625:.\Generated_Source\PSoC4/CapSense_CSHL.c **** *  state.
 626:.\Generated_Source\PSoC4/CapSense_CSHL.c **** *  CapSense_sensorEnableMask[0] contains the masked bits for sensors 
 627:.\Generated_Source\PSoC4/CapSense_CSHL.c **** *   0 through 7 (sensor 0 is bit 0, sensor 1 is bit 1).
 628:.\Generated_Source\PSoC4/CapSense_CSHL.c **** *  CapSense_sensorEnableMask[1] contains the masked bits for 
 629:.\Generated_Source\PSoC4/CapSense_CSHL.c **** *  sensors 8 through 15 (if needed), and so on.
 630:.\Generated_Source\PSoC4/CapSense_CSHL.c **** *  0 - sensor doesn't scan by CapSense_ScanEnabledWidgets().
 631:.\Generated_Source\PSoC4/CapSense_CSHL.c **** *  1 - sensor scans by CapSense_ScanEnabledWidgets().
 632:.\Generated_Source\PSoC4/CapSense_CSHL.c **** * 
 633:.\Generated_Source\PSoC4/CapSense_CSHL.c **** * Side Effects:
 634:.\Generated_Source\PSoC4/CapSense_CSHL.c **** *  None
 635:.\Generated_Source\PSoC4/CapSense_CSHL.c **** * 
 636:.\Generated_Source\PSoC4/CapSense_CSHL.c **** *******************************************************************************/
 637:.\Generated_Source\PSoC4/CapSense_CSHL.c **** void CapSense_UpdateWidgetBaseline(uint32 widget)
 638:.\Generated_Source\PSoC4/CapSense_CSHL.c **** {
 768              		.loc 1 638 0
 769              		.cfi_startproc
 770 0000 80B5     		push	{r7, lr}
 771              		.cfi_def_cfa_offset 8
 772              		.cfi_offset 7, -8
 773              		.cfi_offset 14, -4
 774 0002 88B0     		sub	sp, sp, #32
 775              		.cfi_def_cfa_offset 40
 776 0004 00AF     		add	r7, sp, #0
ARM GAS  C:\Users\jsing\AppData\Local\Temp\ccHQxQnh.s 			page 26


 777              		.cfi_def_cfa_register 7
 778 0006 7860     		str	r0, [r7, #4]
 639:.\Generated_Source\PSoC4/CapSense_CSHL.c ****     uint32 sensorsPerWidget;
 640:.\Generated_Source\PSoC4/CapSense_CSHL.c ****     uint32 firstSensor;
 641:.\Generated_Source\PSoC4/CapSense_CSHL.c ****     uint32 lastSensor;
 642:.\Generated_Source\PSoC4/CapSense_CSHL.c ****     uint32 i;
 643:.\Generated_Source\PSoC4/CapSense_CSHL.c ****     uint32 isSensorEnabled;
 644:.\Generated_Source\PSoC4/CapSense_CSHL.c ****     
 645:.\Generated_Source\PSoC4/CapSense_CSHL.c **** 	/* Get number of sensors in widget */
 646:.\Generated_Source\PSoC4/CapSense_CSHL.c **** 	sensorsPerWidget = CapSense_numberOfSensors[widget];
 779              		.loc 1 646 0
 780 0008 0123     		mov	r3, #1
 781 000a BB61     		str	r3, [r7, #24]
 647:.\Generated_Source\PSoC4/CapSense_CSHL.c **** 
 648:.\Generated_Source\PSoC4/CapSense_CSHL.c **** 	/* Get first sensor in widget */
 649:.\Generated_Source\PSoC4/CapSense_CSHL.c **** 	firstSensor = CapSense_rawDataIndex[widget];
 782              		.loc 1 649 0
 783 000c 0023     		mov	r3, #0
 784 000e 7B61     		str	r3, [r7, #20]
 650:.\Generated_Source\PSoC4/CapSense_CSHL.c **** 	
 651:.\Generated_Source\PSoC4/CapSense_CSHL.c **** 	/* Get last sensor in widget */
 652:.\Generated_Source\PSoC4/CapSense_CSHL.c **** 	lastSensor = (CapSense_rawDataIndex[widget] + sensorsPerWidget);
 785              		.loc 1 652 0
 786 0010 0023     		mov	r3, #0
 787 0012 1A1C     		mov	r2, r3
 788 0014 BB69     		ldr	r3, [r7, #24]
 789 0016 D318     		add	r3, r2, r3
 790 0018 3B61     		str	r3, [r7, #16]
 653:.\Generated_Source\PSoC4/CapSense_CSHL.c **** 	
 654:.\Generated_Source\PSoC4/CapSense_CSHL.c ****     for(i = firstSensor; i < lastSensor; i++)
 791              		.loc 1 654 0
 792 001a 7B69     		ldr	r3, [r7, #20]
 793 001c FB61     		str	r3, [r7, #28]
 794 001e 11E0     		b	.L39
 795              	.L41:
 655:.\Generated_Source\PSoC4/CapSense_CSHL.c ****     {
 656:.\Generated_Source\PSoC4/CapSense_CSHL.c ****         isSensorEnabled = CapSense_GetBitValue(CapSense_sensorEnableMask, i);
 796              		.loc 1 656 0
 797 0020 0C4A     		ldr	r2, .L42
 798 0022 FB69     		ldr	r3, [r7, #28]
 799 0024 101C     		mov	r0, r2
 800 0026 191C     		mov	r1, r3
 801 0028 FFF7FEFF 		bl	CapSense_GetBitValue
 802 002c 031C     		mov	r3, r0
 803 002e FB60     		str	r3, [r7, #12]
 657:.\Generated_Source\PSoC4/CapSense_CSHL.c ****         
 658:.\Generated_Source\PSoC4/CapSense_CSHL.c ****         if(0u != isSensorEnabled)
 804              		.loc 1 658 0
 805 0030 FB68     		ldr	r3, [r7, #12]
 806 0032 002B     		cmp	r3, #0
 807 0034 03D0     		beq	.L40
 659:.\Generated_Source\PSoC4/CapSense_CSHL.c ****         {
 660:.\Generated_Source\PSoC4/CapSense_CSHL.c ****             CapSense_UpdateSensorBaseline(i);
 808              		.loc 1 660 0
 809 0036 FB69     		ldr	r3, [r7, #28]
 810 0038 181C     		mov	r0, r3
 811 003a FFF7FEFF 		bl	CapSense_UpdateSensorBaseline
ARM GAS  C:\Users\jsing\AppData\Local\Temp\ccHQxQnh.s 			page 27


 812              	.L40:
 654:.\Generated_Source\PSoC4/CapSense_CSHL.c ****     for(i = firstSensor; i < lastSensor; i++)
 813              		.loc 1 654 0
 814 003e FB69     		ldr	r3, [r7, #28]
 815 0040 0133     		add	r3, r3, #1
 816 0042 FB61     		str	r3, [r7, #28]
 817              	.L39:
 654:.\Generated_Source\PSoC4/CapSense_CSHL.c ****     for(i = firstSensor; i < lastSensor; i++)
 818              		.loc 1 654 0 is_stmt 0 discriminator 1
 819 0044 FA69     		ldr	r2, [r7, #28]
 820 0046 3B69     		ldr	r3, [r7, #16]
 821 0048 9A42     		cmp	r2, r3
 822 004a E9D3     		bcc	.L41
 661:.\Generated_Source\PSoC4/CapSense_CSHL.c ****         }
 662:.\Generated_Source\PSoC4/CapSense_CSHL.c ****     }
 663:.\Generated_Source\PSoC4/CapSense_CSHL.c **** }
 823              		.loc 1 663 0 is_stmt 1
 824 004c BD46     		mov	sp, r7
 825 004e 08B0     		add	sp, sp, #32
 826              		@ sp needed
 827 0050 80BD     		pop	{r7, pc}
 828              	.L43:
 829 0052 C046     		.align	2
 830              	.L42:
 831 0054 00000000 		.word	CapSense_sensorEnableMask
 832              		.cfi_endproc
 833              	.LFE42:
 834              		.size	CapSense_UpdateWidgetBaseline, .-CapSense_UpdateWidgetBaseline
 835              		.section	.text.CapSense_GetBaselineData,"ax",%progbits
 836              		.align	2
 837              		.global	CapSense_GetBaselineData
 838              		.code	16
 839              		.thumb_func
 840              		.type	CapSense_GetBaselineData, %function
 841              	CapSense_GetBaselineData:
 842              	.LFB43:
 664:.\Generated_Source\PSoC4/CapSense_CSHL.c **** 
 665:.\Generated_Source\PSoC4/CapSense_CSHL.c **** 
 666:.\Generated_Source\PSoC4/CapSense_CSHL.c **** /*******************************************************************************
 667:.\Generated_Source\PSoC4/CapSense_CSHL.c **** * Function Name: CapSense_GetBaselineData
 668:.\Generated_Source\PSoC4/CapSense_CSHL.c **** ********************************************************************************
 669:.\Generated_Source\PSoC4/CapSense_CSHL.c **** *
 670:.\Generated_Source\PSoC4/CapSense_CSHL.c **** * Summary:
 671:.\Generated_Source\PSoC4/CapSense_CSHL.c **** *  This function reads the sensor baseline from the component.
 672:.\Generated_Source\PSoC4/CapSense_CSHL.c **** *
 673:.\Generated_Source\PSoC4/CapSense_CSHL.c **** * Parameters:
 674:.\Generated_Source\PSoC4/CapSense_CSHL.c **** *  sensor:  Sensor number.
 675:.\Generated_Source\PSoC4/CapSense_CSHL.c **** *
 676:.\Generated_Source\PSoC4/CapSense_CSHL.c **** * Return:
 677:.\Generated_Source\PSoC4/CapSense_CSHL.c **** *  This API returns the baseline value of the sensor indicated by an argument.
 678:.\Generated_Source\PSoC4/CapSense_CSHL.c **** *
 679:.\Generated_Source\PSoC4/CapSense_CSHL.c **** * Global Variables:
 680:.\Generated_Source\PSoC4/CapSense_CSHL.c **** *  CapSense_sensorBaseline[] - the array with an initial values by scanning
 681:.\Generated_Source\PSoC4/CapSense_CSHL.c **** * 
 682:.\Generated_Source\PSoC4/CapSense_CSHL.c **** * Side Effects:
 683:.\Generated_Source\PSoC4/CapSense_CSHL.c **** *  None
 684:.\Generated_Source\PSoC4/CapSense_CSHL.c **** *
ARM GAS  C:\Users\jsing\AppData\Local\Temp\ccHQxQnh.s 			page 28


 685:.\Generated_Source\PSoC4/CapSense_CSHL.c **** *******************************************************************************/
 686:.\Generated_Source\PSoC4/CapSense_CSHL.c **** uint16 CapSense_GetBaselineData(uint32 sensor)
 687:.\Generated_Source\PSoC4/CapSense_CSHL.c **** {
 843              		.loc 1 687 0
 844              		.cfi_startproc
 845 0000 80B5     		push	{r7, lr}
 846              		.cfi_def_cfa_offset 8
 847              		.cfi_offset 7, -8
 848              		.cfi_offset 14, -4
 849 0002 82B0     		sub	sp, sp, #8
 850              		.cfi_def_cfa_offset 16
 851 0004 00AF     		add	r7, sp, #0
 852              		.cfi_def_cfa_register 7
 853 0006 7860     		str	r0, [r7, #4]
 688:.\Generated_Source\PSoC4/CapSense_CSHL.c **** 	return (CapSense_sensorBaseline[sensor]);
 854              		.loc 1 688 0
 855 0008 034B     		ldr	r3, .L46
 856 000a 7A68     		ldr	r2, [r7, #4]
 857 000c 5200     		lsl	r2, r2, #1
 858 000e D35A     		ldrh	r3, [r2, r3]
 689:.\Generated_Source\PSoC4/CapSense_CSHL.c **** }
 859              		.loc 1 689 0
 860 0010 181C     		mov	r0, r3
 861 0012 BD46     		mov	sp, r7
 862 0014 02B0     		add	sp, sp, #8
 863              		@ sp needed
 864 0016 80BD     		pop	{r7, pc}
 865              	.L47:
 866              		.align	2
 867              	.L46:
 868 0018 00000000 		.word	CapSense_sensorBaseline
 869              		.cfi_endproc
 870              	.LFE43:
 871              		.size	CapSense_GetBaselineData, .-CapSense_GetBaselineData
 872              		.section	.text.CapSense_SetBaselineData,"ax",%progbits
 873              		.align	2
 874              		.global	CapSense_SetBaselineData
 875              		.code	16
 876              		.thumb_func
 877              		.type	CapSense_SetBaselineData, %function
 878              	CapSense_SetBaselineData:
 879              	.LFB44:
 690:.\Generated_Source\PSoC4/CapSense_CSHL.c **** 
 691:.\Generated_Source\PSoC4/CapSense_CSHL.c **** 
 692:.\Generated_Source\PSoC4/CapSense_CSHL.c **** /*******************************************************************************
 693:.\Generated_Source\PSoC4/CapSense_CSHL.c **** * Function Name: CapSense_SetBaselineData
 694:.\Generated_Source\PSoC4/CapSense_CSHL.c **** ********************************************************************************
 695:.\Generated_Source\PSoC4/CapSense_CSHL.c **** *
 696:.\Generated_Source\PSoC4/CapSense_CSHL.c **** * Summary:
 697:.\Generated_Source\PSoC4/CapSense_CSHL.c **** *  This API writes the data value passed as an argument to the sensor baseline array.
 698:.\Generated_Source\PSoC4/CapSense_CSHL.c **** *
 699:.\Generated_Source\PSoC4/CapSense_CSHL.c **** * Parameters:
 700:.\Generated_Source\PSoC4/CapSense_CSHL.c **** *  sensor:  Sensor number.
 701:.\Generated_Source\PSoC4/CapSense_CSHL.c **** *  data:    Sensor baseline.
 702:.\Generated_Source\PSoC4/CapSense_CSHL.c **** *
 703:.\Generated_Source\PSoC4/CapSense_CSHL.c **** * Return:
 704:.\Generated_Source\PSoC4/CapSense_CSHL.c **** *  None.
ARM GAS  C:\Users\jsing\AppData\Local\Temp\ccHQxQnh.s 			page 29


 705:.\Generated_Source\PSoC4/CapSense_CSHL.c **** *
 706:.\Generated_Source\PSoC4/CapSense_CSHL.c **** * Global Variables:
 707:.\Generated_Source\PSoC4/CapSense_CSHL.c **** *  CapSense_sensorBaseline[] - the array with initial values by scanning
 708:.\Generated_Source\PSoC4/CapSense_CSHL.c **** * 
 709:.\Generated_Source\PSoC4/CapSense_CSHL.c **** * Side Effects:
 710:.\Generated_Source\PSoC4/CapSense_CSHL.c **** *  None
 711:.\Generated_Source\PSoC4/CapSense_CSHL.c **** *
 712:.\Generated_Source\PSoC4/CapSense_CSHL.c **** *******************************************************************************/
 713:.\Generated_Source\PSoC4/CapSense_CSHL.c **** void CapSense_SetBaselineData(uint32 sensor, uint16 data)
 714:.\Generated_Source\PSoC4/CapSense_CSHL.c **** {
 880              		.loc 1 714 0
 881              		.cfi_startproc
 882 0000 80B5     		push	{r7, lr}
 883              		.cfi_def_cfa_offset 8
 884              		.cfi_offset 7, -8
 885              		.cfi_offset 14, -4
 886 0002 82B0     		sub	sp, sp, #8
 887              		.cfi_def_cfa_offset 16
 888 0004 00AF     		add	r7, sp, #0
 889              		.cfi_def_cfa_register 7
 890 0006 7860     		str	r0, [r7, #4]
 891 0008 0A1C     		mov	r2, r1
 892 000a BB1C     		add	r3, r7, #2
 893 000c 1A80     		strh	r2, [r3]
 715:.\Generated_Source\PSoC4/CapSense_CSHL.c **** 	CapSense_sensorBaseline[sensor] = data;
 894              		.loc 1 715 0
 895 000e 044B     		ldr	r3, .L49
 896 0010 7A68     		ldr	r2, [r7, #4]
 897 0012 5200     		lsl	r2, r2, #1
 898 0014 B91C     		add	r1, r7, #2
 899 0016 0988     		ldrh	r1, [r1]
 900 0018 D152     		strh	r1, [r2, r3]
 716:.\Generated_Source\PSoC4/CapSense_CSHL.c **** }
 901              		.loc 1 716 0
 902 001a BD46     		mov	sp, r7
 903 001c 02B0     		add	sp, sp, #8
 904              		@ sp needed
 905 001e 80BD     		pop	{r7, pc}
 906              	.L50:
 907              		.align	2
 908              	.L49:
 909 0020 00000000 		.word	CapSense_sensorBaseline
 910              		.cfi_endproc
 911              	.LFE44:
 912              		.size	CapSense_SetBaselineData, .-CapSense_SetBaselineData
 913              		.section	.text.CapSense_GetDiffCountData,"ax",%progbits
 914              		.align	2
 915              		.global	CapSense_GetDiffCountData
 916              		.code	16
 917              		.thumb_func
 918              		.type	CapSense_GetDiffCountData, %function
 919              	CapSense_GetDiffCountData:
 920              	.LFB45:
 717:.\Generated_Source\PSoC4/CapSense_CSHL.c **** 
 718:.\Generated_Source\PSoC4/CapSense_CSHL.c **** 
 719:.\Generated_Source\PSoC4/CapSense_CSHL.c **** /*******************************************************************************
 720:.\Generated_Source\PSoC4/CapSense_CSHL.c **** * Function Name: CapSense_GetDiffCountData
ARM GAS  C:\Users\jsing\AppData\Local\Temp\ccHQxQnh.s 			page 30


 721:.\Generated_Source\PSoC4/CapSense_CSHL.c **** ********************************************************************************
 722:.\Generated_Source\PSoC4/CapSense_CSHL.c **** *
 723:.\Generated_Source\PSoC4/CapSense_CSHL.c **** * Summary:
 724:.\Generated_Source\PSoC4/CapSense_CSHL.c **** *  This function returns the Sensor Signal from the component.
 725:.\Generated_Source\PSoC4/CapSense_CSHL.c **** *
 726:.\Generated_Source\PSoC4/CapSense_CSHL.c **** * Parameters:
 727:.\Generated_Source\PSoC4/CapSense_CSHL.c **** *  sensor:  Sensor number.
 728:.\Generated_Source\PSoC4/CapSense_CSHL.c **** *
 729:.\Generated_Source\PSoC4/CapSense_CSHL.c **** * Return:
 730:.\Generated_Source\PSoC4/CapSense_CSHL.c **** *  This API returns the difference count value of the sensor indicated by the 
 731:.\Generated_Source\PSoC4/CapSense_CSHL.c **** *  argument. 
 732:.\Generated_Source\PSoC4/CapSense_CSHL.c **** *
 733:.\Generated_Source\PSoC4/CapSense_CSHL.c **** * Global Variables:
 734:.\Generated_Source\PSoC4/CapSense_CSHL.c **** *  CapSense_sensorSignal[] - the array with difference counts for sensors
 735:.\Generated_Source\PSoC4/CapSense_CSHL.c **** * 
 736:.\Generated_Source\PSoC4/CapSense_CSHL.c **** * Side Effects:
 737:.\Generated_Source\PSoC4/CapSense_CSHL.c **** *  None
 738:.\Generated_Source\PSoC4/CapSense_CSHL.c **** *
 739:.\Generated_Source\PSoC4/CapSense_CSHL.c **** *******************************************************************************/
 740:.\Generated_Source\PSoC4/CapSense_CSHL.c **** uint8 CapSense_GetDiffCountData(uint32 sensor)
 741:.\Generated_Source\PSoC4/CapSense_CSHL.c **** {
 921              		.loc 1 741 0
 922              		.cfi_startproc
 923 0000 80B5     		push	{r7, lr}
 924              		.cfi_def_cfa_offset 8
 925              		.cfi_offset 7, -8
 926              		.cfi_offset 14, -4
 927 0002 82B0     		sub	sp, sp, #8
 928              		.cfi_def_cfa_offset 16
 929 0004 00AF     		add	r7, sp, #0
 930              		.cfi_def_cfa_register 7
 931 0006 7860     		str	r0, [r7, #4]
 742:.\Generated_Source\PSoC4/CapSense_CSHL.c **** 	return (CapSense_sensorSignal[sensor]);
 932              		.loc 1 742 0
 933 0008 034A     		ldr	r2, .L53
 934 000a 7B68     		ldr	r3, [r7, #4]
 935 000c D318     		add	r3, r2, r3
 936 000e 1B78     		ldrb	r3, [r3]
 743:.\Generated_Source\PSoC4/CapSense_CSHL.c **** }
 937              		.loc 1 743 0
 938 0010 181C     		mov	r0, r3
 939 0012 BD46     		mov	sp, r7
 940 0014 02B0     		add	sp, sp, #8
 941              		@ sp needed
 942 0016 80BD     		pop	{r7, pc}
 943              	.L54:
 944              		.align	2
 945              	.L53:
 946 0018 00000000 		.word	CapSense_sensorSignal
 947              		.cfi_endproc
 948              	.LFE45:
 949              		.size	CapSense_GetDiffCountData, .-CapSense_GetDiffCountData
 950              		.section	.text.CapSense_SetDiffCountData,"ax",%progbits
 951              		.align	2
 952              		.global	CapSense_SetDiffCountData
 953              		.code	16
 954              		.thumb_func
ARM GAS  C:\Users\jsing\AppData\Local\Temp\ccHQxQnh.s 			page 31


 955              		.type	CapSense_SetDiffCountData, %function
 956              	CapSense_SetDiffCountData:
 957              	.LFB46:
 744:.\Generated_Source\PSoC4/CapSense_CSHL.c **** 
 745:.\Generated_Source\PSoC4/CapSense_CSHL.c **** 
 746:.\Generated_Source\PSoC4/CapSense_CSHL.c **** /*******************************************************************************
 747:.\Generated_Source\PSoC4/CapSense_CSHL.c **** * Function Name: CapSense_SetDiffCountData
 748:.\Generated_Source\PSoC4/CapSense_CSHL.c **** ********************************************************************************
 749:.\Generated_Source\PSoC4/CapSense_CSHL.c **** *
 750:.\Generated_Source\PSoC4/CapSense_CSHL.c **** * Summary:
 751:.\Generated_Source\PSoC4/CapSense_CSHL.c **** *  This API writes the data value passed as an argument to the sensor signal array.
 752:.\Generated_Source\PSoC4/CapSense_CSHL.c **** *
 753:.\Generated_Source\PSoC4/CapSense_CSHL.c **** * Parameters:
 754:.\Generated_Source\PSoC4/CapSense_CSHL.c **** *  sensor:  Sensor number.
 755:.\Generated_Source\PSoC4/CapSense_CSHL.c **** *  value:   Sensor signal.
 756:.\Generated_Source\PSoC4/CapSense_CSHL.c **** *
 757:.\Generated_Source\PSoC4/CapSense_CSHL.c **** * Return:
 758:.\Generated_Source\PSoC4/CapSense_CSHL.c **** *  None. 
 759:.\Generated_Source\PSoC4/CapSense_CSHL.c **** *
 760:.\Generated_Source\PSoC4/CapSense_CSHL.c **** * Global Variables:
 761:.\Generated_Source\PSoC4/CapSense_CSHL.c **** *  CapSense_sensorSignal[] - the array with difference counts for sensors
 762:.\Generated_Source\PSoC4/CapSense_CSHL.c **** * 
 763:.\Generated_Source\PSoC4/CapSense_CSHL.c **** * Side Effects:
 764:.\Generated_Source\PSoC4/CapSense_CSHL.c **** *  None
 765:.\Generated_Source\PSoC4/CapSense_CSHL.c **** *
 766:.\Generated_Source\PSoC4/CapSense_CSHL.c **** *******************************************************************************/
 767:.\Generated_Source\PSoC4/CapSense_CSHL.c **** void CapSense_SetDiffCountData(uint32 sensor, uint8 value)
 768:.\Generated_Source\PSoC4/CapSense_CSHL.c **** {
 958              		.loc 1 768 0
 959              		.cfi_startproc
 960 0000 80B5     		push	{r7, lr}
 961              		.cfi_def_cfa_offset 8
 962              		.cfi_offset 7, -8
 963              		.cfi_offset 14, -4
 964 0002 82B0     		sub	sp, sp, #8
 965              		.cfi_def_cfa_offset 16
 966 0004 00AF     		add	r7, sp, #0
 967              		.cfi_def_cfa_register 7
 968 0006 7860     		str	r0, [r7, #4]
 969 0008 0A1C     		mov	r2, r1
 970 000a FB1C     		add	r3, r7, #3
 971 000c 1A70     		strb	r2, [r3]
 769:.\Generated_Source\PSoC4/CapSense_CSHL.c ****     CapSense_sensorSignal[sensor] = value;
 972              		.loc 1 769 0
 973 000e 044A     		ldr	r2, .L56
 974 0010 7B68     		ldr	r3, [r7, #4]
 975 0012 D318     		add	r3, r2, r3
 976 0014 FA1C     		add	r2, r7, #3
 977 0016 1278     		ldrb	r2, [r2]
 978 0018 1A70     		strb	r2, [r3]
 770:.\Generated_Source\PSoC4/CapSense_CSHL.c **** }
 979              		.loc 1 770 0
 980 001a BD46     		mov	sp, r7
 981 001c 02B0     		add	sp, sp, #8
 982              		@ sp needed
 983 001e 80BD     		pop	{r7, pc}
 984              	.L57:
ARM GAS  C:\Users\jsing\AppData\Local\Temp\ccHQxQnh.s 			page 32


 985              		.align	2
 986              	.L56:
 987 0020 00000000 		.word	CapSense_sensorSignal
 988              		.cfi_endproc
 989              	.LFE46:
 990              		.size	CapSense_SetDiffCountData, .-CapSense_SetDiffCountData
 991              		.section	.text.CapSense_GetFingerThreshold,"ax",%progbits
 992              		.align	2
 993              		.global	CapSense_GetFingerThreshold
 994              		.code	16
 995              		.thumb_func
 996              		.type	CapSense_GetFingerThreshold, %function
 997              	CapSense_GetFingerThreshold:
 998              	.LFB47:
 771:.\Generated_Source\PSoC4/CapSense_CSHL.c **** 
 772:.\Generated_Source\PSoC4/CapSense_CSHL.c **** 
 773:.\Generated_Source\PSoC4/CapSense_CSHL.c **** /*******************************************************************************
 774:.\Generated_Source\PSoC4/CapSense_CSHL.c **** * Function Name: CapSense_GetFingerThreshold
 775:.\Generated_Source\PSoC4/CapSense_CSHL.c **** ********************************************************************************
 776:.\Generated_Source\PSoC4/CapSense_CSHL.c **** *
 777:.\Generated_Source\PSoC4/CapSense_CSHL.c **** * Summary:
 778:.\Generated_Source\PSoC4/CapSense_CSHL.c **** *  This function reads the finger threshold from the component.
 779:.\Generated_Source\PSoC4/CapSense_CSHL.c **** *
 780:.\Generated_Source\PSoC4/CapSense_CSHL.c **** * Parameters:
 781:.\Generated_Source\PSoC4/CapSense_CSHL.c **** *  widget:  widget number.
 782:.\Generated_Source\PSoC4/CapSense_CSHL.c **** *
 783:.\Generated_Source\PSoC4/CapSense_CSHL.c **** * Return:
 784:.\Generated_Source\PSoC4/CapSense_CSHL.c **** *  This API returns the finger threshold of the widget indicated by the argument. 
 785:.\Generated_Source\PSoC4/CapSense_CSHL.c **** *
 786:.\Generated_Source\PSoC4/CapSense_CSHL.c **** * Global Variables:
 787:.\Generated_Source\PSoC4/CapSense_CSHL.c **** *  CapSense_fingerThreshold[] - This array contains the level of signal 
 788:.\Generated_Source\PSoC4/CapSense_CSHL.c **** *  for each widget that is determined if a finger is present on the widget.
 789:.\Generated_Source\PSoC4/CapSense_CSHL.c **** *
 790:.\Generated_Source\PSoC4/CapSense_CSHL.c **** * Side Effects:
 791:.\Generated_Source\PSoC4/CapSense_CSHL.c **** *  None
 792:.\Generated_Source\PSoC4/CapSense_CSHL.c **** *
 793:.\Generated_Source\PSoC4/CapSense_CSHL.c **** *******************************************************************************/
 794:.\Generated_Source\PSoC4/CapSense_CSHL.c **** uint8 CapSense_GetFingerThreshold(uint32 widget)
 795:.\Generated_Source\PSoC4/CapSense_CSHL.c **** {
 999              		.loc 1 795 0
 1000              		.cfi_startproc
 1001 0000 80B5     		push	{r7, lr}
 1002              		.cfi_def_cfa_offset 8
 1003              		.cfi_offset 7, -8
 1004              		.cfi_offset 14, -4
 1005 0002 82B0     		sub	sp, sp, #8
 1006              		.cfi_def_cfa_offset 16
 1007 0004 00AF     		add	r7, sp, #0
 1008              		.cfi_def_cfa_register 7
 1009 0006 7860     		str	r0, [r7, #4]
 796:.\Generated_Source\PSoC4/CapSense_CSHL.c **** 	return(CapSense_fingerThreshold[widget]);
 1010              		.loc 1 796 0
 1011 0008 034A     		ldr	r2, .L60
 1012 000a 7B68     		ldr	r3, [r7, #4]
 1013 000c D318     		add	r3, r2, r3
 1014 000e 1B78     		ldrb	r3, [r3]
 797:.\Generated_Source\PSoC4/CapSense_CSHL.c **** }
ARM GAS  C:\Users\jsing\AppData\Local\Temp\ccHQxQnh.s 			page 33


 1015              		.loc 1 797 0
 1016 0010 181C     		mov	r0, r3
 1017 0012 BD46     		mov	sp, r7
 1018 0014 02B0     		add	sp, sp, #8
 1019              		@ sp needed
 1020 0016 80BD     		pop	{r7, pc}
 1021              	.L61:
 1022              		.align	2
 1023              	.L60:
 1024 0018 00000000 		.word	CapSense_fingerThreshold
 1025              		.cfi_endproc
 1026              	.LFE47:
 1027              		.size	CapSense_GetFingerThreshold, .-CapSense_GetFingerThreshold
 1028              		.section	.text.CapSense_GetNoiseThreshold,"ax",%progbits
 1029              		.align	2
 1030              		.global	CapSense_GetNoiseThreshold
 1031              		.code	16
 1032              		.thumb_func
 1033              		.type	CapSense_GetNoiseThreshold, %function
 1034              	CapSense_GetNoiseThreshold:
 1035              	.LFB48:
 798:.\Generated_Source\PSoC4/CapSense_CSHL.c **** 
 799:.\Generated_Source\PSoC4/CapSense_CSHL.c **** 
 800:.\Generated_Source\PSoC4/CapSense_CSHL.c **** /*******************************************************************************
 801:.\Generated_Source\PSoC4/CapSense_CSHL.c **** * Function Name: CapSense_GetNoiseThreshold
 802:.\Generated_Source\PSoC4/CapSense_CSHL.c **** ********************************************************************************
 803:.\Generated_Source\PSoC4/CapSense_CSHL.c **** *
 804:.\Generated_Source\PSoC4/CapSense_CSHL.c **** * Summary:
 805:.\Generated_Source\PSoC4/CapSense_CSHL.c **** *  This function reads the noise threshold from the component.
 806:.\Generated_Source\PSoC4/CapSense_CSHL.c **** *
 807:.\Generated_Source\PSoC4/CapSense_CSHL.c **** * Parameters:
 808:.\Generated_Source\PSoC4/CapSense_CSHL.c **** *  widget:  widget number.
 809:.\Generated_Source\PSoC4/CapSense_CSHL.c **** *
 810:.\Generated_Source\PSoC4/CapSense_CSHL.c **** * Return:
 811:.\Generated_Source\PSoC4/CapSense_CSHL.c **** *  This API returns the noise threshold of the widget indicated by the argument. 
 812:.\Generated_Source\PSoC4/CapSense_CSHL.c **** *
 813:.\Generated_Source\PSoC4/CapSense_CSHL.c **** * Global Variables:
 814:.\Generated_Source\PSoC4/CapSense_CSHL.c **** *  CapSense_noiseThreshold[] - This array contains the level of signal 
 815:.\Generated_Source\PSoC4/CapSense_CSHL.c **** *  for each widget that determines the level of noise in the capacitive scan.
 816:.\Generated_Source\PSoC4/CapSense_CSHL.c **** * 
 817:.\Generated_Source\PSoC4/CapSense_CSHL.c **** * Side Effects:
 818:.\Generated_Source\PSoC4/CapSense_CSHL.c **** *  None
 819:.\Generated_Source\PSoC4/CapSense_CSHL.c **** *
 820:.\Generated_Source\PSoC4/CapSense_CSHL.c **** *******************************************************************************/
 821:.\Generated_Source\PSoC4/CapSense_CSHL.c **** uint8 CapSense_GetNoiseThreshold(uint32 widget)
 822:.\Generated_Source\PSoC4/CapSense_CSHL.c **** {
 1036              		.loc 1 822 0
 1037              		.cfi_startproc
 1038 0000 80B5     		push	{r7, lr}
 1039              		.cfi_def_cfa_offset 8
 1040              		.cfi_offset 7, -8
 1041              		.cfi_offset 14, -4
 1042 0002 82B0     		sub	sp, sp, #8
 1043              		.cfi_def_cfa_offset 16
 1044 0004 00AF     		add	r7, sp, #0
 1045              		.cfi_def_cfa_register 7
 1046 0006 7860     		str	r0, [r7, #4]
ARM GAS  C:\Users\jsing\AppData\Local\Temp\ccHQxQnh.s 			page 34


 823:.\Generated_Source\PSoC4/CapSense_CSHL.c **** 	return (CapSense_noiseThreshold[widget]);
 1047              		.loc 1 823 0
 1048 0008 034A     		ldr	r2, .L64
 1049 000a 7B68     		ldr	r3, [r7, #4]
 1050 000c D318     		add	r3, r2, r3
 1051 000e 1B78     		ldrb	r3, [r3]
 824:.\Generated_Source\PSoC4/CapSense_CSHL.c **** }
 1052              		.loc 1 824 0
 1053 0010 181C     		mov	r0, r3
 1054 0012 BD46     		mov	sp, r7
 1055 0014 02B0     		add	sp, sp, #8
 1056              		@ sp needed
 1057 0016 80BD     		pop	{r7, pc}
 1058              	.L65:
 1059              		.align	2
 1060              	.L64:
 1061 0018 00000000 		.word	CapSense_noiseThreshold
 1062              		.cfi_endproc
 1063              	.LFE48:
 1064              		.size	CapSense_GetNoiseThreshold, .-CapSense_GetNoiseThreshold
 1065              		.section	.text.CapSense_GetFingerHysteresis,"ax",%progbits
 1066              		.align	2
 1067              		.global	CapSense_GetFingerHysteresis
 1068              		.code	16
 1069              		.thumb_func
 1070              		.type	CapSense_GetFingerHysteresis, %function
 1071              	CapSense_GetFingerHysteresis:
 1072              	.LFB49:
 825:.\Generated_Source\PSoC4/CapSense_CSHL.c **** 
 826:.\Generated_Source\PSoC4/CapSense_CSHL.c **** 
 827:.\Generated_Source\PSoC4/CapSense_CSHL.c **** /*******************************************************************************
 828:.\Generated_Source\PSoC4/CapSense_CSHL.c **** * Function Name: CapSense_GetFingerHysteresis
 829:.\Generated_Source\PSoC4/CapSense_CSHL.c **** ********************************************************************************
 830:.\Generated_Source\PSoC4/CapSense_CSHL.c **** *
 831:.\Generated_Source\PSoC4/CapSense_CSHL.c **** * Summary:
 832:.\Generated_Source\PSoC4/CapSense_CSHL.c **** *  This function reads the Hysteresis value from the component.
 833:.\Generated_Source\PSoC4/CapSense_CSHL.c **** *
 834:.\Generated_Source\PSoC4/CapSense_CSHL.c **** * Parameters:
 835:.\Generated_Source\PSoC4/CapSense_CSHL.c **** *  widget:  widget number.
 836:.\Generated_Source\PSoC4/CapSense_CSHL.c **** *
 837:.\Generated_Source\PSoC4/CapSense_CSHL.c **** * Return:
 838:.\Generated_Source\PSoC4/CapSense_CSHL.c **** *  This API returns the Hysteresis of the widget indicated by the argument. 
 839:.\Generated_Source\PSoC4/CapSense_CSHL.c **** *
 840:.\Generated_Source\PSoC4/CapSense_CSHL.c **** * Global Variables:
 841:.\Generated_Source\PSoC4/CapSense_CSHL.c **** *  CapSense_hysteresis[] - This array contains the hysteresis value 
 842:.\Generated_Source\PSoC4/CapSense_CSHL.c **** *   for each widget.
 843:.\Generated_Source\PSoC4/CapSense_CSHL.c **** *  CapSense_widgetNumberSld - structure with dynamic sliders' parameters.
 844:.\Generated_Source\PSoC4/CapSense_CSHL.c **** *
 845:.\Generated_Source\PSoC4/CapSense_CSHL.c **** * Side Effects:
 846:.\Generated_Source\PSoC4/CapSense_CSHL.c **** *  None
 847:.\Generated_Source\PSoC4/CapSense_CSHL.c **** *
 848:.\Generated_Source\PSoC4/CapSense_CSHL.c **** *******************************************************************************/
 849:.\Generated_Source\PSoC4/CapSense_CSHL.c **** uint8 CapSense_GetFingerHysteresis(uint32 widget)
 850:.\Generated_Source\PSoC4/CapSense_CSHL.c **** {
 1073              		.loc 1 850 0
 1074              		.cfi_startproc
 1075 0000 80B5     		push	{r7, lr}
ARM GAS  C:\Users\jsing\AppData\Local\Temp\ccHQxQnh.s 			page 35


 1076              		.cfi_def_cfa_offset 8
 1077              		.cfi_offset 7, -8
 1078              		.cfi_offset 14, -4
 1079 0002 82B0     		sub	sp, sp, #8
 1080              		.cfi_def_cfa_offset 16
 1081 0004 00AF     		add	r7, sp, #0
 1082              		.cfi_def_cfa_register 7
 1083 0006 7860     		str	r0, [r7, #4]
 851:.\Generated_Source\PSoC4/CapSense_CSHL.c **** 	return(CapSense_hysteresis[widget]);
 1084              		.loc 1 851 0
 1085 0008 034A     		ldr	r2, .L68
 1086 000a 7B68     		ldr	r3, [r7, #4]
 1087 000c D318     		add	r3, r2, r3
 1088 000e 1B78     		ldrb	r3, [r3]
 852:.\Generated_Source\PSoC4/CapSense_CSHL.c **** }
 1089              		.loc 1 852 0
 1090 0010 181C     		mov	r0, r3
 1091 0012 BD46     		mov	sp, r7
 1092 0014 02B0     		add	sp, sp, #8
 1093              		@ sp needed
 1094 0016 80BD     		pop	{r7, pc}
 1095              	.L69:
 1096              		.align	2
 1097              	.L68:
 1098 0018 00000000 		.word	CapSense_hysteresis
 1099              		.cfi_endproc
 1100              	.LFE49:
 1101              		.size	CapSense_GetFingerHysteresis, .-CapSense_GetFingerHysteresis
 1102              		.section	.text.CapSense_GetNegativeNoiseThreshold,"ax",%progbits
 1103              		.align	2
 1104              		.global	CapSense_GetNegativeNoiseThreshold
 1105              		.code	16
 1106              		.thumb_func
 1107              		.type	CapSense_GetNegativeNoiseThreshold, %function
 1108              	CapSense_GetNegativeNoiseThreshold:
 1109              	.LFB50:
 853:.\Generated_Source\PSoC4/CapSense_CSHL.c **** 
 854:.\Generated_Source\PSoC4/CapSense_CSHL.c **** 
 855:.\Generated_Source\PSoC4/CapSense_CSHL.c **** /*******************************************************************************
 856:.\Generated_Source\PSoC4/CapSense_CSHL.c **** * Function Name: CapSense_GetNegativeNoiseThreshold
 857:.\Generated_Source\PSoC4/CapSense_CSHL.c **** ********************************************************************************
 858:.\Generated_Source\PSoC4/CapSense_CSHL.c **** *
 859:.\Generated_Source\PSoC4/CapSense_CSHL.c **** * Summary:
 860:.\Generated_Source\PSoC4/CapSense_CSHL.c **** *  This function reads the negative noise threshold from the component.
 861:.\Generated_Source\PSoC4/CapSense_CSHL.c **** *
 862:.\Generated_Source\PSoC4/CapSense_CSHL.c **** * Parameters: 
 863:.\Generated_Source\PSoC4/CapSense_CSHL.c **** *  None.
 864:.\Generated_Source\PSoC4/CapSense_CSHL.c **** *
 865:.\Generated_Source\PSoC4/CapSense_CSHL.c **** * Return Value: 
 866:.\Generated_Source\PSoC4/CapSense_CSHL.c **** *  This API returns the negative noise threshold
 867:.\Generated_Source\PSoC4/CapSense_CSHL.c **** *
 868:.\Generated_Source\PSoC4/CapSense_CSHL.c **** * Global Variables:
 869:.\Generated_Source\PSoC4/CapSense_CSHL.c **** *  CapSense_negativeNoiseThreshold - This variable specifies the negative 
 870:.\Generated_Source\PSoC4/CapSense_CSHL.c **** *   difference between the raw count and baseline levels for Baseline resetting
 871:.\Generated_Source\PSoC4/CapSense_CSHL.c **** *   to the raw count level.
 872:.\Generated_Source\PSoC4/CapSense_CSHL.c **** * 
 873:.\Generated_Source\PSoC4/CapSense_CSHL.c **** * Side Effects:
ARM GAS  C:\Users\jsing\AppData\Local\Temp\ccHQxQnh.s 			page 36


 874:.\Generated_Source\PSoC4/CapSense_CSHL.c **** *  None
 875:.\Generated_Source\PSoC4/CapSense_CSHL.c **** *
 876:.\Generated_Source\PSoC4/CapSense_CSHL.c **** *******************************************************************************/
 877:.\Generated_Source\PSoC4/CapSense_CSHL.c **** uint8 CapSense_GetNegativeNoiseThreshold(uint32 widget)
 878:.\Generated_Source\PSoC4/CapSense_CSHL.c **** {
 1110              		.loc 1 878 0
 1111              		.cfi_startproc
 1112 0000 80B5     		push	{r7, lr}
 1113              		.cfi_def_cfa_offset 8
 1114              		.cfi_offset 7, -8
 1115              		.cfi_offset 14, -4
 1116 0002 82B0     		sub	sp, sp, #8
 1117              		.cfi_def_cfa_offset 16
 1118 0004 00AF     		add	r7, sp, #0
 1119              		.cfi_def_cfa_register 7
 1120 0006 7860     		str	r0, [r7, #4]
 879:.\Generated_Source\PSoC4/CapSense_CSHL.c **** #if (CapSense_TUNING_METHOD != CapSense__TUNING_NONE)
 880:.\Generated_Source\PSoC4/CapSense_CSHL.c **** 	return(CapSense_negativeNoiseThreshold[widget]);
 1121              		.loc 1 880 0
 1122 0008 034A     		ldr	r2, .L72
 1123 000a 7B68     		ldr	r3, [r7, #4]
 1124 000c D318     		add	r3, r2, r3
 1125 000e 1B78     		ldrb	r3, [r3]
 881:.\Generated_Source\PSoC4/CapSense_CSHL.c **** #else
 882:.\Generated_Source\PSoC4/CapSense_CSHL.c **** 	return(CapSense_NEGATIVE_NOISE_THRESHOLD);
 883:.\Generated_Source\PSoC4/CapSense_CSHL.c **** #endif /* (CapSense_TUNING_METHOD != CapSense__TUNING_NONE) */ 
 884:.\Generated_Source\PSoC4/CapSense_CSHL.c **** }
 1126              		.loc 1 884 0
 1127 0010 181C     		mov	r0, r3
 1128 0012 BD46     		mov	sp, r7
 1129 0014 02B0     		add	sp, sp, #8
 1130              		@ sp needed
 1131 0016 80BD     		pop	{r7, pc}
 1132              	.L73:
 1133              		.align	2
 1134              	.L72:
 1135 0018 00000000 		.word	CapSense_negativeNoiseThreshold
 1136              		.cfi_endproc
 1137              	.LFE50:
 1138              		.size	CapSense_GetNegativeNoiseThreshold, .-CapSense_GetNegativeNoiseThreshold
 1139              		.section	.text.CapSense_SetFingerThreshold,"ax",%progbits
 1140              		.align	2
 1141              		.global	CapSense_SetFingerThreshold
 1142              		.code	16
 1143              		.thumb_func
 1144              		.type	CapSense_SetFingerThreshold, %function
 1145              	CapSense_SetFingerThreshold:
 1146              	.LFB51:
 885:.\Generated_Source\PSoC4/CapSense_CSHL.c **** 
 886:.\Generated_Source\PSoC4/CapSense_CSHL.c **** 
 887:.\Generated_Source\PSoC4/CapSense_CSHL.c **** #if(CapSense_TUNING_METHOD != CapSense__TUNING_NONE)
 888:.\Generated_Source\PSoC4/CapSense_CSHL.c **** 	/*******************************************************************************
 889:.\Generated_Source\PSoC4/CapSense_CSHL.c **** 	* Function Name: CapSense_SetFingerThreshold
 890:.\Generated_Source\PSoC4/CapSense_CSHL.c **** 	********************************************************************************
 891:.\Generated_Source\PSoC4/CapSense_CSHL.c **** 	*
 892:.\Generated_Source\PSoC4/CapSense_CSHL.c **** 	* Summary:
 893:.\Generated_Source\PSoC4/CapSense_CSHL.c **** 	*  This API sets the finger threshold value for a widget. 
ARM GAS  C:\Users\jsing\AppData\Local\Temp\ccHQxQnh.s 			page 37


 894:.\Generated_Source\PSoC4/CapSense_CSHL.c **** 	*
 895:.\Generated_Source\PSoC4/CapSense_CSHL.c **** 	* Parameters: 
 896:.\Generated_Source\PSoC4/CapSense_CSHL.c **** 	*  sensorNumber:  widget index. 
 897:.\Generated_Source\PSoC4/CapSense_CSHL.c **** 	*  value:  Finger threshold value for the widget.
 898:.\Generated_Source\PSoC4/CapSense_CSHL.c **** 	*
 899:.\Generated_Source\PSoC4/CapSense_CSHL.c **** 	* Return Value: 
 900:.\Generated_Source\PSoC4/CapSense_CSHL.c **** 	*  None
 901:.\Generated_Source\PSoC4/CapSense_CSHL.c **** 	*
 902:.\Generated_Source\PSoC4/CapSense_CSHL.c **** 	* Global Variables:
 903:.\Generated_Source\PSoC4/CapSense_CSHL.c **** 	*  CapSense_fingerThreshold[] - This array contains the level of signal 
 904:.\Generated_Source\PSoC4/CapSense_CSHL.c **** 	*   for each widget that determines if a finger is present on the widget.
 905:.\Generated_Source\PSoC4/CapSense_CSHL.c **** 	* 
 906:.\Generated_Source\PSoC4/CapSense_CSHL.c **** 	* Side Effects:
 907:.\Generated_Source\PSoC4/CapSense_CSHL.c **** 	*  None
 908:.\Generated_Source\PSoC4/CapSense_CSHL.c **** 	*
 909:.\Generated_Source\PSoC4/CapSense_CSHL.c **** 	*******************************************************************************/
 910:.\Generated_Source\PSoC4/CapSense_CSHL.c **** 	void CapSense_SetFingerThreshold(uint32 widget, uint8 value)
 911:.\Generated_Source\PSoC4/CapSense_CSHL.c **** 	{	
 1147              		.loc 1 911 0
 1148              		.cfi_startproc
 1149 0000 80B5     		push	{r7, lr}
 1150              		.cfi_def_cfa_offset 8
 1151              		.cfi_offset 7, -8
 1152              		.cfi_offset 14, -4
 1153 0002 82B0     		sub	sp, sp, #8
 1154              		.cfi_def_cfa_offset 16
 1155 0004 00AF     		add	r7, sp, #0
 1156              		.cfi_def_cfa_register 7
 1157 0006 7860     		str	r0, [r7, #4]
 1158 0008 0A1C     		mov	r2, r1
 1159 000a FB1C     		add	r3, r7, #3
 1160 000c 1A70     		strb	r2, [r3]
 912:.\Generated_Source\PSoC4/CapSense_CSHL.c **** 		CapSense_fingerThreshold[widget] = value;
 1161              		.loc 1 912 0
 1162 000e 044A     		ldr	r2, .L75
 1163 0010 7B68     		ldr	r3, [r7, #4]
 1164 0012 D318     		add	r3, r2, r3
 1165 0014 FA1C     		add	r2, r7, #3
 1166 0016 1278     		ldrb	r2, [r2]
 1167 0018 1A70     		strb	r2, [r3]
 913:.\Generated_Source\PSoC4/CapSense_CSHL.c **** 	}
 1168              		.loc 1 913 0
 1169 001a BD46     		mov	sp, r7
 1170 001c 02B0     		add	sp, sp, #8
 1171              		@ sp needed
 1172 001e 80BD     		pop	{r7, pc}
 1173              	.L76:
 1174              		.align	2
 1175              	.L75:
 1176 0020 00000000 		.word	CapSense_fingerThreshold
 1177              		.cfi_endproc
 1178              	.LFE51:
 1179              		.size	CapSense_SetFingerThreshold, .-CapSense_SetFingerThreshold
 1180              		.section	.text.CapSense_SetNoiseThreshold,"ax",%progbits
 1181              		.align	2
 1182              		.global	CapSense_SetNoiseThreshold
 1183              		.code	16
ARM GAS  C:\Users\jsing\AppData\Local\Temp\ccHQxQnh.s 			page 38


 1184              		.thumb_func
 1185              		.type	CapSense_SetNoiseThreshold, %function
 1186              	CapSense_SetNoiseThreshold:
 1187              	.LFB52:
 914:.\Generated_Source\PSoC4/CapSense_CSHL.c **** 
 915:.\Generated_Source\PSoC4/CapSense_CSHL.c **** 
 916:.\Generated_Source\PSoC4/CapSense_CSHL.c **** 	/*******************************************************************************
 917:.\Generated_Source\PSoC4/CapSense_CSHL.c **** 	* Function Name: CapSense_SetNoiseThreshold
 918:.\Generated_Source\PSoC4/CapSense_CSHL.c **** 	********************************************************************************
 919:.\Generated_Source\PSoC4/CapSense_CSHL.c **** 	*
 920:.\Generated_Source\PSoC4/CapSense_CSHL.c **** 	* Summary:
 921:.\Generated_Source\PSoC4/CapSense_CSHL.c **** 	*  This API sets the Noise Threshold value for each widget.
 922:.\Generated_Source\PSoC4/CapSense_CSHL.c **** 	*
 923:.\Generated_Source\PSoC4/CapSense_CSHL.c **** 	* Parameters:
 924:.\Generated_Source\PSoC4/CapSense_CSHL.c **** 	*  widget:  Sensor index number.
 925:.\Generated_Source\PSoC4/CapSense_CSHL.c **** 	*  value:   Noise Threshold value for widget.
 926:.\Generated_Source\PSoC4/CapSense_CSHL.c **** 	*
 927:.\Generated_Source\PSoC4/CapSense_CSHL.c **** 	* Return Value: 
 928:.\Generated_Source\PSoC4/CapSense_CSHL.c **** 	*  None
 929:.\Generated_Source\PSoC4/CapSense_CSHL.c **** 	*
 930:.\Generated_Source\PSoC4/CapSense_CSHL.c **** 	* Global Variables:
 931:.\Generated_Source\PSoC4/CapSense_CSHL.c **** 	*  CapSense_noiseThreshold[] - This array contains the level of signal 
 932:.\Generated_Source\PSoC4/CapSense_CSHL.c **** 	*   for each widget that determines the level of noise in the capacitive scan.
 933:.\Generated_Source\PSoC4/CapSense_CSHL.c **** 	* 
 934:.\Generated_Source\PSoC4/CapSense_CSHL.c **** 	* Side Effects:
 935:.\Generated_Source\PSoC4/CapSense_CSHL.c **** 	*  None
 936:.\Generated_Source\PSoC4/CapSense_CSHL.c **** 	*
 937:.\Generated_Source\PSoC4/CapSense_CSHL.c **** 	*******************************************************************************/
 938:.\Generated_Source\PSoC4/CapSense_CSHL.c **** 	void CapSense_SetNoiseThreshold(uint32 widget, uint8 value)
 939:.\Generated_Source\PSoC4/CapSense_CSHL.c **** 	{
 1188              		.loc 1 939 0
 1189              		.cfi_startproc
 1190 0000 80B5     		push	{r7, lr}
 1191              		.cfi_def_cfa_offset 8
 1192              		.cfi_offset 7, -8
 1193              		.cfi_offset 14, -4
 1194 0002 82B0     		sub	sp, sp, #8
 1195              		.cfi_def_cfa_offset 16
 1196 0004 00AF     		add	r7, sp, #0
 1197              		.cfi_def_cfa_register 7
 1198 0006 7860     		str	r0, [r7, #4]
 1199 0008 0A1C     		mov	r2, r1
 1200 000a FB1C     		add	r3, r7, #3
 1201 000c 1A70     		strb	r2, [r3]
 940:.\Generated_Source\PSoC4/CapSense_CSHL.c **** 		CapSense_noiseThreshold[widget] = value;
 1202              		.loc 1 940 0
 1203 000e 044A     		ldr	r2, .L78
 1204 0010 7B68     		ldr	r3, [r7, #4]
 1205 0012 D318     		add	r3, r2, r3
 1206 0014 FA1C     		add	r2, r7, #3
 1207 0016 1278     		ldrb	r2, [r2]
 1208 0018 1A70     		strb	r2, [r3]
 941:.\Generated_Source\PSoC4/CapSense_CSHL.c **** 	}
 1209              		.loc 1 941 0
 1210 001a BD46     		mov	sp, r7
 1211 001c 02B0     		add	sp, sp, #8
 1212              		@ sp needed
ARM GAS  C:\Users\jsing\AppData\Local\Temp\ccHQxQnh.s 			page 39


 1213 001e 80BD     		pop	{r7, pc}
 1214              	.L79:
 1215              		.align	2
 1216              	.L78:
 1217 0020 00000000 		.word	CapSense_noiseThreshold
 1218              		.cfi_endproc
 1219              	.LFE52:
 1220              		.size	CapSense_SetNoiseThreshold, .-CapSense_SetNoiseThreshold
 1221              		.section	.text.CapSense_SetFingerHysteresis,"ax",%progbits
 1222              		.align	2
 1223              		.global	CapSense_SetFingerHysteresis
 1224              		.code	16
 1225              		.thumb_func
 1226              		.type	CapSense_SetFingerHysteresis, %function
 1227              	CapSense_SetFingerHysteresis:
 1228              	.LFB53:
 942:.\Generated_Source\PSoC4/CapSense_CSHL.c **** 
 943:.\Generated_Source\PSoC4/CapSense_CSHL.c **** 
 944:.\Generated_Source\PSoC4/CapSense_CSHL.c **** 	/*******************************************************************************
 945:.\Generated_Source\PSoC4/CapSense_CSHL.c **** 	* Function Name: CapSense_SetFingerHysteresis
 946:.\Generated_Source\PSoC4/CapSense_CSHL.c **** 	********************************************************************************
 947:.\Generated_Source\PSoC4/CapSense_CSHL.c **** 	*
 948:.\Generated_Source\PSoC4/CapSense_CSHL.c **** 	* Summary:
 949:.\Generated_Source\PSoC4/CapSense_CSHL.c **** 	*  This API sets the Hysteresis value of a widget
 950:.\Generated_Source\PSoC4/CapSense_CSHL.c **** 	*
 951:.\Generated_Source\PSoC4/CapSense_CSHL.c **** 	* Parameters: 
 952:.\Generated_Source\PSoC4/CapSense_CSHL.c **** 	*  value:  Hysteresis value for widgets.
 953:.\Generated_Source\PSoC4/CapSense_CSHL.c **** 	*  widget:  widget number
 954:.\Generated_Source\PSoC4/CapSense_CSHL.c **** 	*
 955:.\Generated_Source\PSoC4/CapSense_CSHL.c **** 	* Return Value: 
 956:.\Generated_Source\PSoC4/CapSense_CSHL.c **** 	*  None
 957:.\Generated_Source\PSoC4/CapSense_CSHL.c **** 	*
 958:.\Generated_Source\PSoC4/CapSense_CSHL.c **** 	* Global Variables:
 959:.\Generated_Source\PSoC4/CapSense_CSHL.c **** 	*  CapSense_hysteresis[] - This array contains the hysteresis value for each widget.
 960:.\Generated_Source\PSoC4/CapSense_CSHL.c **** 	*  CapSense_widgetNumberSld - structure with dynamic sliders' parameters.
 961:.\Generated_Source\PSoC4/CapSense_CSHL.c **** 	*
 962:.\Generated_Source\PSoC4/CapSense_CSHL.c **** 	* Side Effects:
 963:.\Generated_Source\PSoC4/CapSense_CSHL.c **** 	*  None
 964:.\Generated_Source\PSoC4/CapSense_CSHL.c **** 	*
 965:.\Generated_Source\PSoC4/CapSense_CSHL.c **** 	*******************************************************************************/
 966:.\Generated_Source\PSoC4/CapSense_CSHL.c **** 	void CapSense_SetFingerHysteresis(uint32 widget, uint8 value)
 967:.\Generated_Source\PSoC4/CapSense_CSHL.c **** 	{
 1229              		.loc 1 967 0
 1230              		.cfi_startproc
 1231 0000 80B5     		push	{r7, lr}
 1232              		.cfi_def_cfa_offset 8
 1233              		.cfi_offset 7, -8
 1234              		.cfi_offset 14, -4
 1235 0002 82B0     		sub	sp, sp, #8
 1236              		.cfi_def_cfa_offset 16
 1237 0004 00AF     		add	r7, sp, #0
 1238              		.cfi_def_cfa_register 7
 1239 0006 7860     		str	r0, [r7, #4]
 1240 0008 0A1C     		mov	r2, r1
 1241 000a FB1C     		add	r3, r7, #3
 1242 000c 1A70     		strb	r2, [r3]
 968:.\Generated_Source\PSoC4/CapSense_CSHL.c **** 		CapSense_hysteresis[widget] = value;
ARM GAS  C:\Users\jsing\AppData\Local\Temp\ccHQxQnh.s 			page 40


 1243              		.loc 1 968 0
 1244 000e 044A     		ldr	r2, .L81
 1245 0010 7B68     		ldr	r3, [r7, #4]
 1246 0012 D318     		add	r3, r2, r3
 1247 0014 FA1C     		add	r2, r7, #3
 1248 0016 1278     		ldrb	r2, [r2]
 1249 0018 1A70     		strb	r2, [r3]
 969:.\Generated_Source\PSoC4/CapSense_CSHL.c **** 	}
 1250              		.loc 1 969 0
 1251 001a BD46     		mov	sp, r7
 1252 001c 02B0     		add	sp, sp, #8
 1253              		@ sp needed
 1254 001e 80BD     		pop	{r7, pc}
 1255              	.L82:
 1256              		.align	2
 1257              	.L81:
 1258 0020 00000000 		.word	CapSense_hysteresis
 1259              		.cfi_endproc
 1260              	.LFE53:
 1261              		.size	CapSense_SetFingerHysteresis, .-CapSense_SetFingerHysteresis
 1262              		.section	.text.CapSense_SetNegativeNoiseThreshold,"ax",%progbits
 1263              		.align	2
 1264              		.global	CapSense_SetNegativeNoiseThreshold
 1265              		.code	16
 1266              		.thumb_func
 1267              		.type	CapSense_SetNegativeNoiseThreshold, %function
 1268              	CapSense_SetNegativeNoiseThreshold:
 1269              	.LFB54:
 970:.\Generated_Source\PSoC4/CapSense_CSHL.c **** 
 971:.\Generated_Source\PSoC4/CapSense_CSHL.c **** 
 972:.\Generated_Source\PSoC4/CapSense_CSHL.c **** 	/*******************************************************************************
 973:.\Generated_Source\PSoC4/CapSense_CSHL.c **** 	* Function Name: CapSense_SetNegativeNoiseThreshold
 974:.\Generated_Source\PSoC4/CapSense_CSHL.c **** 	********************************************************************************
 975:.\Generated_Source\PSoC4/CapSense_CSHL.c **** 	*
 976:.\Generated_Source\PSoC4/CapSense_CSHL.c **** 	* Summary:
 977:.\Generated_Source\PSoC4/CapSense_CSHL.c **** 	*  This API sets the Negative Noise Threshold value of a widget
 978:.\Generated_Source\PSoC4/CapSense_CSHL.c **** 	*
 979:.\Generated_Source\PSoC4/CapSense_CSHL.c **** 	* Parameters: 
 980:.\Generated_Source\PSoC4/CapSense_CSHL.c **** 	*  value:  Negative Noise Threshold value for widgets.
 981:.\Generated_Source\PSoC4/CapSense_CSHL.c **** 	*  widget: widget number
 982:.\Generated_Source\PSoC4/CapSense_CSHL.c **** 	*
 983:.\Generated_Source\PSoC4/CapSense_CSHL.c **** 	* Return Value: 
 984:.\Generated_Source\PSoC4/CapSense_CSHL.c **** 	*  None
 985:.\Generated_Source\PSoC4/CapSense_CSHL.c **** 	*
 986:.\Generated_Source\PSoC4/CapSense_CSHL.c **** 	* Global Variables:
 987:.\Generated_Source\PSoC4/CapSense_CSHL.c **** 	*  CapSense_negativeNoiseThreshold  - This parameter specifies the negative 
 988:.\Generated_Source\PSoC4/CapSense_CSHL.c **** 	*   difference between the raw count and baseline levels for Baseline resetting to 
 989:.\Generated_Source\PSoC4/CapSense_CSHL.c **** 	*   the raw count level.
 990:.\Generated_Source\PSoC4/CapSense_CSHL.c **** 	* 
 991:.\Generated_Source\PSoC4/CapSense_CSHL.c **** 	* Side Effects:
 992:.\Generated_Source\PSoC4/CapSense_CSHL.c **** 	*  None
 993:.\Generated_Source\PSoC4/CapSense_CSHL.c **** 	*
 994:.\Generated_Source\PSoC4/CapSense_CSHL.c **** 	*******************************************************************************/
 995:.\Generated_Source\PSoC4/CapSense_CSHL.c **** 	void CapSense_SetNegativeNoiseThreshold(uint32 widget, uint8 value)
 996:.\Generated_Source\PSoC4/CapSense_CSHL.c **** 	{
 1270              		.loc 1 996 0
 1271              		.cfi_startproc
ARM GAS  C:\Users\jsing\AppData\Local\Temp\ccHQxQnh.s 			page 41


 1272 0000 80B5     		push	{r7, lr}
 1273              		.cfi_def_cfa_offset 8
 1274              		.cfi_offset 7, -8
 1275              		.cfi_offset 14, -4
 1276 0002 82B0     		sub	sp, sp, #8
 1277              		.cfi_def_cfa_offset 16
 1278 0004 00AF     		add	r7, sp, #0
 1279              		.cfi_def_cfa_register 7
 1280 0006 7860     		str	r0, [r7, #4]
 1281 0008 0A1C     		mov	r2, r1
 1282 000a FB1C     		add	r3, r7, #3
 1283 000c 1A70     		strb	r2, [r3]
 997:.\Generated_Source\PSoC4/CapSense_CSHL.c **** 		CapSense_negativeNoiseThreshold[widget] = value;
 1284              		.loc 1 997 0
 1285 000e 044A     		ldr	r2, .L84
 1286 0010 7B68     		ldr	r3, [r7, #4]
 1287 0012 D318     		add	r3, r2, r3
 1288 0014 FA1C     		add	r2, r7, #3
 1289 0016 1278     		ldrb	r2, [r2]
 1290 0018 1A70     		strb	r2, [r3]
 998:.\Generated_Source\PSoC4/CapSense_CSHL.c **** 	}
 1291              		.loc 1 998 0
 1292 001a BD46     		mov	sp, r7
 1293 001c 02B0     		add	sp, sp, #8
 1294              		@ sp needed
 1295 001e 80BD     		pop	{r7, pc}
 1296              	.L85:
 1297              		.align	2
 1298              	.L84:
 1299 0020 00000000 		.word	CapSense_negativeNoiseThreshold
 1300              		.cfi_endproc
 1301              	.LFE54:
 1302              		.size	CapSense_SetNegativeNoiseThreshold, .-CapSense_SetNegativeNoiseThreshold
 1303              		.section	.text.CapSense_SetDebounce,"ax",%progbits
 1304              		.align	2
 1305              		.global	CapSense_SetDebounce
 1306              		.code	16
 1307              		.thumb_func
 1308              		.type	CapSense_SetDebounce, %function
 1309              	CapSense_SetDebounce:
 1310              	.LFB55:
 999:.\Generated_Source\PSoC4/CapSense_CSHL.c **** 
1000:.\Generated_Source\PSoC4/CapSense_CSHL.c **** 
1001:.\Generated_Source\PSoC4/CapSense_CSHL.c **** 	/*******************************************************************************
1002:.\Generated_Source\PSoC4/CapSense_CSHL.c **** 	* Function Name: CapSense_SetDebounce
1003:.\Generated_Source\PSoC4/CapSense_CSHL.c **** 	********************************************************************************
1004:.\Generated_Source\PSoC4/CapSense_CSHL.c **** 	*
1005:.\Generated_Source\PSoC4/CapSense_CSHL.c **** 	* Summary:
1006:.\Generated_Source\PSoC4/CapSense_CSHL.c **** 	*  This API sets the debounce value for a widget.
1007:.\Generated_Source\PSoC4/CapSense_CSHL.c **** 	*
1008:.\Generated_Source\PSoC4/CapSense_CSHL.c **** 	* Parameters: 
1009:.\Generated_Source\PSoC4/CapSense_CSHL.c **** 	*  value:  Debounce value for widget.
1010:.\Generated_Source\PSoC4/CapSense_CSHL.c **** 	*  widget: widget index.
1011:.\Generated_Source\PSoC4/CapSense_CSHL.c **** 	*
1012:.\Generated_Source\PSoC4/CapSense_CSHL.c **** 	* Return Value: 
1013:.\Generated_Source\PSoC4/CapSense_CSHL.c **** 	*  None
1014:.\Generated_Source\PSoC4/CapSense_CSHL.c **** 	*
ARM GAS  C:\Users\jsing\AppData\Local\Temp\ccHQxQnh.s 			page 42


1015:.\Generated_Source\PSoC4/CapSense_CSHL.c **** 	* Global Variables:
1016:.\Generated_Source\PSoC4/CapSense_CSHL.c **** 	*  CapSense_debounce[] - This array contains the debounce value for each widget.
1017:.\Generated_Source\PSoC4/CapSense_CSHL.c **** 	*  CapSense_widgetNumberSld - structure with dynamic sliders' parameters.
1018:.\Generated_Source\PSoC4/CapSense_CSHL.c **** 	*
1019:.\Generated_Source\PSoC4/CapSense_CSHL.c **** 	* Side Effects:
1020:.\Generated_Source\PSoC4/CapSense_CSHL.c **** 	*  None
1021:.\Generated_Source\PSoC4/CapSense_CSHL.c **** 	*
1022:.\Generated_Source\PSoC4/CapSense_CSHL.c **** 	*******************************************************************************/
1023:.\Generated_Source\PSoC4/CapSense_CSHL.c **** 	void CapSense_SetDebounce(uint32 widget, uint8 value)
1024:.\Generated_Source\PSoC4/CapSense_CSHL.c **** 	{
 1311              		.loc 1 1024 0
 1312              		.cfi_startproc
 1313 0000 80B5     		push	{r7, lr}
 1314              		.cfi_def_cfa_offset 8
 1315              		.cfi_offset 7, -8
 1316              		.cfi_offset 14, -4
 1317 0002 82B0     		sub	sp, sp, #8
 1318              		.cfi_def_cfa_offset 16
 1319 0004 00AF     		add	r7, sp, #0
 1320              		.cfi_def_cfa_register 7
 1321 0006 7860     		str	r0, [r7, #4]
 1322 0008 0A1C     		mov	r2, r1
 1323 000a FB1C     		add	r3, r7, #3
 1324 000c 1A70     		strb	r2, [r3]
1025:.\Generated_Source\PSoC4/CapSense_CSHL.c **** 		CapSense_debounce[widget] = value;
 1325              		.loc 1 1025 0
 1326 000e 044A     		ldr	r2, .L87
 1327 0010 7B68     		ldr	r3, [r7, #4]
 1328 0012 D318     		add	r3, r2, r3
 1329 0014 FA1C     		add	r2, r7, #3
 1330 0016 1278     		ldrb	r2, [r2]
 1331 0018 1A70     		strb	r2, [r3]
1026:.\Generated_Source\PSoC4/CapSense_CSHL.c **** 	}
 1332              		.loc 1 1026 0
 1333 001a BD46     		mov	sp, r7
 1334 001c 02B0     		add	sp, sp, #8
 1335              		@ sp needed
 1336 001e 80BD     		pop	{r7, pc}
 1337              	.L88:
 1338              		.align	2
 1339              	.L87:
 1340 0020 00000000 		.word	CapSense_debounce
 1341              		.cfi_endproc
 1342              	.LFE55:
 1343              		.size	CapSense_SetDebounce, .-CapSense_SetDebounce
 1344              		.section	.text.CapSense_SetLowBaselineReset,"ax",%progbits
 1345              		.align	2
 1346              		.global	CapSense_SetLowBaselineReset
 1347              		.code	16
 1348              		.thumb_func
 1349              		.type	CapSense_SetLowBaselineReset, %function
 1350              	CapSense_SetLowBaselineReset:
 1351              	.LFB56:
1027:.\Generated_Source\PSoC4/CapSense_CSHL.c **** 
1028:.\Generated_Source\PSoC4/CapSense_CSHL.c **** 
1029:.\Generated_Source\PSoC4/CapSense_CSHL.c **** 	/*******************************************************************************
1030:.\Generated_Source\PSoC4/CapSense_CSHL.c **** 	* Function Name: CapSense_SetLowBaselineReset
ARM GAS  C:\Users\jsing\AppData\Local\Temp\ccHQxQnh.s 			page 43


1031:.\Generated_Source\PSoC4/CapSense_CSHL.c **** 	********************************************************************************
1032:.\Generated_Source\PSoC4/CapSense_CSHL.c **** 	*
1033:.\Generated_Source\PSoC4/CapSense_CSHL.c **** 	* Summary:
1034:.\Generated_Source\PSoC4/CapSense_CSHL.c **** 	*  This API sets the low baseline reset threshold value for the sensor.
1035:.\Generated_Source\PSoC4/CapSense_CSHL.c **** 	*
1036:.\Generated_Source\PSoC4/CapSense_CSHL.c **** 	* Parameters: 
1037:.\Generated_Source\PSoC4/CapSense_CSHL.c **** 	*  value: low baseline reset threshold value.
1038:.\Generated_Source\PSoC4/CapSense_CSHL.c **** 	*  sensor: Sensor index.
1039:.\Generated_Source\PSoC4/CapSense_CSHL.c **** 	*
1040:.\Generated_Source\PSoC4/CapSense_CSHL.c **** 	* Return Value: 
1041:.\Generated_Source\PSoC4/CapSense_CSHL.c **** 	*  None
1042:.\Generated_Source\PSoC4/CapSense_CSHL.c **** 	*
1043:.\Generated_Source\PSoC4/CapSense_CSHL.c **** 	* Global Variables:
1044:.\Generated_Source\PSoC4/CapSense_CSHL.c **** 	*  CapSense_lowBaselineReset[] - This array contains the Baseline update 
1045:.\Generated_Source\PSoC4/CapSense_CSHL.c **** 	*  threshold value for each sensor.
1046:.\Generated_Source\PSoC4/CapSense_CSHL.c **** 	* 
1047:.\Generated_Source\PSoC4/CapSense_CSHL.c **** 	* Side Effects:
1048:.\Generated_Source\PSoC4/CapSense_CSHL.c **** 	*  None
1049:.\Generated_Source\PSoC4/CapSense_CSHL.c **** 	*
1050:.\Generated_Source\PSoC4/CapSense_CSHL.c **** 	*******************************************************************************/
1051:.\Generated_Source\PSoC4/CapSense_CSHL.c **** 	void CapSense_SetLowBaselineReset(uint32 sensor, uint8 value)
1052:.\Generated_Source\PSoC4/CapSense_CSHL.c **** 	{
 1352              		.loc 1 1052 0
 1353              		.cfi_startproc
 1354 0000 80B5     		push	{r7, lr}
 1355              		.cfi_def_cfa_offset 8
 1356              		.cfi_offset 7, -8
 1357              		.cfi_offset 14, -4
 1358 0002 82B0     		sub	sp, sp, #8
 1359              		.cfi_def_cfa_offset 16
 1360 0004 00AF     		add	r7, sp, #0
 1361              		.cfi_def_cfa_register 7
 1362 0006 7860     		str	r0, [r7, #4]
 1363 0008 0A1C     		mov	r2, r1
 1364 000a FB1C     		add	r3, r7, #3
 1365 000c 1A70     		strb	r2, [r3]
1053:.\Generated_Source\PSoC4/CapSense_CSHL.c **** 		CapSense_lowBaselineReset[sensor] = value;
 1366              		.loc 1 1053 0
 1367 000e 044A     		ldr	r2, .L90
 1368 0010 7B68     		ldr	r3, [r7, #4]
 1369 0012 D318     		add	r3, r2, r3
 1370 0014 FA1C     		add	r2, r7, #3
 1371 0016 1278     		ldrb	r2, [r2]
 1372 0018 1A70     		strb	r2, [r3]
1054:.\Generated_Source\PSoC4/CapSense_CSHL.c **** 	}
 1373              		.loc 1 1054 0
 1374 001a BD46     		mov	sp, r7
 1375 001c 02B0     		add	sp, sp, #8
 1376              		@ sp needed
 1377 001e 80BD     		pop	{r7, pc}
 1378              	.L91:
 1379              		.align	2
 1380              	.L90:
 1381 0020 00000000 		.word	CapSense_lowBaselineReset
 1382              		.cfi_endproc
 1383              	.LFE56:
 1384              		.size	CapSense_SetLowBaselineReset, .-CapSense_SetLowBaselineReset
ARM GAS  C:\Users\jsing\AppData\Local\Temp\ccHQxQnh.s 			page 44


 1385              		.section	.text.CapSense_CheckIsSensorActive,"ax",%progbits
 1386              		.align	2
 1387              		.global	CapSense_CheckIsSensorActive
 1388              		.code	16
 1389              		.thumb_func
 1390              		.type	CapSense_CheckIsSensorActive, %function
 1391              	CapSense_CheckIsSensorActive:
 1392              	.LFB57:
1055:.\Generated_Source\PSoC4/CapSense_CSHL.c **** #endif /* (CapSense_TUNING_METHOD != CapSense__TUNING_NONE) */
1056:.\Generated_Source\PSoC4/CapSense_CSHL.c **** 
1057:.\Generated_Source\PSoC4/CapSense_CSHL.c **** 
1058:.\Generated_Source\PSoC4/CapSense_CSHL.c **** /*******************************************************************************
1059:.\Generated_Source\PSoC4/CapSense_CSHL.c **** * Function Name: CapSense_CheckIsSensorActive
1060:.\Generated_Source\PSoC4/CapSense_CSHL.c **** ********************************************************************************
1061:.\Generated_Source\PSoC4/CapSense_CSHL.c **** *
1062:.\Generated_Source\PSoC4/CapSense_CSHL.c **** * Summary:
1063:.\Generated_Source\PSoC4/CapSense_CSHL.c **** *  Compares the CapSense_sensorSignal[sensor] array element to the finger
1064:.\Generated_Source\PSoC4/CapSense_CSHL.c **** *  threshold of the widget it belongs to. The hysteresis and debounce are taken into 
1065:.\Generated_Source\PSoC4/CapSense_CSHL.c **** *  account. The hysteresis is added or subtracted from the finger threshold 
1066:.\Generated_Source\PSoC4/CapSense_CSHL.c **** *  based on whether the sensor is currently active. 
1067:.\Generated_Source\PSoC4/CapSense_CSHL.c **** *  If the sensor is active, the threshold is lowered by the hysteresis amount.
1068:.\Generated_Source\PSoC4/CapSense_CSHL.c **** *  If the sensor is inactive, the threshold is raised by the hysteresis amount.
1069:.\Generated_Source\PSoC4/CapSense_CSHL.c **** *  The debounce counter is added to the sensor active transition.
1070:.\Generated_Source\PSoC4/CapSense_CSHL.c **** *  This function updates the CapSense_sensorOnMask[] array element.
1071:.\Generated_Source\PSoC4/CapSense_CSHL.c **** *
1072:.\Generated_Source\PSoC4/CapSense_CSHL.c **** * Parameters:
1073:.\Generated_Source\PSoC4/CapSense_CSHL.c **** *  sensor:  Sensor number.
1074:.\Generated_Source\PSoC4/CapSense_CSHL.c **** *
1075:.\Generated_Source\PSoC4/CapSense_CSHL.c **** * Return:
1076:.\Generated_Source\PSoC4/CapSense_CSHL.c **** *  Returns sensor state 1 if active, 0 if not active.
1077:.\Generated_Source\PSoC4/CapSense_CSHL.c **** *
1078:.\Generated_Source\PSoC4/CapSense_CSHL.c **** * Global Variables:
1079:.\Generated_Source\PSoC4/CapSense_CSHL.c **** *  CapSense_sensorSignal[] - used to store the difference between 
1080:.\Generated_Source\PSoC4/CapSense_CSHL.c **** *  the current value of raw data and a previous value of the baseline.
1081:.\Generated_Source\PSoC4/CapSense_CSHL.c **** *  CapSense_debounceCounter[]   - used to store the current debounce 
1082:.\Generated_Source\PSoC4/CapSense_CSHL.c **** *  counter of the sensor. the widget which have this parameter are buttons, matrix 
1083:.\Generated_Source\PSoC4/CapSense_CSHL.c **** *  buttons, proximity, and guard. All other widgets don't have the  debounce parameter
1084:.\Generated_Source\PSoC4/CapSense_CSHL.c **** *  and use the last element of this array with value 0 (it means no debounce).
1085:.\Generated_Source\PSoC4/CapSense_CSHL.c **** *  CapSense_sensorOnMask[] - used to store the sensors on/off state.
1086:.\Generated_Source\PSoC4/CapSense_CSHL.c **** *  CapSense_sensorOnMask[0] contains the masked bits for sensors 
1087:.\Generated_Source\PSoC4/CapSense_CSHL.c **** *   0 through 7 (sensor 0 is bit 0, sensor 1 is bit 1).
1088:.\Generated_Source\PSoC4/CapSense_CSHL.c **** *  CapSense_sensorEnableMask[1] contains the masked bits for 
1089:.\Generated_Source\PSoC4/CapSense_CSHL.c **** *  sensors 8 through 15 (if needed), and so on.
1090:.\Generated_Source\PSoC4/CapSense_CSHL.c **** *  0 - sensor is inactive.
1091:.\Generated_Source\PSoC4/CapSense_CSHL.c **** *  1 - sensor is active.
1092:.\Generated_Source\PSoC4/CapSense_CSHL.c **** * 
1093:.\Generated_Source\PSoC4/CapSense_CSHL.c **** * Side Effects:
1094:.\Generated_Source\PSoC4/CapSense_CSHL.c **** *  None
1095:.\Generated_Source\PSoC4/CapSense_CSHL.c **** *
1096:.\Generated_Source\PSoC4/CapSense_CSHL.c **** *******************************************************************************/
1097:.\Generated_Source\PSoC4/CapSense_CSHL.c **** uint32 CapSense_CheckIsSensorActive(uint32 sensor)
1098:.\Generated_Source\PSoC4/CapSense_CSHL.c **** {	
 1393              		.loc 1 1098 0
 1394              		.cfi_startproc
 1395 0000 80B5     		push	{r7, lr}
 1396              		.cfi_def_cfa_offset 8
 1397              		.cfi_offset 7, -8
ARM GAS  C:\Users\jsing\AppData\Local\Temp\ccHQxQnh.s 			page 45


 1398              		.cfi_offset 14, -4
 1399 0002 84B0     		sub	sp, sp, #16
 1400              		.cfi_def_cfa_offset 24
 1401 0004 00AF     		add	r7, sp, #0
 1402              		.cfi_def_cfa_register 7
 1403 0006 7860     		str	r0, [r7, #4]
1099:.\Generated_Source\PSoC4/CapSense_CSHL.c **** 	uint8 widget;
1100:.\Generated_Source\PSoC4/CapSense_CSHL.c **** 	uint8 debounce;
1101:.\Generated_Source\PSoC4/CapSense_CSHL.c **** 	uint8 debounceIndex;
1102:.\Generated_Source\PSoC4/CapSense_CSHL.c **** 
1103:.\Generated_Source\PSoC4/CapSense_CSHL.c **** 	uint8 fingerThreshold;
1104:.\Generated_Source\PSoC4/CapSense_CSHL.c **** 	uint8 hysteresis;
1105:.\Generated_Source\PSoC4/CapSense_CSHL.c **** 	
1106:.\Generated_Source\PSoC4/CapSense_CSHL.c **** 	
1107:.\Generated_Source\PSoC4/CapSense_CSHL.c ****     /* Prepare to find debounce counter index */
1108:.\Generated_Source\PSoC4/CapSense_CSHL.c ****     widget = CapSense_widgetNumber[sensor];
 1404              		.loc 1 1108 0
 1405 0008 3B1C     		mov	r3, r7
 1406 000a 0F33     		add	r3, r3, #15
 1407 000c 4349     		ldr	r1, .L101
 1408 000e 7A68     		ldr	r2, [r7, #4]
 1409 0010 8A18     		add	r2, r1, r2
 1410 0012 1278     		ldrb	r2, [r2]
 1411 0014 1A70     		strb	r2, [r3]
1109:.\Generated_Source\PSoC4/CapSense_CSHL.c **** 	
1110:.\Generated_Source\PSoC4/CapSense_CSHL.c ****     fingerThreshold = CapSense_fingerThreshold[widget];
 1412              		.loc 1 1110 0
 1413 0016 3B1C     		mov	r3, r7
 1414 0018 0F33     		add	r3, r3, #15
 1415 001a 1A78     		ldrb	r2, [r3]
 1416 001c 3B1C     		mov	r3, r7
 1417 001e 0E33     		add	r3, r3, #14
 1418 0020 3F49     		ldr	r1, .L101+4
 1419 0022 8A5C     		ldrb	r2, [r1, r2]
 1420 0024 1A70     		strb	r2, [r3]
1111:.\Generated_Source\PSoC4/CapSense_CSHL.c **** 	hysteresis = CapSense_hysteresis[widget];
 1421              		.loc 1 1111 0
 1422 0026 3B1C     		mov	r3, r7
 1423 0028 0F33     		add	r3, r3, #15
 1424 002a 1A78     		ldrb	r2, [r3]
 1425 002c 3B1C     		mov	r3, r7
 1426 002e 0D33     		add	r3, r3, #13
 1427 0030 3C49     		ldr	r1, .L101+8
 1428 0032 8A5C     		ldrb	r2, [r1, r2]
 1429 0034 1A70     		strb	r2, [r3]
1112:.\Generated_Source\PSoC4/CapSense_CSHL.c **** 	debounce = CapSense_debounce[widget];	
 1430              		.loc 1 1112 0
 1431 0036 3B1C     		mov	r3, r7
 1432 0038 0F33     		add	r3, r3, #15
 1433 003a 1A78     		ldrb	r2, [r3]
 1434 003c 3B1C     		mov	r3, r7
 1435 003e 0C33     		add	r3, r3, #12
 1436 0040 3949     		ldr	r1, .L101+12
 1437 0042 8A5C     		ldrb	r2, [r1, r2]
 1438 0044 1A70     		strb	r2, [r3]
1113:.\Generated_Source\PSoC4/CapSense_CSHL.c **** 	
1114:.\Generated_Source\PSoC4/CapSense_CSHL.c **** 	    debounceIndex = widget;
ARM GAS  C:\Users\jsing\AppData\Local\Temp\ccHQxQnh.s 			page 46


 1439              		.loc 1 1114 0
 1440 0046 3B1C     		mov	r3, r7
 1441 0048 0B33     		add	r3, r3, #11
 1442 004a 3A1C     		mov	r2, r7
 1443 004c 0F32     		add	r2, r2, #15
 1444 004e 1278     		ldrb	r2, [r2]
 1445 0050 1A70     		strb	r2, [r3]
1115:.\Generated_Source\PSoC4/CapSense_CSHL.c **** 
1116:.\Generated_Source\PSoC4/CapSense_CSHL.c **** 	
1117:.\Generated_Source\PSoC4/CapSense_CSHL.c ****     /* Was on */
1118:.\Generated_Source\PSoC4/CapSense_CSHL.c ****     if (0u != CapSense_GetBitValue(CapSense_sensorOnMask, sensor))
 1446              		.loc 1 1118 0
 1447 0052 364A     		ldr	r2, .L101+16
 1448 0054 7B68     		ldr	r3, [r7, #4]
 1449 0056 101C     		mov	r0, r2
 1450 0058 191C     		mov	r1, r3
 1451 005a FFF7FEFF 		bl	CapSense_GetBitValue
 1452 005e 031C     		mov	r3, r0
 1453 0060 002B     		cmp	r3, #0
 1454 0062 1DD0     		beq	.L93
1119:.\Generated_Source\PSoC4/CapSense_CSHL.c ****     {
1120:.\Generated_Source\PSoC4/CapSense_CSHL.c ****         /* Hysteresis minus */
1121:.\Generated_Source\PSoC4/CapSense_CSHL.c ****         if (CapSense_sensorSignal[sensor] < (fingerThreshold - hysteresis))
 1455              		.loc 1 1121 0
 1456 0064 324A     		ldr	r2, .L101+20
 1457 0066 7B68     		ldr	r3, [r7, #4]
 1458 0068 D318     		add	r3, r2, r3
 1459 006a 1B78     		ldrb	r3, [r3]
 1460 006c 1A1C     		mov	r2, r3
 1461 006e 3B1C     		mov	r3, r7
 1462 0070 0E33     		add	r3, r3, #14
 1463 0072 1978     		ldrb	r1, [r3]
 1464 0074 3B1C     		mov	r3, r7
 1465 0076 0D33     		add	r3, r3, #13
 1466 0078 1B78     		ldrb	r3, [r3]
 1467 007a CB1A     		sub	r3, r1, r3
 1468 007c 9A42     		cmp	r2, r3
 1469 007e 3DDA     		bge	.L95
1122:.\Generated_Source\PSoC4/CapSense_CSHL.c ****         {
1123:.\Generated_Source\PSoC4/CapSense_CSHL.c **** 	   		CapSense_SetBitValue(CapSense_sensorOnMask, sensor, 0u);
 1470              		.loc 1 1123 0
 1471 0080 2A4A     		ldr	r2, .L101+16
 1472 0082 7B68     		ldr	r3, [r7, #4]
 1473 0084 101C     		mov	r0, r2
 1474 0086 191C     		mov	r1, r3
 1475 0088 0022     		mov	r2, #0
 1476 008a FFF7FEFF 		bl	CapSense_SetBitValue
1124:.\Generated_Source\PSoC4/CapSense_CSHL.c **** 			/* Sensor inactive - reset Debounce counter */
1125:.\Generated_Source\PSoC4/CapSense_CSHL.c ****             CapSense_debounceCounter[debounceIndex] = debounce;
 1477              		.loc 1 1125 0
 1478 008e 3B1C     		mov	r3, r7
 1479 0090 0B33     		add	r3, r3, #11
 1480 0092 1B78     		ldrb	r3, [r3]
 1481 0094 274A     		ldr	r2, .L101+24
 1482 0096 391C     		mov	r1, r7
 1483 0098 0C31     		add	r1, r1, #12
 1484 009a 0978     		ldrb	r1, [r1]
ARM GAS  C:\Users\jsing\AppData\Local\Temp\ccHQxQnh.s 			page 47


 1485 009c D154     		strb	r1, [r2, r3]
 1486 009e 2DE0     		b	.L95
 1487              	.L93:
1126:.\Generated_Source\PSoC4/CapSense_CSHL.c ****         }
1127:.\Generated_Source\PSoC4/CapSense_CSHL.c ****     }
1128:.\Generated_Source\PSoC4/CapSense_CSHL.c ****     else    /* Was off */
1129:.\Generated_Source\PSoC4/CapSense_CSHL.c ****     {
1130:.\Generated_Source\PSoC4/CapSense_CSHL.c ****         /* Hysteresis plus */
1131:.\Generated_Source\PSoC4/CapSense_CSHL.c ****         if (CapSense_sensorSignal[sensor] >= (fingerThreshold + hysteresis))
 1488              		.loc 1 1131 0
 1489 00a0 234A     		ldr	r2, .L101+20
 1490 00a2 7B68     		ldr	r3, [r7, #4]
 1491 00a4 D318     		add	r3, r2, r3
 1492 00a6 1B78     		ldrb	r3, [r3]
 1493 00a8 1A1C     		mov	r2, r3
 1494 00aa 3B1C     		mov	r3, r7
 1495 00ac 0E33     		add	r3, r3, #14
 1496 00ae 1978     		ldrb	r1, [r3]
 1497 00b0 3B1C     		mov	r3, r7
 1498 00b2 0D33     		add	r3, r3, #13
 1499 00b4 1B78     		ldrb	r3, [r3]
 1500 00b6 CB18     		add	r3, r1, r3
 1501 00b8 9A42     		cmp	r2, r3
 1502 00ba 17DB     		blt	.L96
1132:.\Generated_Source\PSoC4/CapSense_CSHL.c ****         {
1133:.\Generated_Source\PSoC4/CapSense_CSHL.c **** 			CapSense_debounceCounter[debounceIndex]--;
 1503              		.loc 1 1133 0
 1504 00bc 3B1C     		mov	r3, r7
 1505 00be 0B33     		add	r3, r3, #11
 1506 00c0 1B78     		ldrb	r3, [r3]
 1507 00c2 1C4A     		ldr	r2, .L101+24
 1508 00c4 D25C     		ldrb	r2, [r2, r3]
 1509 00c6 013A     		sub	r2, r2, #1
 1510 00c8 D1B2     		uxtb	r1, r2
 1511 00ca 1A4A     		ldr	r2, .L101+24
 1512 00cc D154     		strb	r1, [r2, r3]
1134:.\Generated_Source\PSoC4/CapSense_CSHL.c ****             /* Sensor active, decrement debounce counter */
1135:.\Generated_Source\PSoC4/CapSense_CSHL.c ****             if(CapSense_debounceCounter[debounceIndex] == 0u)
 1513              		.loc 1 1135 0
 1514 00ce 3B1C     		mov	r3, r7
 1515 00d0 0B33     		add	r3, r3, #11
 1516 00d2 1B78     		ldrb	r3, [r3]
 1517 00d4 174A     		ldr	r2, .L101+24
 1518 00d6 D35C     		ldrb	r3, [r2, r3]
 1519 00d8 002B     		cmp	r3, #0
 1520 00da 0FD1     		bne	.L95
1136:.\Generated_Source\PSoC4/CapSense_CSHL.c ****             {
1137:.\Generated_Source\PSoC4/CapSense_CSHL.c ****                 CapSense_SetBitValue(CapSense_sensorOnMask, sensor, 1u); 
 1521              		.loc 1 1137 0
 1522 00dc 134A     		ldr	r2, .L101+16
 1523 00de 7B68     		ldr	r3, [r7, #4]
 1524 00e0 101C     		mov	r0, r2
 1525 00e2 191C     		mov	r1, r3
 1526 00e4 0122     		mov	r2, #1
 1527 00e6 FFF7FEFF 		bl	CapSense_SetBitValue
 1528 00ea 07E0     		b	.L95
 1529              	.L96:
ARM GAS  C:\Users\jsing\AppData\Local\Temp\ccHQxQnh.s 			page 48


1138:.\Generated_Source\PSoC4/CapSense_CSHL.c ****             }
1139:.\Generated_Source\PSoC4/CapSense_CSHL.c ****         }
1140:.\Generated_Source\PSoC4/CapSense_CSHL.c ****         else
1141:.\Generated_Source\PSoC4/CapSense_CSHL.c ****         {
1142:.\Generated_Source\PSoC4/CapSense_CSHL.c ****             /* Sensor inactive - reset Debounce counter */
1143:.\Generated_Source\PSoC4/CapSense_CSHL.c ****             CapSense_debounceCounter[debounceIndex] = debounce;
 1530              		.loc 1 1143 0
 1531 00ec 3B1C     		mov	r3, r7
 1532 00ee 0B33     		add	r3, r3, #11
 1533 00f0 1B78     		ldrb	r3, [r3]
 1534 00f2 104A     		ldr	r2, .L101+24
 1535 00f4 391C     		mov	r1, r7
 1536 00f6 0C31     		add	r1, r1, #12
 1537 00f8 0978     		ldrb	r1, [r1]
 1538 00fa D154     		strb	r1, [r2, r3]
 1539              	.L95:
1144:.\Generated_Source\PSoC4/CapSense_CSHL.c ****         }
1145:.\Generated_Source\PSoC4/CapSense_CSHL.c ****     }
1146:.\Generated_Source\PSoC4/CapSense_CSHL.c ****     
1147:.\Generated_Source\PSoC4/CapSense_CSHL.c ****     return ((uint32)((0u != CapSense_GetBitValue(CapSense_sensorOnMask, sensor)) ? 1u : 0u));
 1540              		.loc 1 1147 0
 1541 00fc 0B4A     		ldr	r2, .L101+16
 1542 00fe 7B68     		ldr	r3, [r7, #4]
 1543 0100 101C     		mov	r0, r2
 1544 0102 191C     		mov	r1, r3
 1545 0104 FFF7FEFF 		bl	CapSense_GetBitValue
 1546 0108 031C     		mov	r3, r0
 1547 010a 002B     		cmp	r3, #0
 1548 010c 01D0     		beq	.L98
 1549              		.loc 1 1147 0 is_stmt 0 discriminator 1
 1550 010e 0123     		mov	r3, #1
 1551 0110 00E0     		b	.L99
 1552              	.L98:
 1553              		.loc 1 1147 0 discriminator 2
 1554 0112 0023     		mov	r3, #0
 1555              	.L99:
1148:.\Generated_Source\PSoC4/CapSense_CSHL.c **** }
 1556              		.loc 1 1148 0 is_stmt 1 discriminator 3
 1557 0114 181C     		mov	r0, r3
 1558 0116 BD46     		mov	sp, r7
 1559 0118 04B0     		add	sp, sp, #16
 1560              		@ sp needed
 1561 011a 80BD     		pop	{r7, pc}
 1562              	.L102:
 1563              		.align	2
 1564              	.L101:
 1565 011c 00000000 		.word	CapSense_widgetNumber
 1566 0120 00000000 		.word	CapSense_fingerThreshold
 1567 0124 00000000 		.word	CapSense_hysteresis
 1568 0128 00000000 		.word	CapSense_debounce
 1569 012c 00000000 		.word	CapSense_sensorOnMask
 1570 0130 00000000 		.word	CapSense_sensorSignal
 1571 0134 10000000 		.word	CapSense_debounceCounter
 1572              		.cfi_endproc
 1573              	.LFE57:
 1574              		.size	CapSense_CheckIsSensorActive, .-CapSense_CheckIsSensorActive
 1575              		.section	.text.CapSense_CheckIsWidgetActive,"ax",%progbits
ARM GAS  C:\Users\jsing\AppData\Local\Temp\ccHQxQnh.s 			page 49


 1576              		.align	2
 1577              		.global	CapSense_CheckIsWidgetActive
 1578              		.code	16
 1579              		.thumb_func
 1580              		.type	CapSense_CheckIsWidgetActive, %function
 1581              	CapSense_CheckIsWidgetActive:
 1582              	.LFB58:
1149:.\Generated_Source\PSoC4/CapSense_CSHL.c **** 
1150:.\Generated_Source\PSoC4/CapSense_CSHL.c **** 
1151:.\Generated_Source\PSoC4/CapSense_CSHL.c **** /*******************************************************************************
1152:.\Generated_Source\PSoC4/CapSense_CSHL.c **** * Function Name: CapSense_CheckIsWidgetActive
1153:.\Generated_Source\PSoC4/CapSense_CSHL.c **** ********************************************************************************
1154:.\Generated_Source\PSoC4/CapSense_CSHL.c **** *
1155:.\Generated_Source\PSoC4/CapSense_CSHL.c **** * Summary:
1156:.\Generated_Source\PSoC4/CapSense_CSHL.c **** *  Compares the CapSense_sensorSignal[] array element to the finger threshold of 
1157:.\Generated_Source\PSoC4/CapSense_CSHL.c **** * the widget it belongs to. The hysteresis and debounce are taken into account. 
1158:.\Generated_Source\PSoC4/CapSense_CSHL.c **** * The hysteresis is added or subtracted from the finger threshold based on whether
1159:.\Generated_Source\PSoC4/CapSense_CSHL.c **** *  the sensor is currently active. If the sensor is active, the threshold is 
1160:.\Generated_Source\PSoC4/CapSense_CSHL.c **** *  lowered by the hysteresis amount. If the sensor is inactive, the threshold 
1161:.\Generated_Source\PSoC4/CapSense_CSHL.c **** *  is raised by the hysteresis amount. 
1162:.\Generated_Source\PSoC4/CapSense_CSHL.c **** * The debounce counter added to the sensor active transition. 
1163:.\Generated_Source\PSoC4/CapSense_CSHL.c **** * This function updates CapSense_sensorOnMask[] array element
1164:.\Generated_Source\PSoC4/CapSense_CSHL.c **** *
1165:.\Generated_Source\PSoC4/CapSense_CSHL.c **** * Parameters:
1166:.\Generated_Source\PSoC4/CapSense_CSHL.c **** *  widget:  widget number.
1167:.\Generated_Source\PSoC4/CapSense_CSHL.c **** *
1168:.\Generated_Source\PSoC4/CapSense_CSHL.c **** * Return:
1169:.\Generated_Source\PSoC4/CapSense_CSHL.c **** *  Returns widget sensor state 1 if one or more sensors within widget is/are 
1170:.\Generated_Source\PSoC4/CapSense_CSHL.c **** *  active, 0 if all sensors within widget are inactive.
1171:.\Generated_Source\PSoC4/CapSense_CSHL.c **** *
1172:.\Generated_Source\PSoC4/CapSense_CSHL.c **** * Global Variables:
1173:.\Generated_Source\PSoC4/CapSense_CSHL.c **** *  rawDataIndex[]: Contains the  1st sensor position in the widget
1174:.\Generated_Source\PSoC4/CapSense_CSHL.c **** * 
1175:.\Generated_Source\PSoC4/CapSense_CSHL.c **** * Side Effects:
1176:.\Generated_Source\PSoC4/CapSense_CSHL.c **** *  None
1177:.\Generated_Source\PSoC4/CapSense_CSHL.c **** *
1178:.\Generated_Source\PSoC4/CapSense_CSHL.c **** *******************************************************************************/
1179:.\Generated_Source\PSoC4/CapSense_CSHL.c **** uint32 CapSense_CheckIsWidgetActive(uint32 widget)
1180:.\Generated_Source\PSoC4/CapSense_CSHL.c **** {
 1583              		.loc 1 1180 0
 1584              		.cfi_startproc
 1585 0000 80B5     		push	{r7, lr}
 1586              		.cfi_def_cfa_offset 8
 1587              		.cfi_offset 7, -8
 1588              		.cfi_offset 14, -4
 1589 0002 86B0     		sub	sp, sp, #24
 1590              		.cfi_def_cfa_offset 32
 1591 0004 00AF     		add	r7, sp, #0
 1592              		.cfi_def_cfa_register 7
 1593 0006 7860     		str	r0, [r7, #4]
1181:.\Generated_Source\PSoC4/CapSense_CSHL.c ****     uint32 rawIndex = (uint32)CapSense_rawDataIndex[widget];
 1594              		.loc 1 1181 0
 1595 0008 0023     		mov	r3, #0
 1596 000a 7B61     		str	r3, [r7, #20]
1182:.\Generated_Source\PSoC4/CapSense_CSHL.c ****     uint32 numOfSensors = (uint32)CapSense_numberOfSensors[widget] + rawIndex;
 1597              		.loc 1 1182 0
 1598 000c 0123     		mov	r3, #1
ARM GAS  C:\Users\jsing\AppData\Local\Temp\ccHQxQnh.s 			page 50


 1599 000e 1A1C     		mov	r2, r3
 1600 0010 7B69     		ldr	r3, [r7, #20]
 1601 0012 D318     		add	r3, r2, r3
 1602 0014 FB60     		str	r3, [r7, #12]
1183:.\Generated_Source\PSoC4/CapSense_CSHL.c ****     uint32 state = 0u;
 1603              		.loc 1 1183 0
 1604 0016 0023     		mov	r3, #0
 1605 0018 3B61     		str	r3, [r7, #16]
 1606              	.L105:
1184:.\Generated_Source\PSoC4/CapSense_CSHL.c **** 
1185:.\Generated_Source\PSoC4/CapSense_CSHL.c ****     /* Check all sensors of widget */
1186:.\Generated_Source\PSoC4/CapSense_CSHL.c ****     do
1187:.\Generated_Source\PSoC4/CapSense_CSHL.c ****     {
1188:.\Generated_Source\PSoC4/CapSense_CSHL.c ****         if(CapSense_CheckIsSensorActive((uint32)rawIndex) != 0u)
 1607              		.loc 1 1188 0
 1608 001a 7B69     		ldr	r3, [r7, #20]
 1609 001c 181C     		mov	r0, r3
 1610 001e FFF7FEFF 		bl	CapSense_CheckIsSensorActive
 1611 0022 031C     		mov	r3, r0
 1612 0024 002B     		cmp	r3, #0
 1613 0026 01D0     		beq	.L104
1189:.\Generated_Source\PSoC4/CapSense_CSHL.c ****         {
1190:.\Generated_Source\PSoC4/CapSense_CSHL.c ****             state = CapSense_SENSOR_IS_ACTIVE;
 1614              		.loc 1 1190 0
 1615 0028 0123     		mov	r3, #1
 1616 002a 3B61     		str	r3, [r7, #16]
 1617              	.L104:
1191:.\Generated_Source\PSoC4/CapSense_CSHL.c ****         }
1192:.\Generated_Source\PSoC4/CapSense_CSHL.c ****         rawIndex++;
 1618              		.loc 1 1192 0
 1619 002c 7B69     		ldr	r3, [r7, #20]
 1620 002e 0133     		add	r3, r3, #1
 1621 0030 7B61     		str	r3, [r7, #20]
1193:.\Generated_Source\PSoC4/CapSense_CSHL.c ****     }
1194:.\Generated_Source\PSoC4/CapSense_CSHL.c ****     while(rawIndex < numOfSensors);
 1622              		.loc 1 1194 0
 1623 0032 7A69     		ldr	r2, [r7, #20]
 1624 0034 FB68     		ldr	r3, [r7, #12]
 1625 0036 9A42     		cmp	r2, r3
 1626 0038 EFD3     		bcc	.L105
1195:.\Generated_Source\PSoC4/CapSense_CSHL.c ****     
1196:.\Generated_Source\PSoC4/CapSense_CSHL.c **** 
1197:.\Generated_Source\PSoC4/CapSense_CSHL.c ****     
1198:.\Generated_Source\PSoC4/CapSense_CSHL.c ****     return state;
 1627              		.loc 1 1198 0
 1628 003a 3B69     		ldr	r3, [r7, #16]
1199:.\Generated_Source\PSoC4/CapSense_CSHL.c **** }
 1629              		.loc 1 1199 0
 1630 003c 181C     		mov	r0, r3
 1631 003e BD46     		mov	sp, r7
 1632 0040 06B0     		add	sp, sp, #24
 1633              		@ sp needed
 1634 0042 80BD     		pop	{r7, pc}
 1635              		.cfi_endproc
 1636              	.LFE58:
 1637              		.size	CapSense_CheckIsWidgetActive, .-CapSense_CheckIsWidgetActive
 1638              		.section	.text.CapSense_CheckIsAnyWidgetActive,"ax",%progbits
ARM GAS  C:\Users\jsing\AppData\Local\Temp\ccHQxQnh.s 			page 51


 1639              		.align	2
 1640              		.global	CapSense_CheckIsAnyWidgetActive
 1641              		.code	16
 1642              		.thumb_func
 1643              		.type	CapSense_CheckIsAnyWidgetActive, %function
 1644              	CapSense_CheckIsAnyWidgetActive:
 1645              	.LFB59:
1200:.\Generated_Source\PSoC4/CapSense_CSHL.c **** 
1201:.\Generated_Source\PSoC4/CapSense_CSHL.c **** 
1202:.\Generated_Source\PSoC4/CapSense_CSHL.c **** /*******************************************************************************
1203:.\Generated_Source\PSoC4/CapSense_CSHL.c **** * Function Name: CapSense_CheckIsAnyWidgetActive
1204:.\Generated_Source\PSoC4/CapSense_CSHL.c **** ********************************************************************************
1205:.\Generated_Source\PSoC4/CapSense_CSHL.c **** *
1206:.\Generated_Source\PSoC4/CapSense_CSHL.c **** * Summary:
1207:.\Generated_Source\PSoC4/CapSense_CSHL.c **** *  Compares all the sensors of the CapSense_Signal[] array to their finger 
1208:.\Generated_Source\PSoC4/CapSense_CSHL.c **** *  threshold. Calls CapSense_CheckIsWidgetActive() for each widget so 
1209:.\Generated_Source\PSoC4/CapSense_CSHL.c **** *  the CapSense_sensorOnMask[] array is up to date after calling this 
1210:.\Generated_Source\PSoC4/CapSense_CSHL.c **** *  function.
1211:.\Generated_Source\PSoC4/CapSense_CSHL.c **** *
1212:.\Generated_Source\PSoC4/CapSense_CSHL.c **** * Parameters:
1213:.\Generated_Source\PSoC4/CapSense_CSHL.c **** *  widget:  widget number.
1214:.\Generated_Source\PSoC4/CapSense_CSHL.c **** *
1215:.\Generated_Source\PSoC4/CapSense_CSHL.c **** * Return:
1216:.\Generated_Source\PSoC4/CapSense_CSHL.c **** *  Returns 1 if any widget is active, 0 none of widgets are active.
1217:.\Generated_Source\PSoC4/CapSense_CSHL.c **** *
1218:.\Generated_Source\PSoC4/CapSense_CSHL.c **** * Global Variables:
1219:.\Generated_Source\PSoC4/CapSense_CSHL.c **** *  None
1220:.\Generated_Source\PSoC4/CapSense_CSHL.c **** * 
1221:.\Generated_Source\PSoC4/CapSense_CSHL.c **** * Side Effects:
1222:.\Generated_Source\PSoC4/CapSense_CSHL.c **** *  None
1223:.\Generated_Source\PSoC4/CapSense_CSHL.c **** *
1224:.\Generated_Source\PSoC4/CapSense_CSHL.c **** *******************************************************************************/
1225:.\Generated_Source\PSoC4/CapSense_CSHL.c **** uint32 CapSense_CheckIsAnyWidgetActive(void)
1226:.\Generated_Source\PSoC4/CapSense_CSHL.c **** {
 1646              		.loc 1 1226 0
 1647              		.cfi_startproc
 1648 0000 80B5     		push	{r7, lr}
 1649              		.cfi_def_cfa_offset 8
 1650              		.cfi_offset 7, -8
 1651              		.cfi_offset 14, -4
 1652 0002 82B0     		sub	sp, sp, #8
 1653              		.cfi_def_cfa_offset 16
 1654 0004 00AF     		add	r7, sp, #0
 1655              		.cfi_def_cfa_register 7
1227:.\Generated_Source\PSoC4/CapSense_CSHL.c **** 
1228:.\Generated_Source\PSoC4/CapSense_CSHL.c **** 	    uint32 i;
1229:.\Generated_Source\PSoC4/CapSense_CSHL.c ****     uint32 state = 0u;
 1656              		.loc 1 1229 0
 1657 0006 0023     		mov	r3, #0
 1658 0008 3B60     		str	r3, [r7]
1230:.\Generated_Source\PSoC4/CapSense_CSHL.c ****     
1231:.\Generated_Source\PSoC4/CapSense_CSHL.c ****     for(i = 0u; i < CapSense_TOTAL_WIDGET_COUNT; i++)
 1659              		.loc 1 1231 0
 1660 000a 0023     		mov	r3, #0
 1661 000c 7B60     		str	r3, [r7, #4]
 1662 000e 0BE0     		b	.L108
 1663              	.L110:
ARM GAS  C:\Users\jsing\AppData\Local\Temp\ccHQxQnh.s 			page 52


1232:.\Generated_Source\PSoC4/CapSense_CSHL.c ****     {
1233:.\Generated_Source\PSoC4/CapSense_CSHL.c ****         if (CapSense_CheckIsWidgetActive(i) != 0u)
 1664              		.loc 1 1233 0
 1665 0010 7B68     		ldr	r3, [r7, #4]
 1666 0012 181C     		mov	r0, r3
 1667 0014 FFF7FEFF 		bl	CapSense_CheckIsWidgetActive
 1668 0018 031C     		mov	r3, r0
 1669 001a 002B     		cmp	r3, #0
 1670 001c 01D0     		beq	.L109
1234:.\Generated_Source\PSoC4/CapSense_CSHL.c ****         {
1235:.\Generated_Source\PSoC4/CapSense_CSHL.c ****             state = CapSense_WIDGET_IS_ACTIVE;
 1671              		.loc 1 1235 0
 1672 001e 0123     		mov	r3, #1
 1673 0020 3B60     		str	r3, [r7]
 1674              	.L109:
1231:.\Generated_Source\PSoC4/CapSense_CSHL.c ****     for(i = 0u; i < CapSense_TOTAL_WIDGET_COUNT; i++)
 1675              		.loc 1 1231 0
 1676 0022 7B68     		ldr	r3, [r7, #4]
 1677 0024 0133     		add	r3, r3, #1
 1678 0026 7B60     		str	r3, [r7, #4]
 1679              	.L108:
1231:.\Generated_Source\PSoC4/CapSense_CSHL.c ****     for(i = 0u; i < CapSense_TOTAL_WIDGET_COUNT; i++)
 1680              		.loc 1 1231 0 is_stmt 0 discriminator 1
 1681 0028 7B68     		ldr	r3, [r7, #4]
 1682 002a 002B     		cmp	r3, #0
 1683 002c F0D0     		beq	.L110
1236:.\Generated_Source\PSoC4/CapSense_CSHL.c ****         }
1237:.\Generated_Source\PSoC4/CapSense_CSHL.c ****     }
1238:.\Generated_Source\PSoC4/CapSense_CSHL.c ****     
1239:.\Generated_Source\PSoC4/CapSense_CSHL.c **** 
1240:.\Generated_Source\PSoC4/CapSense_CSHL.c **** 
1241:.\Generated_Source\PSoC4/CapSense_CSHL.c ****     return state;
 1684              		.loc 1 1241 0 is_stmt 1
 1685 002e 3B68     		ldr	r3, [r7]
1242:.\Generated_Source\PSoC4/CapSense_CSHL.c **** }
 1686              		.loc 1 1242 0
 1687 0030 181C     		mov	r0, r3
 1688 0032 BD46     		mov	sp, r7
 1689 0034 02B0     		add	sp, sp, #8
 1690              		@ sp needed
 1691 0036 80BD     		pop	{r7, pc}
 1692              		.cfi_endproc
 1693              	.LFE59:
 1694              		.size	CapSense_CheckIsAnyWidgetActive, .-CapSense_CheckIsAnyWidgetActive
 1695              		.section	.text.CapSense_EnableWidget,"ax",%progbits
 1696              		.align	2
 1697              		.global	CapSense_EnableWidget
 1698              		.code	16
 1699              		.thumb_func
 1700              		.type	CapSense_EnableWidget, %function
 1701              	CapSense_EnableWidget:
 1702              	.LFB60:
1243:.\Generated_Source\PSoC4/CapSense_CSHL.c **** 
1244:.\Generated_Source\PSoC4/CapSense_CSHL.c **** 
1245:.\Generated_Source\PSoC4/CapSense_CSHL.c **** /*******************************************************************************
1246:.\Generated_Source\PSoC4/CapSense_CSHL.c **** * Function Name: CapSense_EnableWidget
1247:.\Generated_Source\PSoC4/CapSense_CSHL.c **** ********************************************************************************
ARM GAS  C:\Users\jsing\AppData\Local\Temp\ccHQxQnh.s 			page 53


1248:.\Generated_Source\PSoC4/CapSense_CSHL.c **** *
1249:.\Generated_Source\PSoC4/CapSense_CSHL.c **** * Summary:
1250:.\Generated_Source\PSoC4/CapSense_CSHL.c **** *  Enables all the widget elements (sensors) to the scanning process.
1251:.\Generated_Source\PSoC4/CapSense_CSHL.c **** *
1252:.\Generated_Source\PSoC4/CapSense_CSHL.c **** * Parameters:
1253:.\Generated_Source\PSoC4/CapSense_CSHL.c **** *  widget:  widget number.
1254:.\Generated_Source\PSoC4/CapSense_CSHL.c **** *
1255:.\Generated_Source\PSoC4/CapSense_CSHL.c **** * Return:
1256:.\Generated_Source\PSoC4/CapSense_CSHL.c **** *  None
1257:.\Generated_Source\PSoC4/CapSense_CSHL.c **** *
1258:.\Generated_Source\PSoC4/CapSense_CSHL.c **** * Global Variables:
1259:.\Generated_Source\PSoC4/CapSense_CSHL.c **** *  CapSense_sensorEnableMask[] - used to store the sensor scanning 
1260:.\Generated_Source\PSoC4/CapSense_CSHL.c **** *  state.
1261:.\Generated_Source\PSoC4/CapSense_CSHL.c **** *  CapSense_sensorEnableMask[0] contains the masked bits for sensors 
1262:.\Generated_Source\PSoC4/CapSense_CSHL.c **** *  0 through 7 (sensor 0 is bit 0, sensor 1 is bit 1).
1263:.\Generated_Source\PSoC4/CapSense_CSHL.c **** *  CapSense_sensorEnableMask[1] contains the masked bits for 
1264:.\Generated_Source\PSoC4/CapSense_CSHL.c **** *  sensors 8 through 15 (if needed), and so on.
1265:.\Generated_Source\PSoC4/CapSense_CSHL.c **** *  0 - sensor doesn't scan by CapSense_ScanEnabledWidgets().
1266:.\Generated_Source\PSoC4/CapSense_CSHL.c **** *  1 - sensor scans by CapSense_ScanEnabledWidgets().
1267:.\Generated_Source\PSoC4/CapSense_CSHL.c **** * 
1268:.\Generated_Source\PSoC4/CapSense_CSHL.c **** * Side Effects:
1269:.\Generated_Source\PSoC4/CapSense_CSHL.c **** *  None
1270:.\Generated_Source\PSoC4/CapSense_CSHL.c **** *
1271:.\Generated_Source\PSoC4/CapSense_CSHL.c **** *******************************************************************************/
1272:.\Generated_Source\PSoC4/CapSense_CSHL.c **** void CapSense_EnableWidget(uint32 widget)
1273:.\Generated_Source\PSoC4/CapSense_CSHL.c **** {
 1703              		.loc 1 1273 0
 1704              		.cfi_startproc
 1705 0000 80B5     		push	{r7, lr}
 1706              		.cfi_def_cfa_offset 8
 1707              		.cfi_offset 7, -8
 1708              		.cfi_offset 14, -4
 1709 0002 84B0     		sub	sp, sp, #16
 1710              		.cfi_def_cfa_offset 24
 1711 0004 00AF     		add	r7, sp, #0
 1712              		.cfi_def_cfa_register 7
 1713 0006 7860     		str	r0, [r7, #4]
1274:.\Generated_Source\PSoC4/CapSense_CSHL.c **** 
1275:.\Generated_Source\PSoC4/CapSense_CSHL.c ****     uint8 rawIndex = CapSense_rawDataIndex[widget];
 1714              		.loc 1 1275 0
 1715 0008 3B1C     		mov	r3, r7
 1716 000a 0F33     		add	r3, r3, #15
 1717 000c 0022     		mov	r2, #0
 1718 000e 1A70     		strb	r2, [r3]
1276:.\Generated_Source\PSoC4/CapSense_CSHL.c ****     uint8 numOfSensors = CapSense_numberOfSensors[widget] + rawIndex;
 1719              		.loc 1 1276 0
 1720 0010 0121     		mov	r1, #1
 1721 0012 3B1C     		mov	r3, r7
 1722 0014 0E33     		add	r3, r3, #14
 1723 0016 3A1C     		mov	r2, r7
 1724 0018 0F32     		add	r2, r2, #15
 1725 001a 1278     		ldrb	r2, [r2]
 1726 001c 8A18     		add	r2, r1, r2
 1727 001e 1A70     		strb	r2, [r3]
 1728              	.L113:
1277:.\Generated_Source\PSoC4/CapSense_CSHL.c ****     
1278:.\Generated_Source\PSoC4/CapSense_CSHL.c ****     /* Enable all sensors of widget */
ARM GAS  C:\Users\jsing\AppData\Local\Temp\ccHQxQnh.s 			page 54


1279:.\Generated_Source\PSoC4/CapSense_CSHL.c ****     do
1280:.\Generated_Source\PSoC4/CapSense_CSHL.c ****     {
1281:.\Generated_Source\PSoC4/CapSense_CSHL.c ****         CapSense_SetBitValue(CapSense_sensorEnableMask, (uint32)rawIndex, 1u);
 1729              		.loc 1 1281 0 discriminator 1
 1730 0020 3B1C     		mov	r3, r7
 1731 0022 0F33     		add	r3, r3, #15
 1732 0024 1B78     		ldrb	r3, [r3]
 1733 0026 0C4A     		ldr	r2, .L114
 1734 0028 101C     		mov	r0, r2
 1735 002a 191C     		mov	r1, r3
 1736 002c 0122     		mov	r2, #1
 1737 002e FFF7FEFF 		bl	CapSense_SetBitValue
1282:.\Generated_Source\PSoC4/CapSense_CSHL.c ****         rawIndex++;
 1738              		.loc 1 1282 0 discriminator 1
 1739 0032 3B1C     		mov	r3, r7
 1740 0034 0F33     		add	r3, r3, #15
 1741 0036 1A78     		ldrb	r2, [r3]
 1742 0038 3B1C     		mov	r3, r7
 1743 003a 0F33     		add	r3, r3, #15
 1744 003c 0132     		add	r2, r2, #1
 1745 003e 1A70     		strb	r2, [r3]
1283:.\Generated_Source\PSoC4/CapSense_CSHL.c ****     }
1284:.\Generated_Source\PSoC4/CapSense_CSHL.c ****     while(rawIndex < numOfSensors);
 1746              		.loc 1 1284 0 discriminator 1
 1747 0040 3A1C     		mov	r2, r7
 1748 0042 0F32     		add	r2, r2, #15
 1749 0044 3B1C     		mov	r3, r7
 1750 0046 0E33     		add	r3, r3, #14
 1751 0048 1278     		ldrb	r2, [r2]
 1752 004a 1B78     		ldrb	r3, [r3]
 1753 004c 9A42     		cmp	r2, r3
 1754 004e E7D3     		bcc	.L113
1285:.\Generated_Source\PSoC4/CapSense_CSHL.c **** }
 1755              		.loc 1 1285 0
 1756 0050 BD46     		mov	sp, r7
 1757 0052 04B0     		add	sp, sp, #16
 1758              		@ sp needed
 1759 0054 80BD     		pop	{r7, pc}
 1760              	.L115:
 1761 0056 C046     		.align	2
 1762              	.L114:
 1763 0058 00000000 		.word	CapSense_sensorEnableMask
 1764              		.cfi_endproc
 1765              	.LFE60:
 1766              		.size	CapSense_EnableWidget, .-CapSense_EnableWidget
 1767              		.section	.text.CapSense_DisableWidget,"ax",%progbits
 1768              		.align	2
 1769              		.global	CapSense_DisableWidget
 1770              		.code	16
 1771              		.thumb_func
 1772              		.type	CapSense_DisableWidget, %function
 1773              	CapSense_DisableWidget:
 1774              	.LFB61:
1286:.\Generated_Source\PSoC4/CapSense_CSHL.c **** 
1287:.\Generated_Source\PSoC4/CapSense_CSHL.c **** 
1288:.\Generated_Source\PSoC4/CapSense_CSHL.c **** /*******************************************************************************
1289:.\Generated_Source\PSoC4/CapSense_CSHL.c **** * Function Name: CapSense_DisableWidget
ARM GAS  C:\Users\jsing\AppData\Local\Temp\ccHQxQnh.s 			page 55


1290:.\Generated_Source\PSoC4/CapSense_CSHL.c **** ********************************************************************************
1291:.\Generated_Source\PSoC4/CapSense_CSHL.c **** *
1292:.\Generated_Source\PSoC4/CapSense_CSHL.c **** * Summary:
1293:.\Generated_Source\PSoC4/CapSense_CSHL.c **** *  Disables all the widget elements (sensors) from the scanning process.
1294:.\Generated_Source\PSoC4/CapSense_CSHL.c **** *
1295:.\Generated_Source\PSoC4/CapSense_CSHL.c **** * Parameters:
1296:.\Generated_Source\PSoC4/CapSense_CSHL.c **** *  widget:  widget number.
1297:.\Generated_Source\PSoC4/CapSense_CSHL.c **** *
1298:.\Generated_Source\PSoC4/CapSense_CSHL.c **** * Return:
1299:.\Generated_Source\PSoC4/CapSense_CSHL.c **** *  None
1300:.\Generated_Source\PSoC4/CapSense_CSHL.c **** *
1301:.\Generated_Source\PSoC4/CapSense_CSHL.c **** * Global Variables:
1302:.\Generated_Source\PSoC4/CapSense_CSHL.c **** *  CapSense_sensorEnableMask[] - used to store the sensor scanning 
1303:.\Generated_Source\PSoC4/CapSense_CSHL.c **** *  state.
1304:.\Generated_Source\PSoC4/CapSense_CSHL.c **** *  CapSense_sensorEnableMask[0] contains the masked bits for sensors 
1305:.\Generated_Source\PSoC4/CapSense_CSHL.c **** *  0 through 7 (sensor 0 is bit 0, sensor 1 is bit 1).
1306:.\Generated_Source\PSoC4/CapSense_CSHL.c **** *  CapSense_sensorEnableMask[1] contains the masked bits for 
1307:.\Generated_Source\PSoC4/CapSense_CSHL.c **** *  sensors 8 through 15 (if needed), and so on.
1308:.\Generated_Source\PSoC4/CapSense_CSHL.c **** *  0 - sensor isn't scanned by CapSense_ScanEnabledWidgets().
1309:.\Generated_Source\PSoC4/CapSense_CSHL.c **** *  1 - sensor is scanned by CapSense_ScanEnabledWidgets().
1310:.\Generated_Source\PSoC4/CapSense_CSHL.c **** * 
1311:.\Generated_Source\PSoC4/CapSense_CSHL.c **** * Side Effects:
1312:.\Generated_Source\PSoC4/CapSense_CSHL.c **** *  None
1313:.\Generated_Source\PSoC4/CapSense_CSHL.c **** *
1314:.\Generated_Source\PSoC4/CapSense_CSHL.c **** *******************************************************************************/
1315:.\Generated_Source\PSoC4/CapSense_CSHL.c **** void CapSense_DisableWidget(uint32 widget)
1316:.\Generated_Source\PSoC4/CapSense_CSHL.c **** {
 1775              		.loc 1 1316 0
 1776              		.cfi_startproc
 1777 0000 80B5     		push	{r7, lr}
 1778              		.cfi_def_cfa_offset 8
 1779              		.cfi_offset 7, -8
 1780              		.cfi_offset 14, -4
 1781 0002 84B0     		sub	sp, sp, #16
 1782              		.cfi_def_cfa_offset 24
 1783 0004 00AF     		add	r7, sp, #0
 1784              		.cfi_def_cfa_register 7
 1785 0006 7860     		str	r0, [r7, #4]
1317:.\Generated_Source\PSoC4/CapSense_CSHL.c ****     uint8 rawIndex = CapSense_rawDataIndex[widget];
 1786              		.loc 1 1317 0
 1787 0008 3B1C     		mov	r3, r7
 1788 000a 0F33     		add	r3, r3, #15
 1789 000c 0022     		mov	r2, #0
 1790 000e 1A70     		strb	r2, [r3]
1318:.\Generated_Source\PSoC4/CapSense_CSHL.c ****     uint8 numOfSensors = CapSense_numberOfSensors[widget] + rawIndex;
 1791              		.loc 1 1318 0
 1792 0010 0121     		mov	r1, #1
 1793 0012 3B1C     		mov	r3, r7
 1794 0014 0E33     		add	r3, r3, #14
 1795 0016 3A1C     		mov	r2, r7
 1796 0018 0F32     		add	r2, r2, #15
 1797 001a 1278     		ldrb	r2, [r2]
 1798 001c 8A18     		add	r2, r1, r2
 1799 001e 1A70     		strb	r2, [r3]
 1800              	.L117:
1319:.\Generated_Source\PSoC4/CapSense_CSHL.c ****    
1320:.\Generated_Source\PSoC4/CapSense_CSHL.c ****     /* Disable all sensors of widget */
ARM GAS  C:\Users\jsing\AppData\Local\Temp\ccHQxQnh.s 			page 56


1321:.\Generated_Source\PSoC4/CapSense_CSHL.c ****     do
1322:.\Generated_Source\PSoC4/CapSense_CSHL.c ****     {
1323:.\Generated_Source\PSoC4/CapSense_CSHL.c **** 
1324:.\Generated_Source\PSoC4/CapSense_CSHL.c ****         CapSense_SetBitValue(CapSense_sensorEnableMask, (uint32)rawIndex, 0u);
 1801              		.loc 1 1324 0 discriminator 1
 1802 0020 3B1C     		mov	r3, r7
 1803 0022 0F33     		add	r3, r3, #15
 1804 0024 1B78     		ldrb	r3, [r3]
 1805 0026 0C4A     		ldr	r2, .L118
 1806 0028 101C     		mov	r0, r2
 1807 002a 191C     		mov	r1, r3
 1808 002c 0022     		mov	r2, #0
 1809 002e FFF7FEFF 		bl	CapSense_SetBitValue
1325:.\Generated_Source\PSoC4/CapSense_CSHL.c ****         rawIndex++;
 1810              		.loc 1 1325 0 discriminator 1
 1811 0032 3B1C     		mov	r3, r7
 1812 0034 0F33     		add	r3, r3, #15
 1813 0036 1A78     		ldrb	r2, [r3]
 1814 0038 3B1C     		mov	r3, r7
 1815 003a 0F33     		add	r3, r3, #15
 1816 003c 0132     		add	r2, r2, #1
 1817 003e 1A70     		strb	r2, [r3]
1326:.\Generated_Source\PSoC4/CapSense_CSHL.c ****     }
1327:.\Generated_Source\PSoC4/CapSense_CSHL.c ****     while(rawIndex < numOfSensors);
 1818              		.loc 1 1327 0 discriminator 1
 1819 0040 3A1C     		mov	r2, r7
 1820 0042 0F32     		add	r2, r2, #15
 1821 0044 3B1C     		mov	r3, r7
 1822 0046 0E33     		add	r3, r3, #14
 1823 0048 1278     		ldrb	r2, [r2]
 1824 004a 1B78     		ldrb	r3, [r3]
 1825 004c 9A42     		cmp	r2, r3
 1826 004e E7D3     		bcc	.L117
1328:.\Generated_Source\PSoC4/CapSense_CSHL.c **** }
 1827              		.loc 1 1328 0
 1828 0050 BD46     		mov	sp, r7
 1829 0052 04B0     		add	sp, sp, #16
 1830              		@ sp needed
 1831 0054 80BD     		pop	{r7, pc}
 1832              	.L119:
 1833 0056 C046     		.align	2
 1834              	.L118:
 1835 0058 00000000 		.word	CapSense_sensorEnableMask
 1836              		.cfi_endproc
 1837              	.LFE61:
 1838              		.size	CapSense_DisableWidget, .-CapSense_DisableWidget
 1839              		.section	.text.CapSense_MedianFilter,"ax",%progbits
 1840              		.align	2
 1841              		.global	CapSense_MedianFilter
 1842              		.code	16
 1843              		.thumb_func
 1844              		.type	CapSense_MedianFilter, %function
 1845              	CapSense_MedianFilter:
 1846              	.LFB62:
1329:.\Generated_Source\PSoC4/CapSense_CSHL.c **** 
1330:.\Generated_Source\PSoC4/CapSense_CSHL.c **** 
1331:.\Generated_Source\PSoC4/CapSense_CSHL.c **** #if(CapSense_TOTAL_CENTROIDS_BASIC_COUNT)
ARM GAS  C:\Users\jsing\AppData\Local\Temp\ccHQxQnh.s 			page 57


1332:.\Generated_Source\PSoC4/CapSense_CSHL.c ****     /*******************************************************************************
1333:.\Generated_Source\PSoC4/CapSense_CSHL.c ****     * Function Name: CapSense_FindMaximum
1334:.\Generated_Source\PSoC4/CapSense_CSHL.c ****     ********************************************************************************
1335:.\Generated_Source\PSoC4/CapSense_CSHL.c ****     *
1336:.\Generated_Source\PSoC4/CapSense_CSHL.c ****     * Summary:
1337:.\Generated_Source\PSoC4/CapSense_CSHL.c ****     *  Finds the index of the maximum element within a defined centroid. Checks 
1338:.\Generated_Source\PSoC4/CapSense_CSHL.c ****     *  CapSense_sensorSignal[] within a defined centroid and 
1339:.\Generated_Source\PSoC4/CapSense_CSHL.c ****     *  returns the index of the maximum element. The values below the finger threshold are 
1340:.\Generated_Source\PSoC4/CapSense_CSHL.c ****     *  ignored.
1341:.\Generated_Source\PSoC4/CapSense_CSHL.c ****     *  The centroid is defined by offset of the first element and a number of elements - count.
1342:.\Generated_Source\PSoC4/CapSense_CSHL.c ****     *  The diplexed centroid requires at least two consecutive elements above
1343:.\Generated_Source\PSoC4/CapSense_CSHL.c ****     *  FingerThreshold to find the index of the maximum element.
1344:.\Generated_Source\PSoC4/CapSense_CSHL.c ****     * 
1345:.\Generated_Source\PSoC4/CapSense_CSHL.c ****     * Parameters:
1346:.\Generated_Source\PSoC4/CapSense_CSHL.c ****     *  offset:  Start index of centroid in CapSense_sensorSignal[] array.
1347:.\Generated_Source\PSoC4/CapSense_CSHL.c ****     *  count:   number of elements within centroid.
1348:.\Generated_Source\PSoC4/CapSense_CSHL.c ****     *  fingerThreshold:  Finger threshold.
1349:.\Generated_Source\PSoC4/CapSense_CSHL.c ****     *  diplex:   pointer to diplex table.
1350:.\Generated_Source\PSoC4/CapSense_CSHL.c ****     * 
1351:.\Generated_Source\PSoC4/CapSense_CSHL.c ****     * Return:
1352:.\Generated_Source\PSoC4/CapSense_CSHL.c ****     *  Returns the index of the maximum element within a defined centroid.
1353:.\Generated_Source\PSoC4/CapSense_CSHL.c ****     *  If the index of the maximum element isn't found it returns 0xFF.
1354:.\Generated_Source\PSoC4/CapSense_CSHL.c **** 	*
1355:.\Generated_Source\PSoC4/CapSense_CSHL.c **** 	* Global Variables:
1356:.\Generated_Source\PSoC4/CapSense_CSHL.c **** 	*  CapSense_startOfSlider[] - contains the index of the first slider element
1357:.\Generated_Source\PSoC4/CapSense_CSHL.c **** 	* 
1358:.\Generated_Source\PSoC4/CapSense_CSHL.c **** 	* Side Effects: 
1359:.\Generated_Source\PSoC4/CapSense_CSHL.c **** 	*  None
1360:.\Generated_Source\PSoC4/CapSense_CSHL.c **** 	* 
1361:.\Generated_Source\PSoC4/CapSense_CSHL.c ****     *******************************************************************************/
1362:.\Generated_Source\PSoC4/CapSense_CSHL.c **** 	#if (CapSense_IS_DIPLEX_SLIDER)
1363:.\Generated_Source\PSoC4/CapSense_CSHL.c **** 		uint8 CapSense_FindMaximum(uint8 offset, uint8 count, uint8 fingerThreshold, const uint8 *diplex)
1364:.\Generated_Source\PSoC4/CapSense_CSHL.c **** 	#else 
1365:.\Generated_Source\PSoC4/CapSense_CSHL.c **** 		uint8 CapSense_FindMaximum(uint8 offset, uint8 count, uint8 fingerThreshold)
1366:.\Generated_Source\PSoC4/CapSense_CSHL.c **** 	#endif /* (CapSense_IS_DIPLEX_SLIDER) */
1367:.\Generated_Source\PSoC4/CapSense_CSHL.c ****     {
1368:.\Generated_Source\PSoC4/CapSense_CSHL.c ****         uint8 i;
1369:.\Generated_Source\PSoC4/CapSense_CSHL.c ****         #if (CapSense_IS_DIPLEX_SLIDER)        
1370:.\Generated_Source\PSoC4/CapSense_CSHL.c ****             uint8 curPos = 0u;
1371:.\Generated_Source\PSoC4/CapSense_CSHL.c ****             /* No centroid at Start */
1372:.\Generated_Source\PSoC4/CapSense_CSHL.c ****             uint8 curCntrdSize = 0u;
1373:.\Generated_Source\PSoC4/CapSense_CSHL.c ****             uint8 curCtrdStartPos = CapSense_MAXIMUM_CENTROID;
1374:.\Generated_Source\PSoC4/CapSense_CSHL.c ****             /* Biggest centroid is zero */
1375:.\Generated_Source\PSoC4/CapSense_CSHL.c ****             uint8 biggestCtrdSize = 0u;
1376:.\Generated_Source\PSoC4/CapSense_CSHL.c ****             uint8 biggestCtrdStartPos = 0u;
1377:.\Generated_Source\PSoC4/CapSense_CSHL.c ****         #endif /* (CapSense_IS_DIPLEX_SLIDER) */
1378:.\Generated_Source\PSoC4/CapSense_CSHL.c ****         uint8 maximum = CapSense_MAXIMUM_CENTROID;
1379:.\Generated_Source\PSoC4/CapSense_CSHL.c **** 		
1380:.\Generated_Source\PSoC4/CapSense_CSHL.c ****         uint8 temp = 0u;
1381:.\Generated_Source\PSoC4/CapSense_CSHL.c ****         uint8 *startOfSlider = &CapSense_sensorSignal[offset];
1382:.\Generated_Source\PSoC4/CapSense_CSHL.c **** 
1383:.\Generated_Source\PSoC4/CapSense_CSHL.c ****         #if (CapSense_IS_DIPLEX_SLIDER)        
1384:.\Generated_Source\PSoC4/CapSense_CSHL.c ****             if(diplex != 0u)
1385:.\Generated_Source\PSoC4/CapSense_CSHL.c ****             {
1386:.\Generated_Source\PSoC4/CapSense_CSHL.c ****                 /* Initialize */
1387:.\Generated_Source\PSoC4/CapSense_CSHL.c ****                 i = 0u;
1388:.\Generated_Source\PSoC4/CapSense_CSHL.c ****                 
ARM GAS  C:\Users\jsing\AppData\Local\Temp\ccHQxQnh.s 			page 58


1389:.\Generated_Source\PSoC4/CapSense_CSHL.c ****                 /* Make slider x2 as Diplexed */
1390:.\Generated_Source\PSoC4/CapSense_CSHL.c ****                 count <<= 1u;
1391:.\Generated_Source\PSoC4/CapSense_CSHL.c ****                 while(1u)
1392:.\Generated_Source\PSoC4/CapSense_CSHL.c ****                 { 
1393:.\Generated_Source\PSoC4/CapSense_CSHL.c ****                     if (startOfSlider[curPos] > 0u)    /* Looking for centroids */
1394:.\Generated_Source\PSoC4/CapSense_CSHL.c ****                     {
1395:.\Generated_Source\PSoC4/CapSense_CSHL.c ****                         if (curCtrdStartPos == CapSense_MAXIMUM_CENTROID)
1396:.\Generated_Source\PSoC4/CapSense_CSHL.c ****                         {
1397:.\Generated_Source\PSoC4/CapSense_CSHL.c ****                             /* Start of centroid */
1398:.\Generated_Source\PSoC4/CapSense_CSHL.c ****                             curCtrdStartPos = i;
1399:.\Generated_Source\PSoC4/CapSense_CSHL.c ****                             curCntrdSize++;
1400:.\Generated_Source\PSoC4/CapSense_CSHL.c ****                         }
1401:.\Generated_Source\PSoC4/CapSense_CSHL.c ****                         else
1402:.\Generated_Source\PSoC4/CapSense_CSHL.c ****                         {
1403:.\Generated_Source\PSoC4/CapSense_CSHL.c ****                             curCntrdSize++;
1404:.\Generated_Source\PSoC4/CapSense_CSHL.c ****                         }
1405:.\Generated_Source\PSoC4/CapSense_CSHL.c ****                     }
1406:.\Generated_Source\PSoC4/CapSense_CSHL.c ****                     else   /* Select biggest and indicate zero start */
1407:.\Generated_Source\PSoC4/CapSense_CSHL.c ****                     {          
1408:.\Generated_Source\PSoC4/CapSense_CSHL.c ****                         if(curCntrdSize > 0u)
1409:.\Generated_Source\PSoC4/CapSense_CSHL.c ****                         {
1410:.\Generated_Source\PSoC4/CapSense_CSHL.c ****                             /* We are at the end of current */
1411:.\Generated_Source\PSoC4/CapSense_CSHL.c ****                             if(curCntrdSize > biggestCtrdSize)
1412:.\Generated_Source\PSoC4/CapSense_CSHL.c ****                             {
1413:.\Generated_Source\PSoC4/CapSense_CSHL.c ****                                 biggestCtrdSize = curCntrdSize;
1414:.\Generated_Source\PSoC4/CapSense_CSHL.c ****                                 biggestCtrdStartPos = curCtrdStartPos;
1415:.\Generated_Source\PSoC4/CapSense_CSHL.c ****                             }
1416:.\Generated_Source\PSoC4/CapSense_CSHL.c ****                             
1417:.\Generated_Source\PSoC4/CapSense_CSHL.c ****                             curCntrdSize = 0u;
1418:.\Generated_Source\PSoC4/CapSense_CSHL.c ****                             curCtrdStartPos = CapSense_MAXIMUM_CENTROID;
1419:.\Generated_Source\PSoC4/CapSense_CSHL.c ****                         }
1420:.\Generated_Source\PSoC4/CapSense_CSHL.c ****                     }
1421:.\Generated_Source\PSoC4/CapSense_CSHL.c ****                     
1422:.\Generated_Source\PSoC4/CapSense_CSHL.c ****                     i++; 
1423:.\Generated_Source\PSoC4/CapSense_CSHL.c ****                     curPos = diplex[i];
1424:.\Generated_Source\PSoC4/CapSense_CSHL.c ****                     if(i == count)
1425:.\Generated_Source\PSoC4/CapSense_CSHL.c ****                     {
1426:.\Generated_Source\PSoC4/CapSense_CSHL.c ****                         break;
1427:.\Generated_Source\PSoC4/CapSense_CSHL.c ****                     }            
1428:.\Generated_Source\PSoC4/CapSense_CSHL.c ****                 }
1429:.\Generated_Source\PSoC4/CapSense_CSHL.c ****                     
1430:.\Generated_Source\PSoC4/CapSense_CSHL.c ****                     /* Find biggest centroid if two are same size, last one wins
1431:.\Generated_Source\PSoC4/CapSense_CSHL.c ****                        We are at the end of current */
1432:.\Generated_Source\PSoC4/CapSense_CSHL.c ****                 if (curCntrdSize >= biggestCtrdSize) 
1433:.\Generated_Source\PSoC4/CapSense_CSHL.c ****                 {
1434:.\Generated_Source\PSoC4/CapSense_CSHL.c ****                     biggestCtrdSize = curCntrdSize;
1435:.\Generated_Source\PSoC4/CapSense_CSHL.c ****                     biggestCtrdStartPos = curCtrdStartPos;
1436:.\Generated_Source\PSoC4/CapSense_CSHL.c ****                 }
1437:.\Generated_Source\PSoC4/CapSense_CSHL.c ****             }
1438:.\Generated_Source\PSoC4/CapSense_CSHL.c ****             else
1439:.\Generated_Source\PSoC4/CapSense_CSHL.c ****             {
1440:.\Generated_Source\PSoC4/CapSense_CSHL.c ****                 /* Without diplexing */ 
1441:.\Generated_Source\PSoC4/CapSense_CSHL.c ****                 biggestCtrdSize = count;
1442:.\Generated_Source\PSoC4/CapSense_CSHL.c ****             }
1443:.\Generated_Source\PSoC4/CapSense_CSHL.c ****                         
1444:.\Generated_Source\PSoC4/CapSense_CSHL.c **** 
1445:.\Generated_Source\PSoC4/CapSense_CSHL.c ****             /* Check centroid size */
ARM GAS  C:\Users\jsing\AppData\Local\Temp\ccHQxQnh.s 			page 59


1446:.\Generated_Source\PSoC4/CapSense_CSHL.c ****             #if (CapSense_IS_NON_DIPLEX_SLIDER)
1447:.\Generated_Source\PSoC4/CapSense_CSHL.c ****                 if((biggestCtrdSize >= 2u) || ((biggestCtrdSize == 1u) && (diplex == 0u)))
1448:.\Generated_Source\PSoC4/CapSense_CSHL.c ****             #else                    
1449:.\Generated_Source\PSoC4/CapSense_CSHL.c ****                 if(biggestCtrdSize >= 2u)
1450:.\Generated_Source\PSoC4/CapSense_CSHL.c ****             #endif /* (CapSense_IS_NON_DIPLEX_SLIDER) */
1451:.\Generated_Source\PSoC4/CapSense_CSHL.c ****                 {
1452:.\Generated_Source\PSoC4/CapSense_CSHL.c ****                     for (i = biggestCtrdStartPos; i < (biggestCtrdStartPos + biggestCtrdSize); i++)
1453:.\Generated_Source\PSoC4/CapSense_CSHL.c ****                     {
1454:.\Generated_Source\PSoC4/CapSense_CSHL.c ****                         #if (CapSense_IS_DIPLEX_SLIDER && CapSense_IS_NON_DIPLEX_SLIDER)
1455:.\Generated_Source\PSoC4/CapSense_CSHL.c ****                             if (diplex == 0u)
1456:.\Generated_Source\PSoC4/CapSense_CSHL.c ****                             {
1457:.\Generated_Source\PSoC4/CapSense_CSHL.c ****                                 curPos = i;
1458:.\Generated_Source\PSoC4/CapSense_CSHL.c ****                             }
1459:.\Generated_Source\PSoC4/CapSense_CSHL.c ****                             else
1460:.\Generated_Source\PSoC4/CapSense_CSHL.c ****                             {
1461:.\Generated_Source\PSoC4/CapSense_CSHL.c ****                                 curPos = diplex[i];
1462:.\Generated_Source\PSoC4/CapSense_CSHL.c ****                             }                    
1463:.\Generated_Source\PSoC4/CapSense_CSHL.c ****                         #elif (CapSense_IS_DIPLEX_SLIDER)                    
1464:.\Generated_Source\PSoC4/CapSense_CSHL.c ****                             curPos = diplex[i];                    
1465:.\Generated_Source\PSoC4/CapSense_CSHL.c ****                         #endif /* (CapSense_IS_DIPLEX_SLIDER && CapSense_IS_NON_DIPLEX_SLIDER) */
1466:.\Generated_Source\PSoC4/CapSense_CSHL.c ****                         /* Looking for greater element within centroid */
1467:.\Generated_Source\PSoC4/CapSense_CSHL.c ****                         if(startOfSlider[curPos] > fingerThreshold)
1468:.\Generated_Source\PSoC4/CapSense_CSHL.c ****                         {
1469:.\Generated_Source\PSoC4/CapSense_CSHL.c ****                             if(startOfSlider[curPos] > temp)
1470:.\Generated_Source\PSoC4/CapSense_CSHL.c ****                             {
1471:.\Generated_Source\PSoC4/CapSense_CSHL.c ****                                 maximum = i;
1472:.\Generated_Source\PSoC4/CapSense_CSHL.c ****                                 temp = startOfSlider[curPos];
1473:.\Generated_Source\PSoC4/CapSense_CSHL.c ****                             }
1474:.\Generated_Source\PSoC4/CapSense_CSHL.c ****                         }
1475:.\Generated_Source\PSoC4/CapSense_CSHL.c ****                     }
1476:.\Generated_Source\PSoC4/CapSense_CSHL.c ****                 } 
1477:.\Generated_Source\PSoC4/CapSense_CSHL.c ****         #else
1478:.\Generated_Source\PSoC4/CapSense_CSHL.c ****             for (i = 0u; i < count; i++)
1479:.\Generated_Source\PSoC4/CapSense_CSHL.c ****             {                      
1480:.\Generated_Source\PSoC4/CapSense_CSHL.c ****                 /* Looking for greater element within centroid */
1481:.\Generated_Source\PSoC4/CapSense_CSHL.c ****                 if(startOfSlider[i] > fingerThreshold)
1482:.\Generated_Source\PSoC4/CapSense_CSHL.c ****                 {
1483:.\Generated_Source\PSoC4/CapSense_CSHL.c ****                     if(startOfSlider[i] > temp)
1484:.\Generated_Source\PSoC4/CapSense_CSHL.c ****                     {
1485:.\Generated_Source\PSoC4/CapSense_CSHL.c ****                         maximum = i;
1486:.\Generated_Source\PSoC4/CapSense_CSHL.c ****                         temp = startOfSlider[i];
1487:.\Generated_Source\PSoC4/CapSense_CSHL.c ****                     }
1488:.\Generated_Source\PSoC4/CapSense_CSHL.c ****                 }
1489:.\Generated_Source\PSoC4/CapSense_CSHL.c ****             }    
1490:.\Generated_Source\PSoC4/CapSense_CSHL.c ****         #endif /* (CapSense_IS_DIPLEX_SLIDER) */
1491:.\Generated_Source\PSoC4/CapSense_CSHL.c ****         return (maximum);
1492:.\Generated_Source\PSoC4/CapSense_CSHL.c ****     }
1493:.\Generated_Source\PSoC4/CapSense_CSHL.c ****     
1494:.\Generated_Source\PSoC4/CapSense_CSHL.c ****     
1495:.\Generated_Source\PSoC4/CapSense_CSHL.c ****     /*******************************************************************************
1496:.\Generated_Source\PSoC4/CapSense_CSHL.c ****     * Function Name: CapSense_CalcCentroid
1497:.\Generated_Source\PSoC4/CapSense_CSHL.c ****     ********************************************************************************
1498:.\Generated_Source\PSoC4/CapSense_CSHL.c ****     *
1499:.\Generated_Source\PSoC4/CapSense_CSHL.c ****     * Summary:
1500:.\Generated_Source\PSoC4/CapSense_CSHL.c ****     *  Returns a position value calculated according to the index of the maximum element and API
1501:.\Generated_Source\PSoC4/CapSense_CSHL.c ****     *  resolution.
1502:.\Generated_Source\PSoC4/CapSense_CSHL.c ****     *
ARM GAS  C:\Users\jsing\AppData\Local\Temp\ccHQxQnh.s 			page 60


1503:.\Generated_Source\PSoC4/CapSense_CSHL.c ****     * Parameters:
1504:.\Generated_Source\PSoC4/CapSense_CSHL.c ****     *  type:  widget type.
1505:.\Generated_Source\PSoC4/CapSense_CSHL.c ****     *  diplex:  pointer to diplex table.
1506:.\Generated_Source\PSoC4/CapSense_CSHL.c ****     *  maximum:  Index of maximum element within centroid.
1507:.\Generated_Source\PSoC4/CapSense_CSHL.c ****     *  offset:   Start index of centroid in CapSense_sensorSignal[] array.
1508:.\Generated_Source\PSoC4/CapSense_CSHL.c ****     *  count:    Number of elements within centroid.
1509:.\Generated_Source\PSoC4/CapSense_CSHL.c ****     *  resolution:  multiplicator calculated according to centroid type and
1510:.\Generated_Source\PSoC4/CapSense_CSHL.c ****     *  API resolution.
1511:.\Generated_Source\PSoC4/CapSense_CSHL.c ****     *  noiseThreshold:  Noise threshold.
1512:.\Generated_Source\PSoC4/CapSense_CSHL.c ****     * 
1513:.\Generated_Source\PSoC4/CapSense_CSHL.c ****     * Return:
1514:.\Generated_Source\PSoC4/CapSense_CSHL.c ****     *  Returns a position value of the slider.
1515:.\Generated_Source\PSoC4/CapSense_CSHL.c **** 	*
1516:.\Generated_Source\PSoC4/CapSense_CSHL.c **** 	* Side Effects: 
1517:.\Generated_Source\PSoC4/CapSense_CSHL.c **** 	*  None
1518:.\Generated_Source\PSoC4/CapSense_CSHL.c **** 	* 
1519:.\Generated_Source\PSoC4/CapSense_CSHL.c ****     *******************************************************************************/
1520:.\Generated_Source\PSoC4/CapSense_CSHL.c **** #if (CapSense_TOTAL_TRACKPAD_GESTURES_COUNT > 0u)
1521:.\Generated_Source\PSoC4/CapSense_CSHL.c ****     uint8 CapSense_CalcCentroid(uint8 maximum, uint8 offset, 
1522:.\Generated_Source\PSoC4/CapSense_CSHL.c ****                                         uint8 count, uint32 resolution, uint8 noiseThreshold)
1523:.\Generated_Source\PSoC4/CapSense_CSHL.c **** #else								
1524:.\Generated_Source\PSoC4/CapSense_CSHL.c ****     uint8 CapSense_CalcCentroid(uint8 maximum, uint8 offset, 
1525:.\Generated_Source\PSoC4/CapSense_CSHL.c ****                                         uint8 count, uint16 resolution, uint8 noiseThreshold)						
1526:.\Generated_Source\PSoC4/CapSense_CSHL.c **** #endif /* (CapSense_TOTAL_TRACKPAD_GESTURES_COUNT > 0u) */
1527:.\Generated_Source\PSoC4/CapSense_CSHL.c ****     {
1528:.\Generated_Source\PSoC4/CapSense_CSHL.c ****         #if ((CapSense_TOTAL_LINEAR_SLIDERS_COUNT > 0u) || (CapSense_TOTAL_TOUCH_PADS_BASIC_COUNT >
1529:.\Generated_Source\PSoC4/CapSense_CSHL.c ****             uint8 posPrev;
1530:.\Generated_Source\PSoC4/CapSense_CSHL.c ****             uint8 posNext;
1531:.\Generated_Source\PSoC4/CapSense_CSHL.c ****         #endif /* ((CapSense_TOTAL_LINEAR_SLIDERS_COUNT>0u) || (CapSense_TOTAL_TOUCH_PADS_BASIC_COU
1532:.\Generated_Source\PSoC4/CapSense_CSHL.c ****         
1533:.\Generated_Source\PSoC4/CapSense_CSHL.c ****         /* Helps during centroid calculation */
1534:.\Generated_Source\PSoC4/CapSense_CSHL.c ****         #if (CapSense_TOTAL_CENTROIDS_BASIC_COUNT)
1535:.\Generated_Source\PSoC4/CapSense_CSHL.c **** 		    static uint8 CapSense_centroid[3u];
1536:.\Generated_Source\PSoC4/CapSense_CSHL.c ****         #endif  /* (CapSense_TOTAL_CENTROIDS_BASIC_COUNT) */
1537:.\Generated_Source\PSoC4/CapSense_CSHL.c ****                
1538:.\Generated_Source\PSoC4/CapSense_CSHL.c ****         #if (CapSense_IS_DIPLEX_SLIDER)                
1539:.\Generated_Source\PSoC4/CapSense_CSHL.c ****             uint8 pos;
1540:.\Generated_Source\PSoC4/CapSense_CSHL.c ****         #endif /* (CapSense_IS_DIPLEX_SLIDER) */
1541:.\Generated_Source\PSoC4/CapSense_CSHL.c **** 
1542:.\Generated_Source\PSoC4/CapSense_CSHL.c ****         uint8 position;
1543:.\Generated_Source\PSoC4/CapSense_CSHL.c ****         uint32 numerator;
1544:.\Generated_Source\PSoC4/CapSense_CSHL.c ****         int32 denominator;
1545:.\Generated_Source\PSoC4/CapSense_CSHL.c **** 		
1546:.\Generated_Source\PSoC4/CapSense_CSHL.c **** 		uint8  *startOfSlider = &CapSense_sensorSignal[offset];
1547:.\Generated_Source\PSoC4/CapSense_CSHL.c **** 		
1548:.\Generated_Source\PSoC4/CapSense_CSHL.c ****         #if ((CapSense_TOTAL_LINEAR_SLIDERS_COUNT > 0u) || (CapSense_TOTAL_TOUCH_PADS_BASIC_COUNT >
1549:.\Generated_Source\PSoC4/CapSense_CSHL.c ****             posPrev = 0u;
1550:.\Generated_Source\PSoC4/CapSense_CSHL.c ****         #endif /* ((CapSense_TOTAL_LINEAR_SLIDERS_COUNT>0u) || (CapSense_TOTAL_TOUCH_PADS_BASIC_COU
1551:.\Generated_Source\PSoC4/CapSense_CSHL.c ****      
1552:.\Generated_Source\PSoC4/CapSense_CSHL.c ****         #if (CapSense_ADD_SLIDER_TYPE)
1553:.\Generated_Source\PSoC4/CapSense_CSHL.c ****             if(type == CapSense_TYPE_RADIAL_SLIDER)
1554:.\Generated_Source\PSoC4/CapSense_CSHL.c ****             {
1555:.\Generated_Source\PSoC4/CapSense_CSHL.c ****         #endif /* (CapSense_ADD_SLIDER_TYPE) */
1556:.\Generated_Source\PSoC4/CapSense_CSHL.c **** 
1557:.\Generated_Source\PSoC4/CapSense_CSHL.c ****             #if (CapSense_TOTAL_RADIAL_SLIDERS_COUNT > 0u)                
1558:.\Generated_Source\PSoC4/CapSense_CSHL.c ****                 /* Copy Signal to the centroid array */
1559:.\Generated_Source\PSoC4/CapSense_CSHL.c ****                 CapSense_centroid[CapSense_POS] = startOfSlider[maximum];
ARM GAS  C:\Users\jsing\AppData\Local\Temp\ccHQxQnh.s 			page 61


1560:.\Generated_Source\PSoC4/CapSense_CSHL.c ****                  
1561:.\Generated_Source\PSoC4/CapSense_CSHL.c ****                 /* Check borders for ROTARY Slider */
1562:.\Generated_Source\PSoC4/CapSense_CSHL.c ****                 if (maximum == 0u)                   /* Start of centroid */
1563:.\Generated_Source\PSoC4/CapSense_CSHL.c ****                 { 
1564:.\Generated_Source\PSoC4/CapSense_CSHL.c ****                     CapSense_centroid[CapSense_POS_PREV] = startOfSlider[count - 1u];
1565:.\Generated_Source\PSoC4/CapSense_CSHL.c ****                     CapSense_centroid[CapSense_POS_NEXT] = startOfSlider[1u];
1566:.\Generated_Source\PSoC4/CapSense_CSHL.c ****                 }
1567:.\Generated_Source\PSoC4/CapSense_CSHL.c ****                 else if (maximum == (count - 1u))    /* End of centroid */
1568:.\Generated_Source\PSoC4/CapSense_CSHL.c ****                 {
1569:.\Generated_Source\PSoC4/CapSense_CSHL.c ****                     CapSense_centroid[CapSense_POS_PREV] = startOfSlider[maximum - 1u];
1570:.\Generated_Source\PSoC4/CapSense_CSHL.c ****                     CapSense_centroid[CapSense_POS_NEXT] = startOfSlider[0u];
1571:.\Generated_Source\PSoC4/CapSense_CSHL.c ****                 }
1572:.\Generated_Source\PSoC4/CapSense_CSHL.c ****                 else                                /* Not first Not last */
1573:.\Generated_Source\PSoC4/CapSense_CSHL.c ****                 {
1574:.\Generated_Source\PSoC4/CapSense_CSHL.c ****                     CapSense_centroid[CapSense_POS_PREV] = startOfSlider[maximum - 1u];
1575:.\Generated_Source\PSoC4/CapSense_CSHL.c ****                     CapSense_centroid[CapSense_POS_NEXT] = startOfSlider[maximum + 1u];
1576:.\Generated_Source\PSoC4/CapSense_CSHL.c ****                 }
1577:.\Generated_Source\PSoC4/CapSense_CSHL.c ****             #endif /* (CapSense_TOTAL_RADIAL_SLIDERS_COUNT > 0u) */
1578:.\Generated_Source\PSoC4/CapSense_CSHL.c **** 
1579:.\Generated_Source\PSoC4/CapSense_CSHL.c ****         #if (CapSense_ADD_SLIDER_TYPE)
1580:.\Generated_Source\PSoC4/CapSense_CSHL.c ****             }
1581:.\Generated_Source\PSoC4/CapSense_CSHL.c ****             else
1582:.\Generated_Source\PSoC4/CapSense_CSHL.c ****             {
1583:.\Generated_Source\PSoC4/CapSense_CSHL.c ****         #endif /* (CapSense_ADD_SLIDER_TYPE) */
1584:.\Generated_Source\PSoC4/CapSense_CSHL.c **** 
1585:.\Generated_Source\PSoC4/CapSense_CSHL.c ****             #if ((CapSense_TOTAL_LINEAR_SLIDERS_COUNT > 0u) || (CapSense_TOTAL_TOUCH_PADS_BASIC_COU
1586:.\Generated_Source\PSoC4/CapSense_CSHL.c ****                 #if (CapSense_IS_DIPLEX_SLIDER && CapSense_IS_NON_DIPLEX_SLIDER)                   
1587:.\Generated_Source\PSoC4/CapSense_CSHL.c ****                     /* Calculate next and previous near to maximum */
1588:.\Generated_Source\PSoC4/CapSense_CSHL.c ****                     if(diplex == 0u)
1589:.\Generated_Source\PSoC4/CapSense_CSHL.c ****                     {
1590:.\Generated_Source\PSoC4/CapSense_CSHL.c ****                         pos     = maximum;
1591:.\Generated_Source\PSoC4/CapSense_CSHL.c ****                         posPrev = maximum - 1u;
1592:.\Generated_Source\PSoC4/CapSense_CSHL.c ****                         posNext = maximum + 1u; 
1593:.\Generated_Source\PSoC4/CapSense_CSHL.c ****                     }
1594:.\Generated_Source\PSoC4/CapSense_CSHL.c ****                     else
1595:.\Generated_Source\PSoC4/CapSense_CSHL.c ****                     {
1596:.\Generated_Source\PSoC4/CapSense_CSHL.c ****                         pos     = diplex[maximum];
1597:.\Generated_Source\PSoC4/CapSense_CSHL.c ****                         posPrev = diplex[maximum - 1u];
1598:.\Generated_Source\PSoC4/CapSense_CSHL.c ****                         posNext = diplex[maximum + 1u];
1599:.\Generated_Source\PSoC4/CapSense_CSHL.c ****                         count <<= 1u;
1600:.\Generated_Source\PSoC4/CapSense_CSHL.c ****                     }                    
1601:.\Generated_Source\PSoC4/CapSense_CSHL.c ****                 #elif (CapSense_IS_DIPLEX_SLIDER)
1602:.\Generated_Source\PSoC4/CapSense_CSHL.c ****                     /* Calculate next and previous near to maximum */
1603:.\Generated_Source\PSoC4/CapSense_CSHL.c ****                     pos     = diplex[maximum];
1604:.\Generated_Source\PSoC4/CapSense_CSHL.c ****                     posPrev = diplex[maximum - 1u];
1605:.\Generated_Source\PSoC4/CapSense_CSHL.c ****                     posNext = diplex[maximum + 1u];
1606:.\Generated_Source\PSoC4/CapSense_CSHL.c ****                     count <<= 1u;                    
1607:.\Generated_Source\PSoC4/CapSense_CSHL.c ****                 #else                    
1608:.\Generated_Source\PSoC4/CapSense_CSHL.c ****                     /* Calculate next and previous near to maximum */
1609:.\Generated_Source\PSoC4/CapSense_CSHL.c ****                     if (maximum >= 1u)
1610:.\Generated_Source\PSoC4/CapSense_CSHL.c ****                     {
1611:.\Generated_Source\PSoC4/CapSense_CSHL.c ****                         posPrev = maximum - 1u;
1612:.\Generated_Source\PSoC4/CapSense_CSHL.c ****                     }
1613:.\Generated_Source\PSoC4/CapSense_CSHL.c ****                     posNext = maximum + 1u;
1614:.\Generated_Source\PSoC4/CapSense_CSHL.c ****                 #endif /* (CapSense_IS_DIPLEX_SLIDER && CapSense_IS_NON_DIPLEX_SLIDER) */
1615:.\Generated_Source\PSoC4/CapSense_CSHL.c ****                         
1616:.\Generated_Source\PSoC4/CapSense_CSHL.c ****                 /* Copy Signal to the centroid array */
ARM GAS  C:\Users\jsing\AppData\Local\Temp\ccHQxQnh.s 			page 62


1617:.\Generated_Source\PSoC4/CapSense_CSHL.c ****                 #if (CapSense_IS_DIPLEX_SLIDER)
1618:.\Generated_Source\PSoC4/CapSense_CSHL.c ****                     CapSense_centroid[CapSense_POS] = startOfSlider[pos];
1619:.\Generated_Source\PSoC4/CapSense_CSHL.c ****                 #else
1620:.\Generated_Source\PSoC4/CapSense_CSHL.c ****                     CapSense_centroid[CapSense_POS] = startOfSlider[maximum];
1621:.\Generated_Source\PSoC4/CapSense_CSHL.c ****                 #endif /* (CapSense_IS_DIPLEX_SLIDER) */
1622:.\Generated_Source\PSoC4/CapSense_CSHL.c ****                     
1623:.\Generated_Source\PSoC4/CapSense_CSHL.c ****                 /* Check borders for LINEAR Slider */
1624:.\Generated_Source\PSoC4/CapSense_CSHL.c ****                 if (maximum == 0u)                   /* Start of centroid */
1625:.\Generated_Source\PSoC4/CapSense_CSHL.c ****                 { 
1626:.\Generated_Source\PSoC4/CapSense_CSHL.c ****                     CapSense_centroid[CapSense_POS_PREV] = 0u;
1627:.\Generated_Source\PSoC4/CapSense_CSHL.c ****                     CapSense_centroid[CapSense_POS_NEXT] = startOfSlider[posNext];
1628:.\Generated_Source\PSoC4/CapSense_CSHL.c ****                 }
1629:.\Generated_Source\PSoC4/CapSense_CSHL.c ****                 else if (maximum == ((count) - 1u)) /* End of centroid */
1630:.\Generated_Source\PSoC4/CapSense_CSHL.c ****                 {
1631:.\Generated_Source\PSoC4/CapSense_CSHL.c ****                     CapSense_centroid[CapSense_POS_PREV] = startOfSlider[posPrev];
1632:.\Generated_Source\PSoC4/CapSense_CSHL.c ****                     CapSense_centroid[CapSense_POS_NEXT] = 0u;
1633:.\Generated_Source\PSoC4/CapSense_CSHL.c ****                 }
1634:.\Generated_Source\PSoC4/CapSense_CSHL.c ****                 else                                /* Not first Not last */
1635:.\Generated_Source\PSoC4/CapSense_CSHL.c ****                 {
1636:.\Generated_Source\PSoC4/CapSense_CSHL.c ****                     CapSense_centroid[CapSense_POS_PREV] = startOfSlider[posPrev];
1637:.\Generated_Source\PSoC4/CapSense_CSHL.c ****                     CapSense_centroid[CapSense_POS_NEXT] = startOfSlider[posNext];
1638:.\Generated_Source\PSoC4/CapSense_CSHL.c ****                 }
1639:.\Generated_Source\PSoC4/CapSense_CSHL.c ****             #endif /* ((CapSense_TOTAL_LINEAR_SLIDERS_COUNT>0u)||(CapSense_TOTAL_TOUCH_PADS_BASIC_C
1640:.\Generated_Source\PSoC4/CapSense_CSHL.c **** 
1641:.\Generated_Source\PSoC4/CapSense_CSHL.c ****         #if (CapSense_ADD_SLIDER_TYPE)
1642:.\Generated_Source\PSoC4/CapSense_CSHL.c ****             }
1643:.\Generated_Source\PSoC4/CapSense_CSHL.c ****         #endif /* (CapSense_ADD_SLIDER_TYPE) */
1644:.\Generated_Source\PSoC4/CapSense_CSHL.c ****     
1645:.\Generated_Source\PSoC4/CapSense_CSHL.c ****         /* Subtract noiseThreshold */
1646:.\Generated_Source\PSoC4/CapSense_CSHL.c ****         if(CapSense_centroid[CapSense_POS_PREV] > noiseThreshold)
1647:.\Generated_Source\PSoC4/CapSense_CSHL.c ****         {
1648:.\Generated_Source\PSoC4/CapSense_CSHL.c ****             CapSense_centroid[CapSense_POS_PREV] -= noiseThreshold;
1649:.\Generated_Source\PSoC4/CapSense_CSHL.c ****         }
1650:.\Generated_Source\PSoC4/CapSense_CSHL.c ****         else
1651:.\Generated_Source\PSoC4/CapSense_CSHL.c ****         {
1652:.\Generated_Source\PSoC4/CapSense_CSHL.c ****             CapSense_centroid[CapSense_POS_PREV] = 0u;
1653:.\Generated_Source\PSoC4/CapSense_CSHL.c ****         }
1654:.\Generated_Source\PSoC4/CapSense_CSHL.c ****         
1655:.\Generated_Source\PSoC4/CapSense_CSHL.c ****         /* Maximum always greater than fingerThreshold, so greater than noiseThreshold */
1656:.\Generated_Source\PSoC4/CapSense_CSHL.c ****         CapSense_centroid[CapSense_POS] -= noiseThreshold;
1657:.\Generated_Source\PSoC4/CapSense_CSHL.c ****         
1658:.\Generated_Source\PSoC4/CapSense_CSHL.c ****         /* Subtract noiseThreshold */
1659:.\Generated_Source\PSoC4/CapSense_CSHL.c ****         if(CapSense_centroid[CapSense_POS_NEXT] > noiseThreshold)
1660:.\Generated_Source\PSoC4/CapSense_CSHL.c ****         {
1661:.\Generated_Source\PSoC4/CapSense_CSHL.c ****             CapSense_centroid[CapSense_POS_NEXT] -= noiseThreshold;
1662:.\Generated_Source\PSoC4/CapSense_CSHL.c ****         }
1663:.\Generated_Source\PSoC4/CapSense_CSHL.c ****         else
1664:.\Generated_Source\PSoC4/CapSense_CSHL.c ****         {
1665:.\Generated_Source\PSoC4/CapSense_CSHL.c ****             CapSense_centroid[CapSense_POS_NEXT] = 0u;
1666:.\Generated_Source\PSoC4/CapSense_CSHL.c ****         }
1667:.\Generated_Source\PSoC4/CapSense_CSHL.c ****         
1668:.\Generated_Source\PSoC4/CapSense_CSHL.c ****         
1669:.\Generated_Source\PSoC4/CapSense_CSHL.c ****         /* Si+1 - Si-1 */
1670:.\Generated_Source\PSoC4/CapSense_CSHL.c ****         numerator = (uint32) CapSense_centroid[CapSense_POS_NEXT] -
1671:.\Generated_Source\PSoC4/CapSense_CSHL.c ****                     (uint32) CapSense_centroid[CapSense_POS_PREV];
1672:.\Generated_Source\PSoC4/CapSense_CSHL.c **** 
1673:.\Generated_Source\PSoC4/CapSense_CSHL.c ****         /* Si+1 + Si + Si-1 */
ARM GAS  C:\Users\jsing\AppData\Local\Temp\ccHQxQnh.s 			page 63


1674:.\Generated_Source\PSoC4/CapSense_CSHL.c ****         denominator = (int32) CapSense_centroid[CapSense_POS_PREV] + 
1675:.\Generated_Source\PSoC4/CapSense_CSHL.c ****                       (int32) CapSense_centroid[CapSense_POS] + 
1676:.\Generated_Source\PSoC4/CapSense_CSHL.c ****                       (int32) CapSense_centroid[CapSense_POS_NEXT];
1677:.\Generated_Source\PSoC4/CapSense_CSHL.c ****         
1678:.\Generated_Source\PSoC4/CapSense_CSHL.c ****         /* (numerator/denominator) + maximum */
1679:.\Generated_Source\PSoC4/CapSense_CSHL.c ****         denominator = (((int32)(uint32)((uint32)numerator << 8u)/denominator) + (int32)(uint32)((ui
1680:.\Generated_Source\PSoC4/CapSense_CSHL.c **** 
1681:.\Generated_Source\PSoC4/CapSense_CSHL.c ****         #if(CapSense_TOTAL_RADIAL_SLIDERS_COUNT > 0u)
1682:.\Generated_Source\PSoC4/CapSense_CSHL.c ****             /* Only required for RADIAL Slider */
1683:.\Generated_Source\PSoC4/CapSense_CSHL.c ****             if(denominator < 0)
1684:.\Generated_Source\PSoC4/CapSense_CSHL.c ****             {
1685:.\Generated_Source\PSoC4/CapSense_CSHL.c ****                 denominator += (int32)((uint16)((uint16) count << 8u));
1686:.\Generated_Source\PSoC4/CapSense_CSHL.c ****             }
1687:.\Generated_Source\PSoC4/CapSense_CSHL.c ****         #endif /* (CapSense_TOTAL_RADIAL_SLIDERS_COUNT > 0u) */
1688:.\Generated_Source\PSoC4/CapSense_CSHL.c ****         
1689:.\Generated_Source\PSoC4/CapSense_CSHL.c ****         denominator *= (int16)resolution;
1690:.\Generated_Source\PSoC4/CapSense_CSHL.c ****         
1691:.\Generated_Source\PSoC4/CapSense_CSHL.c ****         /* Round result and put it to uint8 */
1692:.\Generated_Source\PSoC4/CapSense_CSHL.c ****         position = ((uint8) HI16((uint32)denominator + CapSense_CENTROID_ROUND_VALUE));
1693:.\Generated_Source\PSoC4/CapSense_CSHL.c **** 
1694:.\Generated_Source\PSoC4/CapSense_CSHL.c ****         return (position);
1695:.\Generated_Source\PSoC4/CapSense_CSHL.c ****     }    
1696:.\Generated_Source\PSoC4/CapSense_CSHL.c **** #endif /* (CapSense_TOTAL_CENTROIDS_BASIC_COUNT) */
1697:.\Generated_Source\PSoC4/CapSense_CSHL.c **** 
1698:.\Generated_Source\PSoC4/CapSense_CSHL.c **** 
1699:.\Generated_Source\PSoC4/CapSense_CSHL.c **** #if((CapSense_TOTAL_RADIAL_SLIDERS_COUNT > 0u) || (CapSense_TOTAL_LINEAR_SLIDERS_COUNT > 0u))
1700:.\Generated_Source\PSoC4/CapSense_CSHL.c ****     /*******************************************************************************
1701:.\Generated_Source\PSoC4/CapSense_CSHL.c ****     * Function Name: CapSense_GetCentroidPos
1702:.\Generated_Source\PSoC4/CapSense_CSHL.c ****     ********************************************************************************
1703:.\Generated_Source\PSoC4/CapSense_CSHL.c ****     *
1704:.\Generated_Source\PSoC4/CapSense_CSHL.c ****     * Summary:
1705:.\Generated_Source\PSoC4/CapSense_CSHL.c ****     *  Checks the CapSense_Signal[ ] array for a centroid within
1706:.\Generated_Source\PSoC4/CapSense_CSHL.c ****     *  a slider specified range. The centroid position is calculated according to the resolution
1707:.\Generated_Source\PSoC4/CapSense_CSHL.c ****     *  specified in the CapSense customizer. The position filters are applied to the
1708:.\Generated_Source\PSoC4/CapSense_CSHL.c ****     *  result if enabled.
1709:.\Generated_Source\PSoC4/CapSense_CSHL.c ****     *
1710:.\Generated_Source\PSoC4/CapSense_CSHL.c ****     * Parameters:
1711:.\Generated_Source\PSoC4/CapSense_CSHL.c ****     *  widget:  Widget number.
1712:.\Generated_Source\PSoC4/CapSense_CSHL.c ****     *  For every linear slider widget there are defines in this format:
1713:.\Generated_Source\PSoC4/CapSense_CSHL.c ****     *  #define CapSense_"widget_name"__LS           5
1714:.\Generated_Source\PSoC4/CapSense_CSHL.c ****     * 
1715:.\Generated_Source\PSoC4/CapSense_CSHL.c ****     * Return:
1716:.\Generated_Source\PSoC4/CapSense_CSHL.c ****     *  Returns a position value of the linear slider.
1717:.\Generated_Source\PSoC4/CapSense_CSHL.c **** 	*
1718:.\Generated_Source\PSoC4/CapSense_CSHL.c **** 	* Global Variables:
1719:.\Generated_Source\PSoC4/CapSense_CSHL.c **** 	*  None
1720:.\Generated_Source\PSoC4/CapSense_CSHL.c **** 	*
1721:.\Generated_Source\PSoC4/CapSense_CSHL.c ****     * Side Effects:
1722:.\Generated_Source\PSoC4/CapSense_CSHL.c ****     *  If any sensor within the slider widget is active, the function returns values
1723:.\Generated_Source\PSoC4/CapSense_CSHL.c ****     *  from zero to the API resolution value set in the CapSense customizer. If no
1724:.\Generated_Source\PSoC4/CapSense_CSHL.c ****     *  sensors are active, the function returns 0xFFFF. If an error occurs during
1725:.\Generated_Source\PSoC4/CapSense_CSHL.c ****     *  execution of the centroid/diplexing algorithm, the function returns 0xFFFF.
1726:.\Generated_Source\PSoC4/CapSense_CSHL.c ****     *  There are no checks of the widget type argument provided to this function.
1727:.\Generated_Source\PSoC4/CapSense_CSHL.c ****     *  The unproper widget type provided will cause unexpected position calculations.
1728:.\Generated_Source\PSoC4/CapSense_CSHL.c ****     *
1729:.\Generated_Source\PSoC4/CapSense_CSHL.c ****     * Note:
1730:.\Generated_Source\PSoC4/CapSense_CSHL.c ****     *  If noise counts on the slider segments are greater than the noise
ARM GAS  C:\Users\jsing\AppData\Local\Temp\ccHQxQnh.s 			page 64


1731:.\Generated_Source\PSoC4/CapSense_CSHL.c ****     *  threshold, this subroutine may generate a false centroid result. The noise
1732:.\Generated_Source\PSoC4/CapSense_CSHL.c ****     *  threshold should be set carefully (high enough above the noise level) so
1733:.\Generated_Source\PSoC4/CapSense_CSHL.c ****     *  that noise will not generate a false centroid.
1734:.\Generated_Source\PSoC4/CapSense_CSHL.c ****     *******************************************************************************/
1735:.\Generated_Source\PSoC4/CapSense_CSHL.c ****     uint16 CapSense_GetCentroidPos(uint32 widget)
1736:.\Generated_Source\PSoC4/CapSense_CSHL.c ****     {
1737:.\Generated_Source\PSoC4/CapSense_CSHL.c ****         #if (CapSense_IS_DIPLEX_SLIDER)
1738:.\Generated_Source\PSoC4/CapSense_CSHL.c ****             const uint8 *diplex;
1739:.\Generated_Source\PSoC4/CapSense_CSHL.c ****         #endif /* (CapSense_IS_DIPLEX_SLIDER) */
1740:.\Generated_Source\PSoC4/CapSense_CSHL.c ****                 
1741:.\Generated_Source\PSoC4/CapSense_CSHL.c ****         #if (0u != CapSense_LINEAR_SLIDERS_POS_FILTERS_MASK)
1742:.\Generated_Source\PSoC4/CapSense_CSHL.c ****             uint8 posIndex;
1743:.\Generated_Source\PSoC4/CapSense_CSHL.c ****             uint8 firstTimeIndex = CapSense_posFiltersData[widget];
1744:.\Generated_Source\PSoC4/CapSense_CSHL.c ****             uint8 posFiltersMask = CapSense_posFiltersMask[widget];  
1745:.\Generated_Source\PSoC4/CapSense_CSHL.c ****         #endif /* (0u != CapSense_LINEAR_SLIDERS_POS_FILTERS_MASK) */
1746:.\Generated_Source\PSoC4/CapSense_CSHL.c **** 
1747:.\Generated_Source\PSoC4/CapSense_CSHL.c ****         #if ((0u != (CapSense_MEDIAN_FILTER & CapSense_LINEAR_SLIDERS_POS_FILTERS_MASK)) || \
1748:.\Generated_Source\PSoC4/CapSense_CSHL.c ****              (0u != (CapSense_AVERAGING_FILTER & CapSense_LINEAR_SLIDERS_POS_FILTERS_MASK)))
1749:.\Generated_Source\PSoC4/CapSense_CSHL.c ****             uint8 tempPos;
1750:.\Generated_Source\PSoC4/CapSense_CSHL.c ****         #endif /* ((0u != (CapSense_MEDIAN_FILTER & CapSense_LINEAR_SLIDERS_POS_FILTERS_MASK)) || \
1751:.\Generated_Source\PSoC4/CapSense_CSHL.c ****                *   (0u != (CapSense_AVERAGING_FILTER & CapSense_LINEAR_SLIDERS_POS_FILTERS_MASK)))
1752:.\Generated_Source\PSoC4/CapSense_CSHL.c ****                */
1753:.\Generated_Source\PSoC4/CapSense_CSHL.c **** 
1754:.\Generated_Source\PSoC4/CapSense_CSHL.c ****         uint8 maximum;
1755:.\Generated_Source\PSoC4/CapSense_CSHL.c ****         uint16 position;
1756:.\Generated_Source\PSoC4/CapSense_CSHL.c ****         uint8 offset = CapSense_rawDataIndex[widget];
1757:.\Generated_Source\PSoC4/CapSense_CSHL.c ****         uint8 count = CapSense_numberOfSensors[widget];
1758:.\Generated_Source\PSoC4/CapSense_CSHL.c ****                         
1759:.\Generated_Source\PSoC4/CapSense_CSHL.c ****         #if (CapSense_IS_DIPLEX_SLIDER)
1760:.\Generated_Source\PSoC4/CapSense_CSHL.c ****             if(widget < CapSense_TOTAL_DIPLEXED_SLIDERS_COUNT)
1761:.\Generated_Source\PSoC4/CapSense_CSHL.c ****             {
1762:.\Generated_Source\PSoC4/CapSense_CSHL.c ****                 maximum = CapSense_diplexTable[widget];
1763:.\Generated_Source\PSoC4/CapSense_CSHL.c ****                 diplex = &CapSense_diplexTable[maximum];
1764:.\Generated_Source\PSoC4/CapSense_CSHL.c ****             }
1765:.\Generated_Source\PSoC4/CapSense_CSHL.c ****             else
1766:.\Generated_Source\PSoC4/CapSense_CSHL.c ****             {
1767:.\Generated_Source\PSoC4/CapSense_CSHL.c ****                 diplex = 0u;
1768:.\Generated_Source\PSoC4/CapSense_CSHL.c ****             }
1769:.\Generated_Source\PSoC4/CapSense_CSHL.c ****         #endif /* (CapSense_IS_DIPLEX_SLIDER) */
1770:.\Generated_Source\PSoC4/CapSense_CSHL.c **** 
1771:.\Generated_Source\PSoC4/CapSense_CSHL.c **** 		/* Find Maximum within centroid */      
1772:.\Generated_Source\PSoC4/CapSense_CSHL.c **** 		#if (CapSense_IS_DIPLEX_SLIDER)        
1773:.\Generated_Source\PSoC4/CapSense_CSHL.c **** 			maximum = CapSense_FindMaximum(offset, count, (uint8)CapSense_fingerThreshold[widget], diplex);
1774:.\Generated_Source\PSoC4/CapSense_CSHL.c **** 		#else
1775:.\Generated_Source\PSoC4/CapSense_CSHL.c **** 			maximum = CapSense_FindMaximum(offset, count, (uint8)CapSense_fingerThreshold[widget]);
1776:.\Generated_Source\PSoC4/CapSense_CSHL.c **** 		#endif /* (CapSense_IS_DIPLEX_SLIDER) */
1777:.\Generated_Source\PSoC4/CapSense_CSHL.c **** 
1778:.\Generated_Source\PSoC4/CapSense_CSHL.c ****         if (maximum != 0xFFu)
1779:.\Generated_Source\PSoC4/CapSense_CSHL.c ****         {
1780:.\Generated_Source\PSoC4/CapSense_CSHL.c ****             /* Calculate centroid */
1781:.\Generated_Source\PSoC4/CapSense_CSHL.c ****             position = (uint16) CapSense_CalcCentroid(maximum, 
1782:.\Generated_Source\PSoC4/CapSense_CSHL.c ****                          offset, count, CapSense_centroidMult[widget], CapSense_noiseThreshold[widg
1783:.\Generated_Source\PSoC4/CapSense_CSHL.c **** 
1784:.\Generated_Source\PSoC4/CapSense_CSHL.c ****             #if (0u != CapSense_LINEAR_SLIDERS_POS_FILTERS_MASK)
1785:.\Generated_Source\PSoC4/CapSense_CSHL.c ****                 /* Check if this linear slider has enabled filters */
1786:.\Generated_Source\PSoC4/CapSense_CSHL.c ****                 if (0u != (posFiltersMask & CapSense_ANY_POS_FILTER))
1787:.\Generated_Source\PSoC4/CapSense_CSHL.c ****                 {
ARM GAS  C:\Users\jsing\AppData\Local\Temp\ccHQxQnh.s 			page 65


1788:.\Generated_Source\PSoC4/CapSense_CSHL.c ****                     /* Calculate position to store filters data */
1789:.\Generated_Source\PSoC4/CapSense_CSHL.c ****                     posIndex  = firstTimeIndex + 1u;
1790:.\Generated_Source\PSoC4/CapSense_CSHL.c ****                     
1791:.\Generated_Source\PSoC4/CapSense_CSHL.c ****                     if (0u == CapSense_posFiltersData[firstTimeIndex])
1792:.\Generated_Source\PSoC4/CapSense_CSHL.c ****                     {
1793:.\Generated_Source\PSoC4/CapSense_CSHL.c ****                         /* Init filters */
1794:.\Generated_Source\PSoC4/CapSense_CSHL.c ****                         CapSense_posFiltersData[posIndex] = (uint8) position;
1795:.\Generated_Source\PSoC4/CapSense_CSHL.c ****                         #if ((0u != (CapSense_MEDIAN_FILTER & \
1796:.\Generated_Source\PSoC4/CapSense_CSHL.c ****                                      CapSense_LINEAR_SLIDERS_POS_FILTERS_MASK)) || \
1797:.\Generated_Source\PSoC4/CapSense_CSHL.c ****                              (0u != (CapSense_AVERAGING_FILTER & \
1798:.\Generated_Source\PSoC4/CapSense_CSHL.c ****                                      CapSense_LINEAR_SLIDERS_POS_FILTERS_MASK)))
1799:.\Generated_Source\PSoC4/CapSense_CSHL.c **** 
1800:.\Generated_Source\PSoC4/CapSense_CSHL.c ****                             if ( (0u != (posFiltersMask & CapSense_MEDIAN_FILTER)) || 
1801:.\Generated_Source\PSoC4/CapSense_CSHL.c ****                                  (0u != (posFiltersMask & CapSense_AVERAGING_FILTER)) )
1802:.\Generated_Source\PSoC4/CapSense_CSHL.c ****                             {
1803:.\Generated_Source\PSoC4/CapSense_CSHL.c ****                                 CapSense_posFiltersData[posIndex + 1u] = (uint8) position;
1804:.\Generated_Source\PSoC4/CapSense_CSHL.c ****                             }
1805:.\Generated_Source\PSoC4/CapSense_CSHL.c ****                         #endif /* ((0u != (CapSense_MEDIAN_FILTER & \
1806:.\Generated_Source\PSoC4/CapSense_CSHL.c ****                                *           CapSense_LINEAR_SLIDERS_POS_FILTERS_MASK)) || \
1807:.\Generated_Source\PSoC4/CapSense_CSHL.c ****                                *   (0u != (CapSense_AVERAGING_FILTER & \
1808:.\Generated_Source\PSoC4/CapSense_CSHL.c ****                                *           CapSense_LINEAR_SLIDERS_POS_FILTERS_MASK)))
1809:.\Generated_Source\PSoC4/CapSense_CSHL.c ****                                */
1810:.\Generated_Source\PSoC4/CapSense_CSHL.c ****                         
1811:.\Generated_Source\PSoC4/CapSense_CSHL.c ****                         CapSense_posFiltersData[firstTimeIndex] = 1u;
1812:.\Generated_Source\PSoC4/CapSense_CSHL.c ****                     }
1813:.\Generated_Source\PSoC4/CapSense_CSHL.c ****                     else
1814:.\Generated_Source\PSoC4/CapSense_CSHL.c ****                     {
1815:.\Generated_Source\PSoC4/CapSense_CSHL.c ****                         /* Do filtering */
1816:.\Generated_Source\PSoC4/CapSense_CSHL.c ****                         #if (0u != (CapSense_MEDIAN_FILTER & CapSense_LINEAR_SLIDERS_POS_FILTERS_MA
1817:.\Generated_Source\PSoC4/CapSense_CSHL.c ****                             if (0u != (posFiltersMask & CapSense_MEDIAN_FILTER))
1818:.\Generated_Source\PSoC4/CapSense_CSHL.c ****                             {
1819:.\Generated_Source\PSoC4/CapSense_CSHL.c ****                                 tempPos = (uint8) position;
1820:.\Generated_Source\PSoC4/CapSense_CSHL.c ****                                 position = CapSense_MedianFilter(position,
1821:.\Generated_Source\PSoC4/CapSense_CSHL.c ****                                                                 (uint16)CapSense_posFiltersData[pos
1822:.\Generated_Source\PSoC4/CapSense_CSHL.c ****                                                                 (uint16)CapSense_posFiltersData[pos
1823:.\Generated_Source\PSoC4/CapSense_CSHL.c ****                                 CapSense_posFiltersData[posIndex + 1u] =
1824:.\Generated_Source\PSoC4/CapSense_CSHL.c ****                                                                              CapSense_posFiltersDat
1825:.\Generated_Source\PSoC4/CapSense_CSHL.c ****                                 CapSense_posFiltersData[posIndex] = tempPos;
1826:.\Generated_Source\PSoC4/CapSense_CSHL.c ****                             }
1827:.\Generated_Source\PSoC4/CapSense_CSHL.c ****                         #endif /*(0u != (CapSense_MEDIAN_FILTER &
1828:.\Generated_Source\PSoC4/CapSense_CSHL.c ****                                *         CapSense_LINEAR_SLIDERS_POS_FILTERS_MASK))
1829:.\Generated_Source\PSoC4/CapSense_CSHL.c ****                                */
1830:.\Generated_Source\PSoC4/CapSense_CSHL.c **** 
1831:.\Generated_Source\PSoC4/CapSense_CSHL.c ****                         #if(0u!=(CapSense_AVERAGING_FILTER & CapSense_LINEAR_SLIDERS_POS_FILTERS_MA
1832:.\Generated_Source\PSoC4/CapSense_CSHL.c ****                             if (0u != (posFiltersMask & CapSense_AVERAGING_FILTER)) 
1833:.\Generated_Source\PSoC4/CapSense_CSHL.c ****                             {
1834:.\Generated_Source\PSoC4/CapSense_CSHL.c ****                                 tempPos = (uint8) position;
1835:.\Generated_Source\PSoC4/CapSense_CSHL.c ****                                 position = CapSense_AveragingFilter(position,
1836:.\Generated_Source\PSoC4/CapSense_CSHL.c ****                                                                 (uint16)CapSense_posFiltersData[pos
1837:.\Generated_Source\PSoC4/CapSense_CSHL.c ****                                                                 (uint16)CapSense_posFiltersData[pos
1838:.\Generated_Source\PSoC4/CapSense_CSHL.c ****                                 CapSense_posFiltersData[posIndex+1u]=CapSense_posFiltersData[posInd
1839:.\Generated_Source\PSoC4/CapSense_CSHL.c ****                                 CapSense_posFiltersData[posIndex] = tempPos;
1840:.\Generated_Source\PSoC4/CapSense_CSHL.c ****                             }
1841:.\Generated_Source\PSoC4/CapSense_CSHL.c ****                         #endif /* (0u != (CapSense_AVERAGING_FILTER & \
1842:.\Generated_Source\PSoC4/CapSense_CSHL.c ****                                *           CapSense_LINEAR_SLIDERS_POS_FILTERS_MASK))
1843:.\Generated_Source\PSoC4/CapSense_CSHL.c ****                                */
1844:.\Generated_Source\PSoC4/CapSense_CSHL.c **** 
ARM GAS  C:\Users\jsing\AppData\Local\Temp\ccHQxQnh.s 			page 66


1845:.\Generated_Source\PSoC4/CapSense_CSHL.c ****                         #if (0u != (CapSense_IIR2_FILTER & CapSense_LINEAR_SLIDERS_POS_FILTERS_MASK
1846:.\Generated_Source\PSoC4/CapSense_CSHL.c ****                             if (0u != (posFiltersMask & CapSense_IIR2_FILTER)) 
1847:.\Generated_Source\PSoC4/CapSense_CSHL.c ****                             {
1848:.\Generated_Source\PSoC4/CapSense_CSHL.c ****                                 position = CapSense_IIR2Filter(position,
1849:.\Generated_Source\PSoC4/CapSense_CSHL.c ****                                                                     (uint16)CapSense_posFiltersData
1850:.\Generated_Source\PSoC4/CapSense_CSHL.c ****                                 CapSense_posFiltersData[posIndex] = (uint8) position;
1851:.\Generated_Source\PSoC4/CapSense_CSHL.c ****                             }
1852:.\Generated_Source\PSoC4/CapSense_CSHL.c ****                         #endif /* (0u != (CapSense_IIR2_FILTER & \
1853:.\Generated_Source\PSoC4/CapSense_CSHL.c ****                                *          CapSense_LINEAR_SLIDERS_POS_FILTERS_MASK))
1854:.\Generated_Source\PSoC4/CapSense_CSHL.c ****                                */
1855:.\Generated_Source\PSoC4/CapSense_CSHL.c **** 
1856:.\Generated_Source\PSoC4/CapSense_CSHL.c ****                         #if (0u != (CapSense_IIR4_FILTER & CapSense_LINEAR_SLIDERS_POS_FILTERS_MASK
1857:.\Generated_Source\PSoC4/CapSense_CSHL.c ****                             if (0u != (posFiltersMask & CapSense_IIR4_FILTER))
1858:.\Generated_Source\PSoC4/CapSense_CSHL.c ****                             {
1859:.\Generated_Source\PSoC4/CapSense_CSHL.c ****                                 position = CapSense_IIR4Filter(position,
1860:.\Generated_Source\PSoC4/CapSense_CSHL.c ****                                                                     (uint16)CapSense_posFiltersData
1861:.\Generated_Source\PSoC4/CapSense_CSHL.c ****                                 CapSense_posFiltersData[posIndex] = (uint8) position;
1862:.\Generated_Source\PSoC4/CapSense_CSHL.c ****                             }                                
1863:.\Generated_Source\PSoC4/CapSense_CSHL.c ****                         #endif /* (0u != (CapSense_IIR4_FILTER & \
1864:.\Generated_Source\PSoC4/CapSense_CSHL.c ****                                *          CapSense_LINEAR_SLIDERS_POS_FILTERS_MASK))
1865:.\Generated_Source\PSoC4/CapSense_CSHL.c ****                                */
1866:.\Generated_Source\PSoC4/CapSense_CSHL.c **** 
1867:.\Generated_Source\PSoC4/CapSense_CSHL.c ****                         #if (0u != (CapSense_JITTER_FILTER & CapSense_LINEAR_SLIDERS_POS_FILTERS_MA
1868:.\Generated_Source\PSoC4/CapSense_CSHL.c ****                             if (0u != (posFiltersMask & CapSense_JITTER_FILTER))
1869:.\Generated_Source\PSoC4/CapSense_CSHL.c ****                             {
1870:.\Generated_Source\PSoC4/CapSense_CSHL.c ****                                 position = CapSense_JitterFilter(position,
1871:.\Generated_Source\PSoC4/CapSense_CSHL.c ****                                                                     (uint16)CapSense_posFiltersData
1872:.\Generated_Source\PSoC4/CapSense_CSHL.c ****                                 CapSense_posFiltersData[posIndex] = (uint8) position;
1873:.\Generated_Source\PSoC4/CapSense_CSHL.c ****                             }
1874:.\Generated_Source\PSoC4/CapSense_CSHL.c ****                         #endif /* (0u != (CapSense_JITTER_FILTER & \
1875:.\Generated_Source\PSoC4/CapSense_CSHL.c ****                                *           CapSense_LINEAR_SLIDERS_POS_FILTERS_MASK))
1876:.\Generated_Source\PSoC4/CapSense_CSHL.c ****                                */
1877:.\Generated_Source\PSoC4/CapSense_CSHL.c ****                     }
1878:.\Generated_Source\PSoC4/CapSense_CSHL.c ****                 }
1879:.\Generated_Source\PSoC4/CapSense_CSHL.c ****             #endif /* (0u != CapSense_LINEAR_SLIDERS_POS_FILTERS_MASK) */
1880:.\Generated_Source\PSoC4/CapSense_CSHL.c **** 
1881:.\Generated_Source\PSoC4/CapSense_CSHL.c ****         }
1882:.\Generated_Source\PSoC4/CapSense_CSHL.c ****         else
1883:.\Generated_Source\PSoC4/CapSense_CSHL.c ****         {
1884:.\Generated_Source\PSoC4/CapSense_CSHL.c ****             /* Maximum wasn't found */
1885:.\Generated_Source\PSoC4/CapSense_CSHL.c ****             position = 0xFFFFu;
1886:.\Generated_Source\PSoC4/CapSense_CSHL.c **** 
1887:.\Generated_Source\PSoC4/CapSense_CSHL.c ****             #if(0u != CapSense_LINEAR_SLIDERS_POS_FILTERS_MASK)
1888:.\Generated_Source\PSoC4/CapSense_CSHL.c ****                 /* Reset filters */
1889:.\Generated_Source\PSoC4/CapSense_CSHL.c ****                 if(0u != (posFiltersMask & CapSense_ANY_POS_FILTER))
1890:.\Generated_Source\PSoC4/CapSense_CSHL.c ****                 {
1891:.\Generated_Source\PSoC4/CapSense_CSHL.c ****                     CapSense_posFiltersData[firstTimeIndex] = 0u;
1892:.\Generated_Source\PSoC4/CapSense_CSHL.c ****                 }
1893:.\Generated_Source\PSoC4/CapSense_CSHL.c ****             #endif /* (0u != CapSense_LINEAR_SLIDERS_POS_FILTERS_MASK) */
1894:.\Generated_Source\PSoC4/CapSense_CSHL.c ****         }
1895:.\Generated_Source\PSoC4/CapSense_CSHL.c **** 
1896:.\Generated_Source\PSoC4/CapSense_CSHL.c ****         
1897:.\Generated_Source\PSoC4/CapSense_CSHL.c ****         return (position);
1898:.\Generated_Source\PSoC4/CapSense_CSHL.c ****     }
1899:.\Generated_Source\PSoC4/CapSense_CSHL.c **** #endif /* ((CapSense_TOTAL_RADIAL_SLIDERS_COUNT > 0u) || (CapSense_TOTAL_LINEAR_SLIDERS_COUNT > 0u)
1900:.\Generated_Source\PSoC4/CapSense_CSHL.c **** 
1901:.\Generated_Source\PSoC4/CapSense_CSHL.c **** 
ARM GAS  C:\Users\jsing\AppData\Local\Temp\ccHQxQnh.s 			page 67


1902:.\Generated_Source\PSoC4/CapSense_CSHL.c **** #if((CapSense_TOTAL_RADIAL_SLIDERS_COUNT > 0u) || (CapSense_TOTAL_LINEAR_SLIDERS_COUNT > 0u))
1903:.\Generated_Source\PSoC4/CapSense_CSHL.c ****     /*******************************************************************************
1904:.\Generated_Source\PSoC4/CapSense_CSHL.c ****     * Function Name: CapSense_GetRadialCentroidPos
1905:.\Generated_Source\PSoC4/CapSense_CSHL.c ****     ********************************************************************************
1906:.\Generated_Source\PSoC4/CapSense_CSHL.c ****     *
1907:.\Generated_Source\PSoC4/CapSense_CSHL.c ****     * Summary:
1908:.\Generated_Source\PSoC4/CapSense_CSHL.c ****     *  Checks the CapSense_Signal[ ] array for a centroid within
1909:.\Generated_Source\PSoC4/CapSense_CSHL.c ****     *  a slider specified range. The centroid position is calculated according to the resolution
1910:.\Generated_Source\PSoC4/CapSense_CSHL.c ****     *  specified in the CapSense customizer. The position filters are applied to the
1911:.\Generated_Source\PSoC4/CapSense_CSHL.c ****     *  result if enabled.
1912:.\Generated_Source\PSoC4/CapSense_CSHL.c ****     *
1913:.\Generated_Source\PSoC4/CapSense_CSHL.c ****     * Parameters:
1914:.\Generated_Source\PSoC4/CapSense_CSHL.c ****     *  widget:  Widget number.
1915:.\Generated_Source\PSoC4/CapSense_CSHL.c ****     *  For every radial slider widget there are defines in this format:
1916:.\Generated_Source\PSoC4/CapSense_CSHL.c ****     *  #define CapSense_"widget_name"__RS           5
1917:.\Generated_Source\PSoC4/CapSense_CSHL.c ****     * 
1918:.\Generated_Source\PSoC4/CapSense_CSHL.c ****     * Return:
1919:.\Generated_Source\PSoC4/CapSense_CSHL.c ****     *  Returns a position value of the radial slider.
1920:.\Generated_Source\PSoC4/CapSense_CSHL.c ****     *
1921:.\Generated_Source\PSoC4/CapSense_CSHL.c **** 	* Global Variables:
1922:.\Generated_Source\PSoC4/CapSense_CSHL.c **** 	*  None.
1923:.\Generated_Source\PSoC4/CapSense_CSHL.c **** 	*
1924:.\Generated_Source\PSoC4/CapSense_CSHL.c ****     * Side Effects:
1925:.\Generated_Source\PSoC4/CapSense_CSHL.c ****     *  If any sensor within the slider widget is active, the function returns values
1926:.\Generated_Source\PSoC4/CapSense_CSHL.c ****     *  from zero to the API resolution value set in the CapSense customizer. If no
1927:.\Generated_Source\PSoC4/CapSense_CSHL.c ****     *  sensors are active, the function returns 0xFFFF.
1928:.\Generated_Source\PSoC4/CapSense_CSHL.c ****     *  There are no checks of the widget type argument provided to this function.
1929:.\Generated_Source\PSoC4/CapSense_CSHL.c ****     *  The unproper widget type provided will cause unexpected position calculations.
1930:.\Generated_Source\PSoC4/CapSense_CSHL.c ****     *
1931:.\Generated_Source\PSoC4/CapSense_CSHL.c ****     * Note:
1932:.\Generated_Source\PSoC4/CapSense_CSHL.c ****     *  If noise counts on the slider segments are greater than the noise
1933:.\Generated_Source\PSoC4/CapSense_CSHL.c ****     *  threshold, this subroutine may generate a false centroid result. The noise
1934:.\Generated_Source\PSoC4/CapSense_CSHL.c ****     *  threshold should be set carefully (high enough above the noise level) so 
1935:.\Generated_Source\PSoC4/CapSense_CSHL.c ****     *  that noise will not generate a false centroid.
1936:.\Generated_Source\PSoC4/CapSense_CSHL.c ****     *
1937:.\Generated_Source\PSoC4/CapSense_CSHL.c ****     *******************************************************************************/
1938:.\Generated_Source\PSoC4/CapSense_CSHL.c ****      uint16 CapSense_GetRadialCentroidPos(uint32 widget)
1939:.\Generated_Source\PSoC4/CapSense_CSHL.c ****     {
1940:.\Generated_Source\PSoC4/CapSense_CSHL.c ****         #if (0u != CapSense_RADIAL_SLIDERS_POS_FILTERS_MASK)
1941:.\Generated_Source\PSoC4/CapSense_CSHL.c ****             uint8 posIndex;
1942:.\Generated_Source\PSoC4/CapSense_CSHL.c ****             uint8 firstTimeIndex = CapSense_posFiltersData[widget];
1943:.\Generated_Source\PSoC4/CapSense_CSHL.c ****             uint8 posFiltersMask = CapSense_posFiltersMask[widget]; 
1944:.\Generated_Source\PSoC4/CapSense_CSHL.c ****         #endif /* (0u != CapSense_RADIAL_SLIDERS_POS_FILTERS_MASK) */
1945:.\Generated_Source\PSoC4/CapSense_CSHL.c **** 
1946:.\Generated_Source\PSoC4/CapSense_CSHL.c ****         #if ((0u != (CapSense_MEDIAN_FILTER & CapSense_RADIAL_SLIDERS_POS_FILTERS_MASK)) || \
1947:.\Generated_Source\PSoC4/CapSense_CSHL.c ****              (0u != (CapSense_AVERAGING_FILTER & CapSense_RADIAL_SLIDERS_POS_FILTERS_MASK)))
1948:.\Generated_Source\PSoC4/CapSense_CSHL.c ****             uint8 tempPos;
1949:.\Generated_Source\PSoC4/CapSense_CSHL.c ****         #endif /* ((0u != (CapSense_MEDIAN_FILTER & CapSense_RADIAL_SLIDERS_POS_FILTERS_MASK)) || \
1950:.\Generated_Source\PSoC4/CapSense_CSHL.c ****                *   (0u != (CapSense_AVERAGING_FILTER & CapSense_RADIAL_SLIDERS_POS_FILTERS_MASK)))
1951:.\Generated_Source\PSoC4/CapSense_CSHL.c ****                */
1952:.\Generated_Source\PSoC4/CapSense_CSHL.c **** 
1953:.\Generated_Source\PSoC4/CapSense_CSHL.c ****         uint8 maximum;
1954:.\Generated_Source\PSoC4/CapSense_CSHL.c ****         uint16 position;
1955:.\Generated_Source\PSoC4/CapSense_CSHL.c ****         uint8 offset = CapSense_rawDataIndex[widget];
1956:.\Generated_Source\PSoC4/CapSense_CSHL.c ****         uint8 count = CapSense_numberOfSensors[widget];
1957:.\Generated_Source\PSoC4/CapSense_CSHL.c **** 
1958:.\Generated_Source\PSoC4/CapSense_CSHL.c **** 		/* Find Maximum within centroid */      
ARM GAS  C:\Users\jsing\AppData\Local\Temp\ccHQxQnh.s 			page 68


1959:.\Generated_Source\PSoC4/CapSense_CSHL.c **** 		#if (CapSense_IS_DIPLEX_SLIDER)        
1960:.\Generated_Source\PSoC4/CapSense_CSHL.c **** 			maximum = CapSense_FindMaximum(offset, count, (uint8)CapSense_fingerThreshold[widget], 0u);
1961:.\Generated_Source\PSoC4/CapSense_CSHL.c **** 		#else
1962:.\Generated_Source\PSoC4/CapSense_CSHL.c **** 			maximum = CapSense_FindMaximum(offset, count, (uint8)CapSense_fingerThreshold[widget]);
1963:.\Generated_Source\PSoC4/CapSense_CSHL.c **** 		#endif /* (CapSense_IS_DIPLEX_SLIDER) */
1964:.\Generated_Source\PSoC4/CapSense_CSHL.c ****         
1965:.\Generated_Source\PSoC4/CapSense_CSHL.c ****         if (maximum != CapSense_MAXIMUM_CENTROID)
1966:.\Generated_Source\PSoC4/CapSense_CSHL.c ****         {
1967:.\Generated_Source\PSoC4/CapSense_CSHL.c ****             /* Calculate centroid */
1968:.\Generated_Source\PSoC4/CapSense_CSHL.c ****             position = (uint16) CapSense_CalcCentroid(maximum, 
1969:.\Generated_Source\PSoC4/CapSense_CSHL.c ****                          offset, count, CapSense_centroidMult[widget], CapSense_noiseThreshold[widg
1970:.\Generated_Source\PSoC4/CapSense_CSHL.c **** 
1971:.\Generated_Source\PSoC4/CapSense_CSHL.c ****             #if (0u != CapSense_RADIAL_SLIDERS_POS_FILTERS_MASK)
1972:.\Generated_Source\PSoC4/CapSense_CSHL.c ****                 /* Check if this Radial slider has enabled filters */
1973:.\Generated_Source\PSoC4/CapSense_CSHL.c ****                 if (0u != (posFiltersMask & CapSense_ANY_POS_FILTER))
1974:.\Generated_Source\PSoC4/CapSense_CSHL.c ****                 {
1975:.\Generated_Source\PSoC4/CapSense_CSHL.c ****                     /* Calculate position to store filters data */
1976:.\Generated_Source\PSoC4/CapSense_CSHL.c ****                     posIndex  = firstTimeIndex + 1u;
1977:.\Generated_Source\PSoC4/CapSense_CSHL.c ****                     
