ARM GAS  C:\Users\jsing\AppData\Local\Temp\ccadTqFE.s 			page 1


   1              		.cpu cortex-m0
   2              		.fpu softvfp
   3              		.eabi_attribute 20, 1
   4              		.eabi_attribute 21, 1
   5              		.eabi_attribute 23, 3
   6              		.eabi_attribute 24, 1
   7              		.eabi_attribute 25, 1
   8              		.eabi_attribute 26, 1
   9              		.eabi_attribute 30, 6
  10              		.eabi_attribute 34, 0
  11              		.eabi_attribute 18, 4
  12              		.code	16
  13              		.file	"BLE_1.c"
  14              		.text
  15              	.Ltext0:
  16              		.cfi_sections	.debug_frame
  17              		.global	cyBle_initVar
  18              		.bss
  19              		.type	cyBle_initVar, %object
  20              		.size	cyBle_initVar, 1
  21              	cyBle_initVar:
  22 0000 00       		.space	1
  23              		.global	cyBle_discoveryParam
  24              		.data
  25              		.align	2
  26              		.type	cyBle_discoveryParam, %object
  27              		.size	cyBle_discoveryParam, 16
  28              	cyBle_discoveryParam:
  29 0000 2000     		.short	32
  30 0002 3000     		.short	48
  31 0004 00       		.byte	0
  32 0005 00       		.byte	0
  33 0006 00       		.byte	0
  34 0007 00       		.byte	0
  35 0008 00       		.byte	0
  36 0009 00       		.byte	0
  37 000a 50       		.byte	80
  38 000b A0       		.byte	-96
  39 000c 00       		.byte	0
  40 000d 07       		.byte	7
  41 000e 00       		.byte	0
  42 000f 00       		.space	1
  43              		.global	cyBle_discoveryData
  44              		.align	2
  45              		.type	cyBle_discoveryData, %object
  46              		.size	cyBle_discoveryData, 32
  47              	cyBle_discoveryData:
  48 0010 02       		.byte	2
  49 0011 01       		.byte	1
  50 0012 06       		.byte	6
  51 0013 0E       		.byte	14
  52 0014 09       		.byte	9
  53 0015 42       		.byte	66
  54 0016 4C       		.byte	76
  55 0017 45       		.byte	69
  56 0018 20       		.byte	32
  57 0019 4C       		.byte	76
ARM GAS  C:\Users\jsing\AppData\Local\Temp\ccadTqFE.s 			page 2


  58 001a 61       		.byte	97
  59 001b 62       		.byte	98
  60 001c 20       		.byte	32
  61 001d 34       		.byte	52
  62 001e 20       		.byte	32
  63 001f 4A       		.byte	74
  64 0020 61       		.byte	97
  65 0021 73       		.byte	115
  66 0022 05       		.byte	5
  67 0023 03       		.byte	3
  68 0024 B5       		.byte	-75
  69 0025 CA       		.byte	-54
  70 0026 BB       		.byte	-69
  71 0027 CB       		.byte	-53
  72 0028 00       		.byte	0
  73 0029 00       		.byte	0
  74 002a 00       		.byte	0
  75 002b 00       		.byte	0
  76 002c 00       		.byte	0
  77 002d 00       		.byte	0
  78 002e 00       		.byte	0
  79 002f 18       		.byte	24
  80              		.global	cyBle_scanRspData
  81              		.bss
  82 0001 000000   		.align	2
  83              		.type	cyBle_scanRspData, %object
  84              		.size	cyBle_scanRspData, 32
  85              	cyBle_scanRspData:
  86 0004 00000000 		.space	32
  86      00000000 
  86      00000000 
  86      00000000 
  86      00000000 
  87              		.global	cyBle_discoveryModeInfo
  88              		.data
  89              		.align	2
  90              		.type	cyBle_discoveryModeInfo, %object
  91              		.size	cyBle_discoveryModeInfo, 20
  92              	cyBle_discoveryModeInfo:
  93 0030 02       		.byte	2
  94 0031 000000   		.space	3
  95 0034 00000000 		.word	cyBle_discoveryParam
  96 0038 00000000 		.word	cyBle_discoveryData
  97 003c 00000000 		.word	cyBle_scanRspData
  98 0040 1E00     		.short	30
  99 0042 0000     		.space	2
 100              		.comm	CyBle_ApplCallback,4,4
 101              		.global	cyBle_deviceAddress
 102              		.align	2
 103              		.type	cyBle_deviceAddress, %object
 104              		.size	cyBle_deviceAddress, 7
 105              	cyBle_deviceAddress:
 106 0044 00       		.byte	0
 107 0045 00       		.byte	0
 108 0046 00       		.byte	0
 109 0047 50       		.byte	80
 110 0048 A0       		.byte	-96
ARM GAS  C:\Users\jsing\AppData\Local\Temp\ccadTqFE.s 			page 3


 111 0049 00       		.byte	0
 112 004a 00       		.byte	0
 113              		.global	cyBle_sflashDeviceAddress
 114 004b 00       		.align	2
 115              		.type	cyBle_sflashDeviceAddress, %object
 116              		.size	cyBle_sflashDeviceAddress, 4
 117              	cyBle_sflashDeviceAddress:
 118 004c 00F2FF0F 		.word	268431872
 119              		.section	.text.CyBle_Init,"ax",%progbits
 120              		.align	2
 121              		.global	CyBle_Init
 122              		.code	16
 123              		.thumb_func
 124              		.type	CyBle_Init, %function
 125              	CyBle_Init:
 126              	.LFB2:
 127              		.file 1 ".\\Generated_Source\\PSoC4\\BLE_1.c"
   1:.\Generated_Source\PSoC4/BLE_1.c **** /*******************************************************************************
   2:.\Generated_Source\PSoC4/BLE_1.c **** File Name: CYBLE.c
   3:.\Generated_Source\PSoC4/BLE_1.c **** Version 1.20
   4:.\Generated_Source\PSoC4/BLE_1.c **** 
   5:.\Generated_Source\PSoC4/BLE_1.c **** Description:
   6:.\Generated_Source\PSoC4/BLE_1.c ****  This file contains the source code for the Common APIs of the BLE Component.
   7:.\Generated_Source\PSoC4/BLE_1.c **** 
   8:.\Generated_Source\PSoC4/BLE_1.c **** ********************************************************************************
   9:.\Generated_Source\PSoC4/BLE_1.c **** Copyright 2014-2015, Cypress Semiconductor Corporation.  All rights reserved.
  10:.\Generated_Source\PSoC4/BLE_1.c **** You may use this file only in accordance with the license, terms, conditions,
  11:.\Generated_Source\PSoC4/BLE_1.c **** disclaimers, and limitations in the end user license agreement accompanying
  12:.\Generated_Source\PSoC4/BLE_1.c **** the software package with which this file was provided.
  13:.\Generated_Source\PSoC4/BLE_1.c **** *******************************************************************************/
  14:.\Generated_Source\PSoC4/BLE_1.c **** 
  15:.\Generated_Source\PSoC4/BLE_1.c **** #include "BLE_1_eventHandler.h"
  16:.\Generated_Source\PSoC4/BLE_1.c **** #include "BLE_1_HAL_PVT.h"
  17:.\Generated_Source\PSoC4/BLE_1.c **** 
  18:.\Generated_Source\PSoC4/BLE_1.c **** 
  19:.\Generated_Source\PSoC4/BLE_1.c **** /***************************************
  20:.\Generated_Source\PSoC4/BLE_1.c **** ##Function Prototypes
  21:.\Generated_Source\PSoC4/BLE_1.c **** ***************************************/
  22:.\Generated_Source\PSoC4/BLE_1.c **** 
  23:.\Generated_Source\PSoC4/BLE_1.c **** #if(CYBLE_GATT_ROLE_SERVER)
  24:.\Generated_Source\PSoC4/BLE_1.c ****     #if(CYBLE_GAP_ROLE_PERIPHERAL)
  25:.\Generated_Source\PSoC4/BLE_1.c ****         static void CyBle_ChangeAdLocalName(const char8 name[], uint8 dest);
  26:.\Generated_Source\PSoC4/BLE_1.c ****     #endif /* (CYBLE_GAP_ROLE_PERIPHERAL) */
  27:.\Generated_Source\PSoC4/BLE_1.c **** #endif /* (CYBLE_GATT_ROLE_SERVER) */
  28:.\Generated_Source\PSoC4/BLE_1.c ****     
  29:.\Generated_Source\PSoC4/BLE_1.c **** 
  30:.\Generated_Source\PSoC4/BLE_1.c **** /***************************************
  31:.\Generated_Source\PSoC4/BLE_1.c **** ##Global Variables
  32:.\Generated_Source\PSoC4/BLE_1.c **** ***************************************/
  33:.\Generated_Source\PSoC4/BLE_1.c **** 
  34:.\Generated_Source\PSoC4/BLE_1.c **** /* Indicates whether the BLE has been initialized. The variable is initialized to
  35:.\Generated_Source\PSoC4/BLE_1.c ****    0 and set to 1 the first time CyBle_Start() is called. This allows the component
  36:.\Generated_Source\PSoC4/BLE_1.c ****    to restart without reinitialization after the first call to the CyBle_Start() 
  37:.\Generated_Source\PSoC4/BLE_1.c ****    routine. If reinitialization of the component is required, the variable should 
  38:.\Generated_Source\PSoC4/BLE_1.c ****    be set to 0 before the CyBle_Start() routine is called. Alternatively, the BLE
  39:.\Generated_Source\PSoC4/BLE_1.c ****    can be reinitialized by calling the CyBle_Init() function.
  40:.\Generated_Source\PSoC4/BLE_1.c **** */
ARM GAS  C:\Users\jsing\AppData\Local\Temp\ccadTqFE.s 			page 4


  41:.\Generated_Source\PSoC4/BLE_1.c **** uint8  cyBle_initVar = 0u;
  42:.\Generated_Source\PSoC4/BLE_1.c **** 
  43:.\Generated_Source\PSoC4/BLE_1.c **** #if(CYBLE_GAP_ROLE_PERIPHERAL || CYBLE_GAP_ROLE_BROADCASTER)
  44:.\Generated_Source\PSoC4/BLE_1.c **** 
  45:.\Generated_Source\PSoC4/BLE_1.c **** CYBLE_GAPP_DISC_PARAM_T cyBle_discoveryParam =
  46:.\Generated_Source\PSoC4/BLE_1.c **** {
  47:.\Generated_Source\PSoC4/BLE_1.c ****     0x0020u,    /* uint16 advertising_interval_min */
  48:.\Generated_Source\PSoC4/BLE_1.c ****     0x0030u,    /* uint16 advertising_interval_max */
  49:.\Generated_Source\PSoC4/BLE_1.c ****     CYBLE_GAPP_CONNECTABLE_UNDIRECTED_ADV, /* uint8 advertising_type */
  50:.\Generated_Source\PSoC4/BLE_1.c ****     0x00u,      /* uint8 own_addr_type */
  51:.\Generated_Source\PSoC4/BLE_1.c ****     0x00u,      /* uint8 direct_addr_type */
  52:.\Generated_Source\PSoC4/BLE_1.c ****     {0x00u, 0x00u, 0x00u, 0x50u, 0xA0u, 0x00u}, /* uint8* direct_addr */
  53:.\Generated_Source\PSoC4/BLE_1.c ****     0x07u,      /* uint8 advertising_channel_map */
  54:.\Generated_Source\PSoC4/BLE_1.c ****     0x00u,      /* uint8 advertising_filter_policy */
  55:.\Generated_Source\PSoC4/BLE_1.c **** };
  56:.\Generated_Source\PSoC4/BLE_1.c **** 
  57:.\Generated_Source\PSoC4/BLE_1.c **** CYBLE_GAPP_DISC_DATA_T cyBle_discoveryData =
  58:.\Generated_Source\PSoC4/BLE_1.c **** {
  59:.\Generated_Source\PSoC4/BLE_1.c ****     { 0x02u, 0x01u, 0x06u, 0x0Eu, 0x09u, 0x42u, 0x4Cu,
  60:.\Generated_Source\PSoC4/BLE_1.c ****     0x45u, 0x20u, 0x4Cu, 0x61u, 0x62u, 0x20u, 0x34u, 0x20u,
  61:.\Generated_Source\PSoC4/BLE_1.c ****     0x4Au, 0x61u, 0x73u, 0x05u, 0x03u, 0xB5u, 0xCAu, 0xBBu,
  62:.\Generated_Source\PSoC4/BLE_1.c ****     0xCBu, 0x00u, 0x00u, 0x00u, 0x00u, 0x00u, 0x00u, 0x00u }, /* uint8 advertising_data[CYBLE_MAX_A
  63:.\Generated_Source\PSoC4/BLE_1.c ****     0x18u,      /* uint8 adv_data_length */
  64:.\Generated_Source\PSoC4/BLE_1.c **** };
  65:.\Generated_Source\PSoC4/BLE_1.c **** 
  66:.\Generated_Source\PSoC4/BLE_1.c **** CYBLE_GAPP_SCAN_RSP_DATA_T cyBle_scanRspData =
  67:.\Generated_Source\PSoC4/BLE_1.c **** {
  68:.\Generated_Source\PSoC4/BLE_1.c ****     { 0x00u, 0x00u, 0x00u, 0x00u, 0x00u, 0x00u, 0x00u,
  69:.\Generated_Source\PSoC4/BLE_1.c ****     0x00u, 0x00u, 0x00u, 0x00u, 0x00u, 0x00u, 0x00u, 0x00u,
  70:.\Generated_Source\PSoC4/BLE_1.c ****     0x00u, 0x00u, 0x00u, 0x00u, 0x00u, 0x00u, 0x00u, 0x00u,
  71:.\Generated_Source\PSoC4/BLE_1.c ****     0x00u, 0x00u, 0x00u, 0x00u, 0x00u, 0x00u, 0x00u, 0x00u }, /* uint8 scan_rsp_data[CYBLE_MAX_SCAN
  72:.\Generated_Source\PSoC4/BLE_1.c ****     0x00u,      /* uint8 scan_rsp_data_length */
  73:.\Generated_Source\PSoC4/BLE_1.c **** };
  74:.\Generated_Source\PSoC4/BLE_1.c **** 
  75:.\Generated_Source\PSoC4/BLE_1.c **** /* This variable of type CYBLE_GAPP_DISC_MODE_INFO_T is present only when 
  76:.\Generated_Source\PSoC4/BLE_1.c ****    the BLE component is configured for Peripheral GAP role or Central and 
  77:.\Generated_Source\PSoC4/BLE_1.c ****    Peripheral GAP role. It contains the Advertisement settings and also the 
  78:.\Generated_Source\PSoC4/BLE_1.c ****    Advertisement and Scan response data parameters entered in the customizer.
  79:.\Generated_Source\PSoC4/BLE_1.c ****    This variable can be used by advanced users to change Advertisement settings,
  80:.\Generated_Source\PSoC4/BLE_1.c ****    Advertisement or Scan response data in runtime. 
  81:.\Generated_Source\PSoC4/BLE_1.c **** */
  82:.\Generated_Source\PSoC4/BLE_1.c **** CYBLE_GAPP_DISC_MODE_INFO_T cyBle_discoveryModeInfo =
  83:.\Generated_Source\PSoC4/BLE_1.c **** {
  84:.\Generated_Source\PSoC4/BLE_1.c ****     0x02u,      /* uint8 discMode */
  85:.\Generated_Source\PSoC4/BLE_1.c ****     &cyBle_discoveryParam,
  86:.\Generated_Source\PSoC4/BLE_1.c ****     &cyBle_discoveryData,
  87:.\Generated_Source\PSoC4/BLE_1.c ****     &cyBle_scanRspData,
  88:.\Generated_Source\PSoC4/BLE_1.c ****     0x001Eu,    /* uint16 advTo */
  89:.\Generated_Source\PSoC4/BLE_1.c **** };
  90:.\Generated_Source\PSoC4/BLE_1.c **** 
  91:.\Generated_Source\PSoC4/BLE_1.c **** 
  92:.\Generated_Source\PSoC4/BLE_1.c **** #endif /* CYBLE_GAP_ROLE_PERIPHERAL || CYBLE_GAP_ROLE_BROADCASTER */
  93:.\Generated_Source\PSoC4/BLE_1.c **** 
  94:.\Generated_Source\PSoC4/BLE_1.c **** #if(CYBLE_GAP_ROLE_CENTRAL)
  95:.\Generated_Source\PSoC4/BLE_1.c ****     
  96:.\Generated_Source\PSoC4/BLE_1.c **** CYBLE_GAPC_CONN_PARAM_T cyBle_connectionParameters;
  97:.\Generated_Source\PSoC4/BLE_1.c **** 
ARM GAS  C:\Users\jsing\AppData\Local\Temp\ccadTqFE.s 			page 5


  98:.\Generated_Source\PSoC4/BLE_1.c **** /* Connecting timeout is set to 30 seconds in CyBle_Init function. 
  99:.\Generated_Source\PSoC4/BLE_1.c ****    Not zero value starts timer in CyBle_GapcConnectDevice API.
 100:.\Generated_Source\PSoC4/BLE_1.c **** */
 101:.\Generated_Source\PSoC4/BLE_1.c **** uint16 cyBle_connectingTimeout;
 102:.\Generated_Source\PSoC4/BLE_1.c ****     
 103:.\Generated_Source\PSoC4/BLE_1.c **** #endif /* CYBLE_GAP_ROLE_CENTRAL */
 104:.\Generated_Source\PSoC4/BLE_1.c **** 
 105:.\Generated_Source\PSoC4/BLE_1.c **** #if(CYBLE_GAP_ROLE_CENTRAL || CYBLE_GAP_ROLE_OBSERVER)
 106:.\Generated_Source\PSoC4/BLE_1.c ****     
 107:.\Generated_Source\PSoC4/BLE_1.c **** 
 108:.\Generated_Source\PSoC4/BLE_1.c ****     
 109:.\Generated_Source\PSoC4/BLE_1.c **** #endif /* CYBLE_GAP_ROLE_CENTRAL || CYBLE_GAP_ROLE_OBSERVER */
 110:.\Generated_Source\PSoC4/BLE_1.c **** 
 111:.\Generated_Source\PSoC4/BLE_1.c **** #if((CYBLE_GAP_ROLE_PERIPHERAL || CYBLE_GAP_ROLE_CENTRAL) && (CYBLE_BONDING_REQUIREMENT == CYBLE_BO
 112:.\Generated_Source\PSoC4/BLE_1.c **** 
 113:.\Generated_Source\PSoC4/BLE_1.c **** uint8 cyBle_pendingFlashWrite;
 114:.\Generated_Source\PSoC4/BLE_1.c ****     
 115:.\Generated_Source\PSoC4/BLE_1.c **** #endif  /* (CYBLE_BONDING_REQUIREMENT == CYBLE_BONDING_YES) */
 116:.\Generated_Source\PSoC4/BLE_1.c **** 
 117:.\Generated_Source\PSoC4/BLE_1.c **** CYBLE_CALLBACK_T CyBle_ApplCallback;
 118:.\Generated_Source\PSoC4/BLE_1.c **** CYBLE_GAP_BD_ADDR_T cyBle_deviceAddress = {{0x00u, 0x00u, 0x00u, 0x50u, 0xA0u, 0x00u}, 0x00u };
 119:.\Generated_Source\PSoC4/BLE_1.c **** CYBLE_GAP_BD_ADDR_T * cyBle_sflashDeviceAddress = CYBLE_SFLASH_DEVICE_ADDRESS_PTR;
 120:.\Generated_Source\PSoC4/BLE_1.c **** 
 121:.\Generated_Source\PSoC4/BLE_1.c **** 
 122:.\Generated_Source\PSoC4/BLE_1.c **** /******************************************************************************
 123:.\Generated_Source\PSoC4/BLE_1.c **** ##Function Name: CyBle_Init
 124:.\Generated_Source\PSoC4/BLE_1.c **** *******************************************************************************
 125:.\Generated_Source\PSoC4/BLE_1.c ****  Summary:
 126:.\Generated_Source\PSoC4/BLE_1.c ****   Initializes the component with the parameters set in the customizer.
 127:.\Generated_Source\PSoC4/BLE_1.c **** 
 128:.\Generated_Source\PSoC4/BLE_1.c ****  Parameters:
 129:.\Generated_Source\PSoC4/BLE_1.c ****   None
 130:.\Generated_Source\PSoC4/BLE_1.c **** 
 131:.\Generated_Source\PSoC4/BLE_1.c ****  Return:
 132:.\Generated_Source\PSoC4/BLE_1.c ****   None
 133:.\Generated_Source\PSoC4/BLE_1.c **** 
 134:.\Generated_Source\PSoC4/BLE_1.c **** ******************************************************************************/
 135:.\Generated_Source\PSoC4/BLE_1.c **** void CyBle_Init(void)
 136:.\Generated_Source\PSoC4/BLE_1.c **** {
 128              		.loc 1 136 0
 129              		.cfi_startproc
 130 0000 80B5     		push	{r7, lr}
 131              		.cfi_def_cfa_offset 8
 132              		.cfi_offset 7, -8
 133              		.cfi_offset 14, -4
 134 0002 00AF     		add	r7, sp, #0
 135              		.cfi_def_cfa_register 7
 137:.\Generated_Source\PSoC4/BLE_1.c ****     cyBle_eventHandlerFlag = 0u;
 136              		.loc 1 137 0
 137 0004 064B     		ldr	r3, .L2
 138 0006 0022     		mov	r2, #0
 139 0008 1A70     		strb	r2, [r3]
 138:.\Generated_Source\PSoC4/BLE_1.c ****     cyBle_busyStatus = CYBLE_STACK_STATE_FREE;
 140              		.loc 1 138 0
 141 000a 064B     		ldr	r3, .L2+4
 142 000c 0022     		mov	r2, #0
 143 000e 1A70     		strb	r2, [r3]
ARM GAS  C:\Users\jsing\AppData\Local\Temp\ccadTqFE.s 			page 6


 139:.\Generated_Source\PSoC4/BLE_1.c ****     
 140:.\Generated_Source\PSoC4/BLE_1.c ****     #if(CYBLE_GAP_ROLE_PERIPHERAL || CYBLE_GAP_ROLE_BROADCASTER) 
 141:.\Generated_Source\PSoC4/BLE_1.c ****         cyBle_advertisingIntervalType = CYBLE_ADVERTISING_FAST; 
 144              		.loc 1 141 0
 145 0010 054B     		ldr	r3, .L2+8
 146 0012 0022     		mov	r2, #0
 147 0014 1A70     		strb	r2, [r3]
 142:.\Generated_Source\PSoC4/BLE_1.c ****     #endif /* (CYBLE_GAP_ROLE_PERIPHERAL || CYBLE_GAP_ROLE_BROADCASTER)  */
 143:.\Generated_Source\PSoC4/BLE_1.c ****     #if(CYBLE_GAP_ROLE_CENTRAL || CYBLE_GAP_ROLE_OBSERVER)
 144:.\Generated_Source\PSoC4/BLE_1.c ****         cyBle_scanningIntervalType = CYBLE_SCANNING_FAST; 
 145:.\Generated_Source\PSoC4/BLE_1.c ****     #endif /* (CYBLE_GAP_ROLE_CENTRAL || CYBLE_GAP_ROLE_OBSERVER) */
 146:.\Generated_Source\PSoC4/BLE_1.c ****         
 147:.\Generated_Source\PSoC4/BLE_1.c ****     /* Init default connection parameters. 
 148:.\Generated_Source\PSoC4/BLE_1.c ****        Application may change it before initiating a connection */
 149:.\Generated_Source\PSoC4/BLE_1.c ****     #if(CYBLE_GAP_ROLE_CENTRAL)
 150:.\Generated_Source\PSoC4/BLE_1.c ****         cyBle_connectionParameters.scanIntv = cyBle_discoveryInfo.scanIntv;
 151:.\Generated_Source\PSoC4/BLE_1.c ****         cyBle_connectionParameters.scanWindow = cyBle_discoveryInfo.scanWindow;
 152:.\Generated_Source\PSoC4/BLE_1.c ****         cyBle_connectionParameters.ownAddrType = cyBle_discoveryInfo.ownAddrType;
 153:.\Generated_Source\PSoC4/BLE_1.c ****         cyBle_connectionParameters.initiatorFilterPolicy = cyBle_discoveryInfo.scanFilterPolicy;
 154:.\Generated_Source\PSoC4/BLE_1.c ****         cyBle_connectionParameters.connIntvMin = CYBLE_GAPC_CONNECTION_INTERVAL_MIN;
 155:.\Generated_Source\PSoC4/BLE_1.c ****         cyBle_connectionParameters.connIntvMax = CYBLE_GAPC_CONNECTION_INTERVAL_MAX;
 156:.\Generated_Source\PSoC4/BLE_1.c ****         cyBle_connectionParameters.connLatency = CYBLE_GAPC_CONNECTION_SLAVE_LATENCY;
 157:.\Generated_Source\PSoC4/BLE_1.c ****         cyBle_connectionParameters.supervisionTO = CYBLE_GAPC_CONNECTION_TIME_OUT;
 158:.\Generated_Source\PSoC4/BLE_1.c ****         cyBle_connectionParameters.minCeLength = 0x0000u;
 159:.\Generated_Source\PSoC4/BLE_1.c ****         cyBle_connectionParameters.maxCeLength = 0xFFFFu;
 160:.\Generated_Source\PSoC4/BLE_1.c ****         
 161:.\Generated_Source\PSoC4/BLE_1.c ****         cyBle_connectingTimeout = CYBLE_GAPC_CONNECTING_TIMEOUT;
 162:.\Generated_Source\PSoC4/BLE_1.c ****     #endif /* CYBLE_GAP_ROLE_CENTRAL */
 163:.\Generated_Source\PSoC4/BLE_1.c **** 
 164:.\Generated_Source\PSoC4/BLE_1.c ****     CyBle_ServiceInit();
 148              		.loc 1 164 0
 149 0016 FFF7FEFF 		bl	CyBle_ServiceInit
 165:.\Generated_Source\PSoC4/BLE_1.c **** 
 166:.\Generated_Source\PSoC4/BLE_1.c **** #if((CYBLE_GAP_ROLE_PERIPHERAL || CYBLE_GAP_ROLE_CENTRAL) && (CYBLE_BONDING_REQUIREMENT == CYBLE_BO
 167:.\Generated_Source\PSoC4/BLE_1.c ****     cyBle_pendingFlashWrite = 0u;
 168:.\Generated_Source\PSoC4/BLE_1.c **** #endif  /* (CYBLE_BONDING_REQUIREMENT == CYBLE_BONDING_YES) */
 169:.\Generated_Source\PSoC4/BLE_1.c **** 
 170:.\Generated_Source\PSoC4/BLE_1.c **** }
 150              		.loc 1 170 0
 151 001a BD46     		mov	sp, r7
 152              		@ sp needed
 153 001c 80BD     		pop	{r7, pc}
 154              	.L3:
 155 001e C046     		.align	2
 156              	.L2:
 157 0020 00000000 		.word	cyBle_eventHandlerFlag
 158 0024 00000000 		.word	cyBle_busyStatus
 159 0028 00000000 		.word	cyBle_advertisingIntervalType
 160              		.cfi_endproc
 161              	.LFE2:
 162              		.size	CyBle_Init, .-CyBle_Init
 163              		.section	.text.CyBle_ServiceInit,"ax",%progbits
 164              		.align	2
 165              		.global	CyBle_ServiceInit
 166              		.code	16
 167              		.thumb_func
 168              		.type	CyBle_ServiceInit, %function
ARM GAS  C:\Users\jsing\AppData\Local\Temp\ccadTqFE.s 			page 7


 169              	CyBle_ServiceInit:
 170              	.LFB3:
 171:.\Generated_Source\PSoC4/BLE_1.c **** 
 172:.\Generated_Source\PSoC4/BLE_1.c **** 
 173:.\Generated_Source\PSoC4/BLE_1.c **** /******************************************************************************
 174:.\Generated_Source\PSoC4/BLE_1.c **** ##Function Name: CyBle_ServiceInit
 175:.\Generated_Source\PSoC4/BLE_1.c **** *******************************************************************************
 176:.\Generated_Source\PSoC4/BLE_1.c **** 
 177:.\Generated_Source\PSoC4/BLE_1.c **** Summary:
 178:.\Generated_Source\PSoC4/BLE_1.c ****  Initializes all included services.
 179:.\Generated_Source\PSoC4/BLE_1.c **** 
 180:.\Generated_Source\PSoC4/BLE_1.c **** Parameters:
 181:.\Generated_Source\PSoC4/BLE_1.c ****  None
 182:.\Generated_Source\PSoC4/BLE_1.c **** 
 183:.\Generated_Source\PSoC4/BLE_1.c **** Return:
 184:.\Generated_Source\PSoC4/BLE_1.c ****  None
 185:.\Generated_Source\PSoC4/BLE_1.c **** 
 186:.\Generated_Source\PSoC4/BLE_1.c **** ******************************************************************************/
 187:.\Generated_Source\PSoC4/BLE_1.c **** void CyBle_ServiceInit(void)
 188:.\Generated_Source\PSoC4/BLE_1.c **** {
 171              		.loc 1 188 0
 172              		.cfi_startproc
 173 0000 80B5     		push	{r7, lr}
 174              		.cfi_def_cfa_offset 8
 175              		.cfi_offset 7, -8
 176              		.cfi_offset 14, -4
 177 0002 00AF     		add	r7, sp, #0
 178              		.cfi_def_cfa_register 7
 189:.\Generated_Source\PSoC4/BLE_1.c ****     #if(CYBLE_GATT_ROLE_CLIENT)
 190:.\Generated_Source\PSoC4/BLE_1.c ****         (void)memset(&cyBle_gapc, 0, sizeof(cyBle_gapc));
 191:.\Generated_Source\PSoC4/BLE_1.c ****         (void)memset(&cyBle_gattc, 0, sizeof(cyBle_gattc));
 192:.\Generated_Source\PSoC4/BLE_1.c ****     #endif /* CYBLE_GATT_ROLE_CLIENT */
 193:.\Generated_Source\PSoC4/BLE_1.c ****     
 194:.\Generated_Source\PSoC4/BLE_1.c ****     #ifdef CYBLE_ANS
 195:.\Generated_Source\PSoC4/BLE_1.c ****         CyBle_AnsInit();
 196:.\Generated_Source\PSoC4/BLE_1.c ****     #endif /* CYBLE_ANS */
 197:.\Generated_Source\PSoC4/BLE_1.c ****     
 198:.\Generated_Source\PSoC4/BLE_1.c ****     #ifdef CYBLE_BAS
 199:.\Generated_Source\PSoC4/BLE_1.c ****         CyBle_BasInit();
 200:.\Generated_Source\PSoC4/BLE_1.c ****     #endif /* CYBLE_BAS */
 201:.\Generated_Source\PSoC4/BLE_1.c ****     
 202:.\Generated_Source\PSoC4/BLE_1.c ****     #ifdef CYBLE_BLS
 203:.\Generated_Source\PSoC4/BLE_1.c ****         CyBle_BlsInit();
 204:.\Generated_Source\PSoC4/BLE_1.c ****     #endif /* CYBLE_BLS */
 205:.\Generated_Source\PSoC4/BLE_1.c ****     
 206:.\Generated_Source\PSoC4/BLE_1.c ****     #ifdef CYBLE_CGMS
 207:.\Generated_Source\PSoC4/BLE_1.c ****         CyBle_CgmsInit();
 208:.\Generated_Source\PSoC4/BLE_1.c ****     #endif /* CYBLE_CGMS */
 209:.\Generated_Source\PSoC4/BLE_1.c **** 
 210:.\Generated_Source\PSoC4/BLE_1.c ****     #ifdef CYBLE_CPS
 211:.\Generated_Source\PSoC4/BLE_1.c ****         CyBle_CpsInit();
 212:.\Generated_Source\PSoC4/BLE_1.c ****     #endif /* CYBLE_CPS */
 213:.\Generated_Source\PSoC4/BLE_1.c **** 
 214:.\Generated_Source\PSoC4/BLE_1.c ****     #ifdef CYBLE_CSCS
 215:.\Generated_Source\PSoC4/BLE_1.c ****         CyBle_CscsInit();
 216:.\Generated_Source\PSoC4/BLE_1.c ****     #endif /* CYBLE_CSCS */
 217:.\Generated_Source\PSoC4/BLE_1.c ****     
ARM GAS  C:\Users\jsing\AppData\Local\Temp\ccadTqFE.s 			page 8


 218:.\Generated_Source\PSoC4/BLE_1.c ****     #ifdef CYBLE_CTS
 219:.\Generated_Source\PSoC4/BLE_1.c ****         CyBle_CtsInit();
 220:.\Generated_Source\PSoC4/BLE_1.c ****     #endif /* CYBLE_CTS */
 221:.\Generated_Source\PSoC4/BLE_1.c **** 
 222:.\Generated_Source\PSoC4/BLE_1.c ****     #ifdef CYBLE_DIS
 223:.\Generated_Source\PSoC4/BLE_1.c ****         CyBle_DisInit();
 224:.\Generated_Source\PSoC4/BLE_1.c ****     #endif /* CYBLE_DIS */
 225:.\Generated_Source\PSoC4/BLE_1.c **** 
 226:.\Generated_Source\PSoC4/BLE_1.c ****     #ifdef CYBLE_GLS
 227:.\Generated_Source\PSoC4/BLE_1.c ****         CyBle_GlsInit();
 228:.\Generated_Source\PSoC4/BLE_1.c ****     #endif /* CYBLE_GLS */
 229:.\Generated_Source\PSoC4/BLE_1.c ****     
 230:.\Generated_Source\PSoC4/BLE_1.c ****     #ifdef CYBLE_HIDS
 231:.\Generated_Source\PSoC4/BLE_1.c ****         CyBle_HidsInit();
 232:.\Generated_Source\PSoC4/BLE_1.c ****     #endif /* CYBLE_HIDS */
 233:.\Generated_Source\PSoC4/BLE_1.c **** 
 234:.\Generated_Source\PSoC4/BLE_1.c ****     #ifdef CYBLE_HRS
 235:.\Generated_Source\PSoC4/BLE_1.c ****         CyBle_HrsInit();
 236:.\Generated_Source\PSoC4/BLE_1.c ****     #endif /* CYBLE_HRS */
 237:.\Generated_Source\PSoC4/BLE_1.c ****     
 238:.\Generated_Source\PSoC4/BLE_1.c ****     #ifdef CYBLE_HTS
 239:.\Generated_Source\PSoC4/BLE_1.c ****         CyBle_HtsInit();
 240:.\Generated_Source\PSoC4/BLE_1.c ****     #endif /* CYBLE_RSCS */
 241:.\Generated_Source\PSoC4/BLE_1.c **** 
 242:.\Generated_Source\PSoC4/BLE_1.c ****     #ifdef CYBLE_IAS
 243:.\Generated_Source\PSoC4/BLE_1.c ****         CyBle_IasInit();
 244:.\Generated_Source\PSoC4/BLE_1.c ****     #endif /* CYBLE_IAS */
 245:.\Generated_Source\PSoC4/BLE_1.c **** 
 246:.\Generated_Source\PSoC4/BLE_1.c ****     #ifdef CYBLE_LLS
 247:.\Generated_Source\PSoC4/BLE_1.c ****         CyBle_LlsInit();
 248:.\Generated_Source\PSoC4/BLE_1.c ****     #endif /* CYBLE_LLS */
 249:.\Generated_Source\PSoC4/BLE_1.c **** 
 250:.\Generated_Source\PSoC4/BLE_1.c ****     #ifdef CYBLE_RTUS
 251:.\Generated_Source\PSoC4/BLE_1.c ****         CyBle_RtusInit();
 252:.\Generated_Source\PSoC4/BLE_1.c ****     #endif /* CYBLE_RTUS */
 253:.\Generated_Source\PSoC4/BLE_1.c **** 
 254:.\Generated_Source\PSoC4/BLE_1.c ****     #ifdef CYBLE_LNS
 255:.\Generated_Source\PSoC4/BLE_1.c ****         CyBle_LnsInit();
 256:.\Generated_Source\PSoC4/BLE_1.c ****     #endif /* CYBLE_LNS */
 257:.\Generated_Source\PSoC4/BLE_1.c ****     
 258:.\Generated_Source\PSoC4/BLE_1.c ****     #ifdef CYBLE_PASS
 259:.\Generated_Source\PSoC4/BLE_1.c ****         CyBle_PassInit();
 260:.\Generated_Source\PSoC4/BLE_1.c ****     #endif /* CYBLE_PASS */
 261:.\Generated_Source\PSoC4/BLE_1.c ****     
 262:.\Generated_Source\PSoC4/BLE_1.c ****     #ifdef CYBLE_RSCS
 263:.\Generated_Source\PSoC4/BLE_1.c ****         CyBle_RscsInit();
 264:.\Generated_Source\PSoC4/BLE_1.c ****     #endif /* CYBLE_RSCS */
 265:.\Generated_Source\PSoC4/BLE_1.c **** 
 266:.\Generated_Source\PSoC4/BLE_1.c ****     #ifdef CYBLE_SCPS
 267:.\Generated_Source\PSoC4/BLE_1.c ****         CyBle_ScpsInit();
 268:.\Generated_Source\PSoC4/BLE_1.c ****     #endif /* CYBLE_SCPS */
 269:.\Generated_Source\PSoC4/BLE_1.c ****     
 270:.\Generated_Source\PSoC4/BLE_1.c ****     #ifdef CYBLE_TPS
 271:.\Generated_Source\PSoC4/BLE_1.c ****         CyBle_TpsInit();
 272:.\Generated_Source\PSoC4/BLE_1.c ****     #endif /* CYBLE_TPS */
 273:.\Generated_Source\PSoC4/BLE_1.c ****     
 274:.\Generated_Source\PSoC4/BLE_1.c ****     #ifdef CYBLE_UDS
ARM GAS  C:\Users\jsing\AppData\Local\Temp\ccadTqFE.s 			page 9


 275:.\Generated_Source\PSoC4/BLE_1.c ****         CyBle_UdsInit();
 276:.\Generated_Source\PSoC4/BLE_1.c ****     #endif /* CYBLE_UDS */
 277:.\Generated_Source\PSoC4/BLE_1.c **** }
 179              		.loc 1 277 0
 180 0004 BD46     		mov	sp, r7
 181              		@ sp needed
 182 0006 80BD     		pop	{r7, pc}
 183              		.cfi_endproc
 184              	.LFE3:
 185              		.size	CyBle_ServiceInit, .-CyBle_ServiceInit
 186              		.section	.text.CyBle_Start,"ax",%progbits
 187              		.align	2
 188              		.global	CyBle_Start
 189              		.code	16
 190              		.thumb_func
 191              		.type	CyBle_Start, %function
 192              	CyBle_Start:
 193              	.LFB4:
 278:.\Generated_Source\PSoC4/BLE_1.c **** 
 279:.\Generated_Source\PSoC4/BLE_1.c **** 
 280:.\Generated_Source\PSoC4/BLE_1.c **** /******************************************************************************
 281:.\Generated_Source\PSoC4/BLE_1.c **** ##Function Name: CyBle_Start
 282:.\Generated_Source\PSoC4/BLE_1.c **** *******************************************************************************
 283:.\Generated_Source\PSoC4/BLE_1.c **** 
 284:.\Generated_Source\PSoC4/BLE_1.c **** Summary:
 285:.\Generated_Source\PSoC4/BLE_1.c ****  This function initializes the BLE Stack, which consists of the BLE Stack 
 286:.\Generated_Source\PSoC4/BLE_1.c ****  Manager, BLE Controller, and BLE Host modules. It takes care of initializing
 287:.\Generated_Source\PSoC4/BLE_1.c ****  the Profile layer, schedulers, Timer and other platform related
 288:.\Generated_Source\PSoC4/BLE_1.c ****  resources required for the BLE component. It also registers the callback 
 289:.\Generated_Source\PSoC4/BLE_1.c ****  function for BLE events that will be registered in the BLE stack.
 290:.\Generated_Source\PSoC4/BLE_1.c **** 
 291:.\Generated_Source\PSoC4/BLE_1.c ****  Note that this function does not reset the BLE Stack.
 292:.\Generated_Source\PSoC4/BLE_1.c **** 
 293:.\Generated_Source\PSoC4/BLE_1.c ****  For HCI-Mode of operation, this function will not initialize the BLE Host 
 294:.\Generated_Source\PSoC4/BLE_1.c ****  module.
 295:.\Generated_Source\PSoC4/BLE_1.c **** 
 296:.\Generated_Source\PSoC4/BLE_1.c ****  Calling this function results in the generation of CYBLE_EVT_STACK_ON event
 297:.\Generated_Source\PSoC4/BLE_1.c ****  on successful initialization of the BLE Stack.
 298:.\Generated_Source\PSoC4/BLE_1.c **** 
 299:.\Generated_Source\PSoC4/BLE_1.c **** Parameters:
 300:.\Generated_Source\PSoC4/BLE_1.c ****  callbackFunc: Event callback function to receive events from BLE stack.
 301:.\Generated_Source\PSoC4/BLE_1.c ****   CYBLE_CALLBACK_T is a function pointer type.
 302:.\Generated_Source\PSoC4/BLE_1.c **** 
 303:.\Generated_Source\PSoC4/BLE_1.c **** Return:
 304:.\Generated_Source\PSoC4/BLE_1.c ****  CYBLE_API_RESULT_T : Return value indicates if the function succeeded or 
 305:.\Generated_Source\PSoC4/BLE_1.c ****  failed. Following are the possible error codes.
 306:.\Generated_Source\PSoC4/BLE_1.c ****  <table>
 307:.\Generated_Source\PSoC4/BLE_1.c ****   Errors codes                        Description
 308:.\Generated_Source\PSoC4/BLE_1.c ****   ------------                        -----------------
 309:.\Generated_Source\PSoC4/BLE_1.c ****   CYBLE_ERROR_OK                      On successful operation.
 310:.\Generated_Source\PSoC4/BLE_1.c ****   CYBLE_ERROR_INVALID_PARAMETER       On passing a NULL pointer to the 
 311:.\Generated_Source\PSoC4/BLE_1.c ****                                        function when the BLE stack is not 
 312:.\Generated_Source\PSoC4/BLE_1.c ****                                        built in HCI mode.
 313:.\Generated_Source\PSoC4/BLE_1.c ****                                        CYBLE_ERROR_INVALID_PARAMETER
 314:.\Generated_Source\PSoC4/BLE_1.c ****                                        is never returned in HCI mode.
 315:.\Generated_Source\PSoC4/BLE_1.c ****   CYBLE_ERROR_REPEATED_ATTEMPTS       On invoking this function more
 316:.\Generated_Source\PSoC4/BLE_1.c ****                                        than once without calling
ARM GAS  C:\Users\jsing\AppData\Local\Temp\ccadTqFE.s 			page 10


 317:.\Generated_Source\PSoC4/BLE_1.c ****                                        CyBle_Shutdown() function 
 318:.\Generated_Source\PSoC4/BLE_1.c ****                                        between calls to this function.
 319:.\Generated_Source\PSoC4/BLE_1.c ****  </table>
 320:.\Generated_Source\PSoC4/BLE_1.c **** 
 321:.\Generated_Source\PSoC4/BLE_1.c **** ******************************************************************************/
 322:.\Generated_Source\PSoC4/BLE_1.c **** CYBLE_API_RESULT_T CyBle_Start(CYBLE_CALLBACK_T callbackFunc)
 323:.\Generated_Source\PSoC4/BLE_1.c **** {
 194              		.loc 1 323 0
 195              		.cfi_startproc
 196 0000 90B5     		push	{r4, r7, lr}
 197              		.cfi_def_cfa_offset 12
 198              		.cfi_offset 4, -12
 199              		.cfi_offset 7, -8
 200              		.cfi_offset 14, -4
 201 0002 85B0     		sub	sp, sp, #20
 202              		.cfi_def_cfa_offset 32
 203 0004 00AF     		add	r7, sp, #0
 204              		.cfi_def_cfa_register 7
 205 0006 7860     		str	r0, [r7, #4]
 324:.\Generated_Source\PSoC4/BLE_1.c ****     CYBLE_API_RESULT_T apiResult = CYBLE_ERROR_INVALID_PARAMETER;
 206              		.loc 1 324 0
 207 0008 3B1C     		mov	r3, r7
 208 000a 0E33     		add	r3, r3, #14
 209 000c 0122     		mov	r2, #1
 210 000e 1A80     		strh	r2, [r3]
 325:.\Generated_Source\PSoC4/BLE_1.c ****     
 326:.\Generated_Source\PSoC4/BLE_1.c ****     /* Allocate RAM memory for stack */
 327:.\Generated_Source\PSoC4/BLE_1.c ****     CYBLE_CYALIGNED static uint8 cyBle_stackMemoryRam[CYBLE_STACK_RAM_SIZE];
 328:.\Generated_Source\PSoC4/BLE_1.c ****     
 329:.\Generated_Source\PSoC4/BLE_1.c ****     /* If not initialized then initialize all the required hardware and software */
 330:.\Generated_Source\PSoC4/BLE_1.c ****     if(cyBle_initVar == 0u)
 211              		.loc 1 330 0
 212 0010 194B     		ldr	r3, .L9
 213 0012 1B78     		ldrb	r3, [r3]
 214 0014 002B     		cmp	r3, #0
 215 0016 04D1     		bne	.L6
 331:.\Generated_Source\PSoC4/BLE_1.c ****     {
 332:.\Generated_Source\PSoC4/BLE_1.c ****         CyBle_Init();
 216              		.loc 1 332 0
 217 0018 FFF7FEFF 		bl	CyBle_Init
 333:.\Generated_Source\PSoC4/BLE_1.c ****         cyBle_initVar = 1u;
 218              		.loc 1 333 0
 219 001c 164B     		ldr	r3, .L9
 220 001e 0122     		mov	r2, #1
 221 0020 1A70     		strb	r2, [r3]
 222              	.L6:
 334:.\Generated_Source\PSoC4/BLE_1.c ****     }
 335:.\Generated_Source\PSoC4/BLE_1.c ****     
 336:.\Generated_Source\PSoC4/BLE_1.c ****     if(NULL != callbackFunc)
 223              		.loc 1 336 0
 224 0022 7B68     		ldr	r3, [r7, #4]
 225 0024 002B     		cmp	r3, #0
 226 0026 1FD0     		beq	.L7
 337:.\Generated_Source\PSoC4/BLE_1.c ****     {
 338:.\Generated_Source\PSoC4/BLE_1.c ****         CyBle_ApplCallback = callbackFunc;
 227              		.loc 1 338 0
 228 0028 144B     		ldr	r3, .L9+4
ARM GAS  C:\Users\jsing\AppData\Local\Temp\ccadTqFE.s 			page 11


 229 002a 7A68     		ldr	r2, [r7, #4]
 230 002c 1A60     		str	r2, [r3]
 339:.\Generated_Source\PSoC4/BLE_1.c **** 
 340:.\Generated_Source\PSoC4/BLE_1.c ****         apiResult = CyBle_StackInit(&CyBle_EventHandler, cyBle_stackMemoryRam, CYBLE_GATT_MTU);
 231              		.loc 1 340 0
 232 002e 3C1C     		mov	r4, r7
 233 0030 0E34     		add	r4, r4, #14
 234 0032 134A     		ldr	r2, .L9+8
 235 0034 134B     		ldr	r3, .L9+12
 236 0036 101C     		mov	r0, r2
 237 0038 191C     		mov	r1, r3
 238 003a 1722     		mov	r2, #23
 239 003c FFF7FEFF 		bl	CyBle_StackInit
 240 0040 031C     		mov	r3, r0
 241 0042 2380     		strh	r3, [r4]
 341:.\Generated_Source\PSoC4/BLE_1.c **** 
 342:.\Generated_Source\PSoC4/BLE_1.c ****         if(apiResult == CYBLE_ERROR_OK)
 242              		.loc 1 342 0
 243 0044 3B1C     		mov	r3, r7
 244 0046 0E33     		add	r3, r3, #14
 245 0048 1B88     		ldrh	r3, [r3]
 246 004a 002B     		cmp	r3, #0
 247 004c 0CD1     		bne	.L7
 343:.\Generated_Source\PSoC4/BLE_1.c ****         {
 344:.\Generated_Source\PSoC4/BLE_1.c ****             CyBle_SetState(CYBLE_STATE_INITIALIZING);
 248              		.loc 1 344 0
 249 004e 0E4B     		ldr	r3, .L9+16
 250 0050 0122     		mov	r2, #1
 251 0052 1A70     		strb	r2, [r3]
 345:.\Generated_Source\PSoC4/BLE_1.c ****             
 346:.\Generated_Source\PSoC4/BLE_1.c ****         #if (CYBLE_GATT_ROLE_CLIENT)
 347:.\Generated_Source\PSoC4/BLE_1.c ****             CyBle_SetClientState(CYBLE_CLIENT_STATE_DISCONNECTED);
 348:.\Generated_Source\PSoC4/BLE_1.c ****         #endif /* CYBLE_GATT_ROLE_CLIENT */
 349:.\Generated_Source\PSoC4/BLE_1.c ****             
 350:.\Generated_Source\PSoC4/BLE_1.c ****         #if(CYBLE_GATT_ROLE_SERVER)
 351:.\Generated_Source\PSoC4/BLE_1.c ****             apiResult = CyBle_GattsDbRegister(cyBle_gattDB, CYBLE_GATT_DB_INDEX_COUNT, CYBLE_GATT_D
 252              		.loc 1 351 0
 253 0054 3C1C     		mov	r4, r7
 254 0056 0E34     		add	r4, r4, #14
 255 0058 0C4B     		ldr	r3, .L9+20
 256 005a 181C     		mov	r0, r3
 257 005c 1421     		mov	r1, #20
 258 005e 0F22     		mov	r2, #15
 259 0060 FFF7FEFF 		bl	CyBle_GattsDbRegister
 260 0064 031C     		mov	r3, r0
 261 0066 2380     		strh	r3, [r4]
 262              	.L7:
 352:.\Generated_Source\PSoC4/BLE_1.c ****         #endif /* CYBLE_GATT_ROLE_SERVER */
 353:.\Generated_Source\PSoC4/BLE_1.c ****         }
 354:.\Generated_Source\PSoC4/BLE_1.c ****     }
 355:.\Generated_Source\PSoC4/BLE_1.c **** 
 356:.\Generated_Source\PSoC4/BLE_1.c ****     return (apiResult);
 263              		.loc 1 356 0
 264 0068 3B1C     		mov	r3, r7
 265 006a 0E33     		add	r3, r3, #14
 266 006c 1B88     		ldrh	r3, [r3]
 357:.\Generated_Source\PSoC4/BLE_1.c **** }
ARM GAS  C:\Users\jsing\AppData\Local\Temp\ccadTqFE.s 			page 12


 267              		.loc 1 357 0
 268 006e 181C     		mov	r0, r3
 269 0070 BD46     		mov	sp, r7
 270 0072 05B0     		add	sp, sp, #20
 271              		@ sp needed
 272 0074 90BD     		pop	{r4, r7, pc}
 273              	.L10:
 274 0076 C046     		.align	2
 275              	.L9:
 276 0078 00000000 		.word	cyBle_initVar
 277 007c 00000000 		.word	CyBle_ApplCallback
 278 0080 00000000 		.word	CyBle_EventHandler
 279 0084 28000000 		.word	cyBle_stackMemoryRam.5994
 280 0088 00000000 		.word	cyBle_state
 281 008c 00000000 		.word	cyBle_gattDB
 282              		.cfi_endproc
 283              	.LFE4:
 284              		.size	CyBle_Start, .-CyBle_Start
 285              		.section	.text.CyBle_Stop,"ax",%progbits
 286              		.align	2
 287              		.global	CyBle_Stop
 288              		.code	16
 289              		.thumb_func
 290              		.type	CyBle_Stop, %function
 291              	CyBle_Stop:
 292              	.LFB5:
 358:.\Generated_Source\PSoC4/BLE_1.c **** 
 359:.\Generated_Source\PSoC4/BLE_1.c **** 
 360:.\Generated_Source\PSoC4/BLE_1.c **** /******************************************************************************
 361:.\Generated_Source\PSoC4/BLE_1.c **** ##Function Name: CyBle_Stop
 362:.\Generated_Source\PSoC4/BLE_1.c **** *******************************************************************************
 363:.\Generated_Source\PSoC4/BLE_1.c **** 
 364:.\Generated_Source\PSoC4/BLE_1.c **** Summary:
 365:.\Generated_Source\PSoC4/BLE_1.c ****  This function stops any ongoing operation in the BLE Stack and forces the 
 366:.\Generated_Source\PSoC4/BLE_1.c ****  BLE Stack to shut down. The only function that can be called after calling
 367:.\Generated_Source\PSoC4/BLE_1.c ****  this function is CyBle_Start(). 
 368:.\Generated_Source\PSoC4/BLE_1.c **** 
 369:.\Generated_Source\PSoC4/BLE_1.c **** Parameters:
 370:.\Generated_Source\PSoC4/BLE_1.c ****  None
 371:.\Generated_Source\PSoC4/BLE_1.c **** 
 372:.\Generated_Source\PSoC4/BLE_1.c **** Return:
 373:.\Generated_Source\PSoC4/BLE_1.c ****  None
 374:.\Generated_Source\PSoC4/BLE_1.c **** 
 375:.\Generated_Source\PSoC4/BLE_1.c **** ******************************************************************************/
 376:.\Generated_Source\PSoC4/BLE_1.c **** void CyBle_Stop(void)
 377:.\Generated_Source\PSoC4/BLE_1.c **** {
 293              		.loc 1 377 0
 294              		.cfi_startproc
 295 0000 80B5     		push	{r7, lr}
 296              		.cfi_def_cfa_offset 8
 297              		.cfi_offset 7, -8
 298              		.cfi_offset 14, -4
 299 0002 00AF     		add	r7, sp, #0
 300              		.cfi_def_cfa_register 7
 378:.\Generated_Source\PSoC4/BLE_1.c ****     CyBle_Shutdown(); /* stop all ongoing activities */
 301              		.loc 1 378 0
 302 0004 FFF7FEFF 		bl	CyBle_Shutdown
ARM GAS  C:\Users\jsing\AppData\Local\Temp\ccadTqFE.s 			page 13


 379:.\Generated_Source\PSoC4/BLE_1.c ****     CyBle_ProcessEvents(); /* process all pending events */
 303              		.loc 1 379 0
 304 0008 FFF7FEFF 		bl	CyBle_ProcessEvents
 380:.\Generated_Source\PSoC4/BLE_1.c ****     CyBle_SetState(CYBLE_STATE_STOPPED);
 305              		.loc 1 380 0
 306 000c 024B     		ldr	r3, .L12
 307 000e 0022     		mov	r2, #0
 308 0010 1A70     		strb	r2, [r3]
 381:.\Generated_Source\PSoC4/BLE_1.c **** }
 309              		.loc 1 381 0
 310 0012 BD46     		mov	sp, r7
 311              		@ sp needed
 312 0014 80BD     		pop	{r7, pc}
 313              	.L13:
 314 0016 C046     		.align	2
 315              	.L12:
 316 0018 00000000 		.word	cyBle_state
 317              		.cfi_endproc
 318              	.LFE5:
 319              		.size	CyBle_Stop, .-CyBle_Stop
 320              		.section	.text.CyBle_GappStartAdvertisement,"ax",%progbits
 321              		.align	2
 322              		.global	CyBle_GappStartAdvertisement
 323              		.code	16
 324              		.thumb_func
 325              		.type	CyBle_GappStartAdvertisement, %function
 326              	CyBle_GappStartAdvertisement:
 327              	.LFB6:
 382:.\Generated_Source\PSoC4/BLE_1.c **** 
 383:.\Generated_Source\PSoC4/BLE_1.c **** 
 384:.\Generated_Source\PSoC4/BLE_1.c **** #if((CYBLE_GAP_ROLE_PERIPHERAL || CYBLE_GAP_ROLE_CENTRAL) && (CYBLE_BONDING_REQUIREMENT == CYBLE_BO
 385:.\Generated_Source\PSoC4/BLE_1.c **** 
 386:.\Generated_Source\PSoC4/BLE_1.c ****     
 387:.\Generated_Source\PSoC4/BLE_1.c **** /******************************************************************************
 388:.\Generated_Source\PSoC4/BLE_1.c **** ##Function Name: CyBle_StoreBondingData
 389:.\Generated_Source\PSoC4/BLE_1.c **** *******************************************************************************
 390:.\Generated_Source\PSoC4/BLE_1.c **** 
 391:.\Generated_Source\PSoC4/BLE_1.c **** Summary:
 392:.\Generated_Source\PSoC4/BLE_1.c ****  This function writes the new bonding data from RAM to the dedicated Flash 
 393:.\Generated_Source\PSoC4/BLE_1.c ****  location as defined by the component. It performs data comparing between RAM
 394:.\Generated_Source\PSoC4/BLE_1.c ****  and Flash before writing to Flash. If there is no change between RAM and Flash
 395:.\Generated_Source\PSoC4/BLE_1.c ****  data, then no write is performed. It writes only one flash row in one call.
 396:.\Generated_Source\PSoC4/BLE_1.c ****  Application should keep calling this function till API return CYBLE_ERROR_OK. 
 397:.\Generated_Source\PSoC4/BLE_1.c ****  This function is available only when Bonding requirement is selected in
 398:.\Generated_Source\PSoC4/BLE_1.c ****  Security settings.    
 399:.\Generated_Source\PSoC4/BLE_1.c ****     
 400:.\Generated_Source\PSoC4/BLE_1.c **** Parameters:
 401:.\Generated_Source\PSoC4/BLE_1.c ****  isForceWrite:  If value is set to 0, then stack will check if flash write 
 402:.\Generated_Source\PSoC4/BLE_1.c ****                 is permissible. 
 403:.\Generated_Source\PSoC4/BLE_1.c ****  
 404:.\Generated_Source\PSoC4/BLE_1.c **** Return:
 405:.\Generated_Source\PSoC4/BLE_1.c ****  Return value is of type CYBLE_API_RESULT_T.
 406:.\Generated_Source\PSoC4/BLE_1.c ****  * CYBLE_ERROR_OK - On successful operation
 407:.\Generated_Source\PSoC4/BLE_1.c ****  * CYBLE_ERROR_FLASH_WRITE_NOT_PERMITED - Flash Write is not complete
 408:.\Generated_Source\PSoC4/BLE_1.c ****    
 409:.\Generated_Source\PSoC4/BLE_1.c ****  Side Effects:
 410:.\Generated_Source\PSoC4/BLE_1.c ****   This API will automatically modify the clock settings for the device.
ARM GAS  C:\Users\jsing\AppData\Local\Temp\ccadTqFE.s 			page 14


 411:.\Generated_Source\PSoC4/BLE_1.c ****   Writing to flash requires changes to be done to the IMO (set to 48 MHz)
 412:.\Generated_Source\PSoC4/BLE_1.c ****   and HFCLK (source set to IMO) settings. The configuration is restored before
 413:.\Generated_Source\PSoC4/BLE_1.c ****   returning. This will impact the operation of most of the hardware in the
 414:.\Generated_Source\PSoC4/BLE_1.c ****   device.
 415:.\Generated_Source\PSoC4/BLE_1.c **** 
 416:.\Generated_Source\PSoC4/BLE_1.c **** ******************************************************************************/
 417:.\Generated_Source\PSoC4/BLE_1.c **** CYBLE_API_RESULT_T CyBle_StoreBondingData(uint8 isForceWrite)
 418:.\Generated_Source\PSoC4/BLE_1.c **** {
 419:.\Generated_Source\PSoC4/BLE_1.c ****     CYBLE_API_RESULT_T apiResult = CYBLE_ERROR_OK;
 420:.\Generated_Source\PSoC4/BLE_1.c ****     
 421:.\Generated_Source\PSoC4/BLE_1.c ****     /* Store Stack data */
 422:.\Generated_Source\PSoC4/BLE_1.c ****     if((cyBle_pendingFlashWrite & CYBLE_PENDING_STACK_FLASH_WRITE_BIT) != 0u)
 423:.\Generated_Source\PSoC4/BLE_1.c ****     {
 424:.\Generated_Source\PSoC4/BLE_1.c ****         apiResult = CyBle_StoreStackData(isForceWrite);
 425:.\Generated_Source\PSoC4/BLE_1.c ****         if(apiResult == CYBLE_ERROR_OK)
 426:.\Generated_Source\PSoC4/BLE_1.c ****         {
 427:.\Generated_Source\PSoC4/BLE_1.c ****             cyBle_pendingFlashWrite &= (uint8)~CYBLE_PENDING_STACK_FLASH_WRITE_BIT;
 428:.\Generated_Source\PSoC4/BLE_1.c ****             /* Change apiResult if there are more pending data to store */
 429:.\Generated_Source\PSoC4/BLE_1.c ****             if((cyBle_pendingFlashWrite & CYBLE_PENDING_CCCD_FLASH_WRITE_BIT) != 0u)
 430:.\Generated_Source\PSoC4/BLE_1.c ****             {
 431:.\Generated_Source\PSoC4/BLE_1.c ****                 apiResult = CYBLE_ERROR_FLASH_WRITE_NOT_PERMITED;
 432:.\Generated_Source\PSoC4/BLE_1.c ****             }
 433:.\Generated_Source\PSoC4/BLE_1.c ****         }
 434:.\Generated_Source\PSoC4/BLE_1.c ****     }
 435:.\Generated_Source\PSoC4/BLE_1.c **** #if(CYBLE_GATT_DB_CCCD_COUNT != 0u)
 436:.\Generated_Source\PSoC4/BLE_1.c ****     /* Store CCCD values */
 437:.\Generated_Source\PSoC4/BLE_1.c ****     if( ((apiResult == CYBLE_ERROR_OK) || (isForceWrite != 0u)) && 
 438:.\Generated_Source\PSoC4/BLE_1.c ****         ((cyBle_pendingFlashWrite & CYBLE_PENDING_CCCD_FLASH_WRITE_BIT) != 0u) &&
 439:.\Generated_Source\PSoC4/BLE_1.c ****         (cyBle_connHandle.bdHandle <= CYBLE_GAP_MAX_BONDED_DEVICE))
 440:.\Generated_Source\PSoC4/BLE_1.c ****     {
 441:.\Generated_Source\PSoC4/BLE_1.c ****         apiResult = CyBle_StoreAppData(cyBle_attValuesCCCD, cyBle_attValuesCCCDFlashMemory[cyBle_co
 442:.\Generated_Source\PSoC4/BLE_1.c ****                                        CYBLE_GATT_DB_CCCD_COUNT, isForceWrite);
 443:.\Generated_Source\PSoC4/BLE_1.c ****         if(apiResult == CYBLE_ERROR_OK)
 444:.\Generated_Source\PSoC4/BLE_1.c ****         {
 445:.\Generated_Source\PSoC4/BLE_1.c ****             cyBle_pendingFlashWrite &= (uint8)~CYBLE_PENDING_CCCD_FLASH_WRITE_BIT;
 446:.\Generated_Source\PSoC4/BLE_1.c ****         }
 447:.\Generated_Source\PSoC4/BLE_1.c ****     }
 448:.\Generated_Source\PSoC4/BLE_1.c **** #endif /* CYBLE_GATT_DB_CCCD_COUNT != 0u */
 449:.\Generated_Source\PSoC4/BLE_1.c ****     return(apiResult);
 450:.\Generated_Source\PSoC4/BLE_1.c **** }
 451:.\Generated_Source\PSoC4/BLE_1.c **** 
 452:.\Generated_Source\PSoC4/BLE_1.c **** 
 453:.\Generated_Source\PSoC4/BLE_1.c **** #endif /* (CYBLE_GAP_ROLE_PERIPHERAL || CYBLE_GAP_ROLE_CENTRAL) && (CYBLE_BONDING_REQUIREMENT == CY
 454:.\Generated_Source\PSoC4/BLE_1.c **** 
 455:.\Generated_Source\PSoC4/BLE_1.c **** 
 456:.\Generated_Source\PSoC4/BLE_1.c **** #if(CYBLE_GAP_ROLE_PERIPHERAL || CYBLE_GAP_ROLE_BROADCASTER)
 457:.\Generated_Source\PSoC4/BLE_1.c **** 
 458:.\Generated_Source\PSoC4/BLE_1.c ****     /******************************************************************************
 459:.\Generated_Source\PSoC4/BLE_1.c ****     ##Function Name: CyBle_GappStartAdvertisement
 460:.\Generated_Source\PSoC4/BLE_1.c ****     *******************************************************************************
 461:.\Generated_Source\PSoC4/BLE_1.c ****     
 462:.\Generated_Source\PSoC4/BLE_1.c ****     Summary:
 463:.\Generated_Source\PSoC4/BLE_1.c ****      This function is used to start the advertisement using the advertisement data 
 464:.\Generated_Source\PSoC4/BLE_1.c ****      set in the component customizer's GUI. After invoking this API, the device 
 465:.\Generated_Source\PSoC4/BLE_1.c ****      will be available for connection by the devices configured for GAP central 
 466:.\Generated_Source\PSoC4/BLE_1.c ****      role. It is only included if the device is configured for GAP Peripheral or 
 467:.\Generated_Source\PSoC4/BLE_1.c ****      GAP Peripheral + Central role.
ARM GAS  C:\Users\jsing\AppData\Local\Temp\ccadTqFE.s 			page 15


 468:.\Generated_Source\PSoC4/BLE_1.c ****      
 469:.\Generated_Source\PSoC4/BLE_1.c ****      On start of advertisement, GAP Peripheral receives the
 470:.\Generated_Source\PSoC4/BLE_1.c ****      CYBLE_EVT_GAPP_ADVERTISEMENT_START_STOP event. The following events are 
 471:.\Generated_Source\PSoC4/BLE_1.c ****      possible on invoking this function:
 472:.\Generated_Source\PSoC4/BLE_1.c ****      
 473:.\Generated_Source\PSoC4/BLE_1.c ****      * CYBLE_EVT_GAP_DEVICE_CONNECTED: If the device connects to remote GAP 
 474:.\Generated_Source\PSoC4/BLE_1.c ****                                          Central device
 475:.\Generated_Source\PSoC4/BLE_1.c ****      * CYBLE_EVT_TIMEOUT: If no device in GAP Central mode connects to this 
 476:.\Generated_Source\PSoC4/BLE_1.c ****                           device within the specified timeout limit. Stack 
 477:.\Generated_Source\PSoC4/BLE_1.c ****                           automatically initiate stop advertising when Slow 
 478:.\Generated_Source\PSoC4/BLE_1.c ****                           advertising was initiated, or starts Slow advertising
 479:.\Generated_Source\PSoC4/BLE_1.c ****                           after Fast advertising timeout occur.
 480:.\Generated_Source\PSoC4/BLE_1.c ****      * CYBLE_EVT_GAPP_ADVERTISEMENT_START_STOP: If device started or stopped
 481:.\Generated_Source\PSoC4/BLE_1.c ****                                                   advertising. Use CyBle_GetState()
 482:.\Generated_Source\PSoC4/BLE_1.c ****                                                   to determine the state. Sequential 
 483:.\Generated_Source\PSoC4/BLE_1.c ****                                                   advertising could be started when
 484:.\Generated_Source\PSoC4/BLE_1.c ****                                                   CYBLE_STATE_DISCONNECTED state is
 485:.\Generated_Source\PSoC4/BLE_1.c ****                                                   returned.
 486:.\Generated_Source\PSoC4/BLE_1.c **** 
 487:.\Generated_Source\PSoC4/BLE_1.c ****     Parameters:
 488:.\Generated_Source\PSoC4/BLE_1.c ****      uint8 advertisingIntervalType: Fast or slow advertising interval with timings
 489:.\Generated_Source\PSoC4/BLE_1.c ****                                     entered in Advertising settings section of the
 490:.\Generated_Source\PSoC4/BLE_1.c ****                                     customizer.
 491:.\Generated_Source\PSoC4/BLE_1.c ****      * CYBLE_ADVERTISING_FAST   0x00u
 492:.\Generated_Source\PSoC4/BLE_1.c ****      * CYBLE_ADVERTISING_SLOW   0x01u
 493:.\Generated_Source\PSoC4/BLE_1.c ****      * CYBLE_ADVERTISING_CUSTOM 0x02u
 494:.\Generated_Source\PSoC4/BLE_1.c ****     
 495:.\Generated_Source\PSoC4/BLE_1.c ****     Return:
 496:.\Generated_Source\PSoC4/BLE_1.c ****      CYBLE_API_RESULT_T : Return value indicates if the function succeeded or
 497:.\Generated_Source\PSoC4/BLE_1.c ****      failed. Following are the possible error codes.
 498:.\Generated_Source\PSoC4/BLE_1.c ****      <table>
 499:.\Generated_Source\PSoC4/BLE_1.c ****       Errors codes                        Description
 500:.\Generated_Source\PSoC4/BLE_1.c ****       ------------                        -----------
 501:.\Generated_Source\PSoC4/BLE_1.c ****       CYBLE_ERROR_OK                      On successful operation.
 502:.\Generated_Source\PSoC4/BLE_1.c ****       CYBLE_ERROR_INVALID_PARAMETER       On passing an invalid parameter.
 503:.\Generated_Source\PSoC4/BLE_1.c ****      </table>
 504:.\Generated_Source\PSoC4/BLE_1.c ****     
 505:.\Generated_Source\PSoC4/BLE_1.c ****     ******************************************************************************/
 506:.\Generated_Source\PSoC4/BLE_1.c ****     CYBLE_API_RESULT_T CyBle_GappStartAdvertisement(uint8 advertisingIntervalType)
 507:.\Generated_Source\PSoC4/BLE_1.c ****     {
 328              		.loc 1 507 0
 329              		.cfi_startproc
 330 0000 90B5     		push	{r4, r7, lr}
 331              		.cfi_def_cfa_offset 12
 332              		.cfi_offset 4, -12
 333              		.cfi_offset 7, -8
 334              		.cfi_offset 14, -4
 335 0002 85B0     		sub	sp, sp, #20
 336              		.cfi_def_cfa_offset 32
 337 0004 00AF     		add	r7, sp, #0
 338              		.cfi_def_cfa_register 7
 339 0006 021C     		mov	r2, r0
 340 0008 FB1D     		add	r3, r7, #7
 341 000a 1A70     		strb	r2, [r3]
 508:.\Generated_Source\PSoC4/BLE_1.c ****         CYBLE_API_RESULT_T apiResult;
 509:.\Generated_Source\PSoC4/BLE_1.c ****         
 510:.\Generated_Source\PSoC4/BLE_1.c ****         if((CYBLE_STATE_DISCONNECTED == CyBle_GetState()) && ((cyBle_eventHandlerFlag & CYBLE_START
ARM GAS  C:\Users\jsing\AppData\Local\Temp\ccadTqFE.s 			page 16


 342              		.loc 1 510 0
 343 000c 294B     		ldr	r3, .L21
 344 000e 1B78     		ldrb	r3, [r3]
 345 0010 042B     		cmp	r3, #4
 346 0012 42D1     		bne	.L15
 347              		.loc 1 510 0 is_stmt 0 discriminator 1
 348 0014 284B     		ldr	r3, .L21+4
 349 0016 1B78     		ldrb	r3, [r3]
 350 0018 DBB2     		uxtb	r3, r3
 351 001a 1A1C     		mov	r2, r3
 352 001c 0423     		mov	r3, #4
 353 001e 1340     		and	r3, r2
 354 0020 3BD1     		bne	.L15
 511:.\Generated_Source\PSoC4/BLE_1.c ****         {   
 512:.\Generated_Source\PSoC4/BLE_1.c ****             if(advertisingIntervalType == CYBLE_ADVERTISING_FAST)
 355              		.loc 1 512 0 is_stmt 1
 356 0022 FB1D     		add	r3, r7, #7
 357 0024 1B78     		ldrb	r3, [r3]
 358 0026 002B     		cmp	r3, #0
 359 0028 0BD1     		bne	.L16
 513:.\Generated_Source\PSoC4/BLE_1.c ****             {
 514:.\Generated_Source\PSoC4/BLE_1.c ****                 cyBle_discoveryModeInfo.advTo = CYBLE_FAST_ADV_TIMEOUT;
 360              		.loc 1 514 0
 361 002a 244B     		ldr	r3, .L21+8
 362 002c 1E22     		mov	r2, #30
 363 002e 1A82     		strh	r2, [r3, #16]
 515:.\Generated_Source\PSoC4/BLE_1.c ****                 cyBle_discoveryModeInfo.advParam->advIntvMin = CYBLE_FAST_ADV_INT_MIN;
 364              		.loc 1 515 0
 365 0030 224B     		ldr	r3, .L21+8
 366 0032 5B68     		ldr	r3, [r3, #4]
 367 0034 2022     		mov	r2, #32
 368 0036 1A80     		strh	r2, [r3]
 516:.\Generated_Source\PSoC4/BLE_1.c ****                 cyBle_discoveryModeInfo.advParam->advIntvMax = CYBLE_FAST_ADV_INT_MAX;
 369              		.loc 1 516 0
 370 0038 204B     		ldr	r3, .L21+8
 371 003a 5B68     		ldr	r3, [r3, #4]
 372 003c 3022     		mov	r2, #48
 373 003e 5A80     		strh	r2, [r3, #2]
 374 0040 10E0     		b	.L17
 375              	.L16:
 517:.\Generated_Source\PSoC4/BLE_1.c ****             }
 518:.\Generated_Source\PSoC4/BLE_1.c ****             else if(advertisingIntervalType == CYBLE_ADVERTISING_SLOW)
 376              		.loc 1 518 0
 377 0042 FB1D     		add	r3, r7, #7
 378 0044 1B78     		ldrb	r3, [r3]
 379 0046 012B     		cmp	r3, #1
 380 0048 0CD1     		bne	.L17
 519:.\Generated_Source\PSoC4/BLE_1.c ****             {
 520:.\Generated_Source\PSoC4/BLE_1.c ****                 cyBle_discoveryModeInfo.advTo = CYBLE_SLOW_ADV_TIMEOUT;
 381              		.loc 1 520 0
 382 004a 1C4B     		ldr	r3, .L21+8
 383 004c 9622     		mov	r2, #150
 384 004e 1A82     		strh	r2, [r3, #16]
 521:.\Generated_Source\PSoC4/BLE_1.c ****                 cyBle_discoveryModeInfo.advParam->advIntvMin = CYBLE_SLOW_ADV_INT_MIN;
 385              		.loc 1 521 0
 386 0050 1A4B     		ldr	r3, .L21+8
 387 0052 5B68     		ldr	r3, [r3, #4]
ARM GAS  C:\Users\jsing\AppData\Local\Temp\ccadTqFE.s 			page 17


 388 0054 C822     		mov	r2, #200
 389 0056 D200     		lsl	r2, r2, #3
 390 0058 1A80     		strh	r2, [r3]
 522:.\Generated_Source\PSoC4/BLE_1.c ****                 cyBle_discoveryModeInfo.advParam->advIntvMax = CYBLE_SLOW_ADV_INT_MAX;
 391              		.loc 1 522 0
 392 005a 184B     		ldr	r3, .L21+8
 393 005c 5B68     		ldr	r3, [r3, #4]
 394 005e 8022     		mov	r2, #128
 395 0060 D201     		lsl	r2, r2, #7
 396 0062 5A80     		strh	r2, [r3, #2]
 397              	.L17:
 523:.\Generated_Source\PSoC4/BLE_1.c ****             }       
 524:.\Generated_Source\PSoC4/BLE_1.c ****             else /* Do not update advertising intervals */
 525:.\Generated_Source\PSoC4/BLE_1.c ****             {
 526:.\Generated_Source\PSoC4/BLE_1.c ****             }
 527:.\Generated_Source\PSoC4/BLE_1.c ****             cyBle_advertisingIntervalType = advertisingIntervalType;
 398              		.loc 1 527 0
 399 0064 164B     		ldr	r3, .L21+12
 400 0066 FA1D     		add	r2, r7, #7
 401 0068 1278     		ldrb	r2, [r2]
 402 006a 1A70     		strb	r2, [r3]
 528:.\Generated_Source\PSoC4/BLE_1.c ****             apiResult = CyBle_GappEnterDiscoveryMode(&cyBle_discoveryModeInfo);
 403              		.loc 1 528 0
 404 006c 3C1C     		mov	r4, r7
 405 006e 0E34     		add	r4, r4, #14
 406 0070 124B     		ldr	r3, .L21+8
 407 0072 181C     		mov	r0, r3
 408 0074 FFF7FEFF 		bl	CyBle_GappEnterDiscoveryMode
 409 0078 031C     		mov	r3, r0
 410 007a 2380     		strh	r3, [r4]
 529:.\Generated_Source\PSoC4/BLE_1.c ****         
 530:.\Generated_Source\PSoC4/BLE_1.c ****             if(CYBLE_ERROR_OK == apiResult)
 411              		.loc 1 530 0
 412 007c 3B1C     		mov	r3, r7
 413 007e 0E33     		add	r3, r3, #14
 414 0080 1B88     		ldrh	r3, [r3]
 415 0082 002B     		cmp	r3, #0
 416 0084 08D1     		bne	.L18
 531:.\Generated_Source\PSoC4/BLE_1.c ****             {
 532:.\Generated_Source\PSoC4/BLE_1.c ****                 cyBle_eventHandlerFlag |= CYBLE_START_FLAG;
 417              		.loc 1 532 0
 418 0086 0C4B     		ldr	r3, .L21+4
 419 0088 1B78     		ldrb	r3, [r3]
 420 008a DBB2     		uxtb	r3, r3
 421 008c 0422     		mov	r2, #4
 422 008e 1343     		orr	r3, r2
 423 0090 DAB2     		uxtb	r2, r3
 424 0092 094B     		ldr	r3, .L21+4
 425 0094 1A70     		strb	r2, [r3]
 530:.\Generated_Source\PSoC4/BLE_1.c ****             if(CYBLE_ERROR_OK == apiResult)
 426              		.loc 1 530 0
 427 0096 05E0     		b	.L19
 428              	.L18:
 530:.\Generated_Source\PSoC4/BLE_1.c ****             if(CYBLE_ERROR_OK == apiResult)
 429              		.loc 1 530 0 is_stmt 0 discriminator 1
 430 0098 04E0     		b	.L19
 431              	.L15:
ARM GAS  C:\Users\jsing\AppData\Local\Temp\ccadTqFE.s 			page 18


 533:.\Generated_Source\PSoC4/BLE_1.c ****             }
 534:.\Generated_Source\PSoC4/BLE_1.c ****         }
 535:.\Generated_Source\PSoC4/BLE_1.c ****         else
 536:.\Generated_Source\PSoC4/BLE_1.c ****         {
 537:.\Generated_Source\PSoC4/BLE_1.c ****             apiResult = CYBLE_ERROR_INVALID_STATE;
 432              		.loc 1 537 0 is_stmt 1
 433 009a 3B1C     		mov	r3, r7
 434 009c 0E33     		add	r3, r3, #14
 435 009e 8322     		mov	r2, #131
 436 00a0 5200     		lsl	r2, r2, #1
 437 00a2 1A80     		strh	r2, [r3]
 438              	.L19:
 538:.\Generated_Source\PSoC4/BLE_1.c ****         }
 539:.\Generated_Source\PSoC4/BLE_1.c **** 
 540:.\Generated_Source\PSoC4/BLE_1.c ****         return (apiResult);
 439              		.loc 1 540 0
 440 00a4 3B1C     		mov	r3, r7
 441 00a6 0E33     		add	r3, r3, #14
 442 00a8 1B88     		ldrh	r3, [r3]
 541:.\Generated_Source\PSoC4/BLE_1.c ****     }
 443              		.loc 1 541 0
 444 00aa 181C     		mov	r0, r3
 445 00ac BD46     		mov	sp, r7
 446 00ae 05B0     		add	sp, sp, #20
 447              		@ sp needed
 448 00b0 90BD     		pop	{r4, r7, pc}
 449              	.L22:
 450 00b2 C046     		.align	2
 451              	.L21:
 452 00b4 00000000 		.word	cyBle_state
 453 00b8 00000000 		.word	cyBle_eventHandlerFlag
 454 00bc 00000000 		.word	cyBle_discoveryModeInfo
 455 00c0 00000000 		.word	cyBle_advertisingIntervalType
 456              		.cfi_endproc
 457              	.LFE6:
 458              		.size	CyBle_GappStartAdvertisement, .-CyBle_GappStartAdvertisement
 459              		.section	.text.CyBle_GappStopAdvertisement,"ax",%progbits
 460              		.align	2
 461              		.global	CyBle_GappStopAdvertisement
 462              		.code	16
 463              		.thumb_func
 464              		.type	CyBle_GappStopAdvertisement, %function
 465              	CyBle_GappStopAdvertisement:
 466              	.LFB7:
 542:.\Generated_Source\PSoC4/BLE_1.c **** 
 543:.\Generated_Source\PSoC4/BLE_1.c ****     
 544:.\Generated_Source\PSoC4/BLE_1.c ****     /******************************************************************************
 545:.\Generated_Source\PSoC4/BLE_1.c ****     ##Function Name: CyBle_GappStopAdvertisement
 546:.\Generated_Source\PSoC4/BLE_1.c ****     *******************************************************************************
 547:.\Generated_Source\PSoC4/BLE_1.c ****     
 548:.\Generated_Source\PSoC4/BLE_1.c ****      Summary:
 549:.\Generated_Source\PSoC4/BLE_1.c ****       This function can be used to exit from discovery mode. After the execution 
 550:.\Generated_Source\PSoC4/BLE_1.c ****       of this function, there will no longer be any advertisements. On stopping 
 551:.\Generated_Source\PSoC4/BLE_1.c ****       advertising, GAP Peripheral receives CYBLE_EVT_GAPP_ADVERTISEMENT_START_STOP
 552:.\Generated_Source\PSoC4/BLE_1.c ****       event. It is expected that the application layer tracks the function call 
 553:.\Generated_Source\PSoC4/BLE_1.c ****       performed before occurrence of this event as this event can occur on making 
 554:.\Generated_Source\PSoC4/BLE_1.c ****       a call to Cy_BleGappStartAdvertisement(), CyBle_GappEnterDiscoveryMode(), 
ARM GAS  C:\Users\jsing\AppData\Local\Temp\ccadTqFE.s 			page 19


 555:.\Generated_Source\PSoC4/BLE_1.c ****       or CyBle_GappStartAdvertisement() functions as well.
 556:.\Generated_Source\PSoC4/BLE_1.c ****       
 557:.\Generated_Source\PSoC4/BLE_1.c ****       The following event occurs on invoking this function:
 558:.\Generated_Source\PSoC4/BLE_1.c ****       * CYBLE_EVT_GAPP_ADVERTISEMENT_START_STOP
 559:.\Generated_Source\PSoC4/BLE_1.c ****     
 560:.\Generated_Source\PSoC4/BLE_1.c ****      Parameters:
 561:.\Generated_Source\PSoC4/BLE_1.c ****       None
 562:.\Generated_Source\PSoC4/BLE_1.c ****     
 563:.\Generated_Source\PSoC4/BLE_1.c ****      Return:
 564:.\Generated_Source\PSoC4/BLE_1.c ****       None
 565:.\Generated_Source\PSoC4/BLE_1.c ****     
 566:.\Generated_Source\PSoC4/BLE_1.c ****     ******************************************************************************/
 567:.\Generated_Source\PSoC4/BLE_1.c ****     void CyBle_GappStopAdvertisement(void)
 568:.\Generated_Source\PSoC4/BLE_1.c ****     {
 467              		.loc 1 568 0
 468              		.cfi_startproc
 469 0000 80B5     		push	{r7, lr}
 470              		.cfi_def_cfa_offset 8
 471              		.cfi_offset 7, -8
 472              		.cfi_offset 14, -4
 473 0002 00AF     		add	r7, sp, #0
 474              		.cfi_def_cfa_register 7
 569:.\Generated_Source\PSoC4/BLE_1.c ****         CyBle_GappExitDiscoveryMode();
 475              		.loc 1 569 0
 476 0004 FFF7FEFF 		bl	CyBle_GappExitDiscoveryMode
 570:.\Generated_Source\PSoC4/BLE_1.c ****         cyBle_eventHandlerFlag |= CYBLE_STOP_FLAG;
 477              		.loc 1 570 0
 478 0008 044B     		ldr	r3, .L24
 479 000a 1B78     		ldrb	r3, [r3]
 480 000c DBB2     		uxtb	r3, r3
 481 000e 0822     		mov	r2, #8
 482 0010 1343     		orr	r3, r2
 483 0012 DAB2     		uxtb	r2, r3
 484 0014 014B     		ldr	r3, .L24
 485 0016 1A70     		strb	r2, [r3]
 571:.\Generated_Source\PSoC4/BLE_1.c ****     }
 486              		.loc 1 571 0
 487 0018 BD46     		mov	sp, r7
 488              		@ sp needed
 489 001a 80BD     		pop	{r7, pc}
 490              	.L25:
 491              		.align	2
 492              	.L24:
 493 001c 00000000 		.word	cyBle_eventHandlerFlag
 494              		.cfi_endproc
 495              	.LFE7:
 496              		.size	CyBle_GappStopAdvertisement, .-CyBle_GappStopAdvertisement
 497              		.section	.text.CyBle_ChangeAdDeviceAddress,"ax",%progbits
 498              		.align	2
 499              		.global	CyBle_ChangeAdDeviceAddress
 500              		.code	16
 501              		.thumb_func
 502              		.type	CyBle_ChangeAdDeviceAddress, %function
 503              	CyBle_ChangeAdDeviceAddress:
 504              	.LFB8:
 572:.\Generated_Source\PSoC4/BLE_1.c ****     
 573:.\Generated_Source\PSoC4/BLE_1.c ****     
ARM GAS  C:\Users\jsing\AppData\Local\Temp\ccadTqFE.s 			page 20


 574:.\Generated_Source\PSoC4/BLE_1.c ****     /******************************************************************************
 575:.\Generated_Source\PSoC4/BLE_1.c ****     ##Function Name: CyBle_ChangeAdDeviceAddress
 576:.\Generated_Source\PSoC4/BLE_1.c ****     *******************************************************************************
 577:.\Generated_Source\PSoC4/BLE_1.c **** 
 578:.\Generated_Source\PSoC4/BLE_1.c ****     Summary:
 579:.\Generated_Source\PSoC4/BLE_1.c ****      This API is used to set the Bluetooth device address into the advertisement 
 580:.\Generated_Source\PSoC4/BLE_1.c ****      or scan response data structure.
 581:.\Generated_Source\PSoC4/BLE_1.c **** 
 582:.\Generated_Source\PSoC4/BLE_1.c ****     Parameters:
 583:.\Generated_Source\PSoC4/BLE_1.c ****      bdAddr: Bluetooth Device address. The variable is of type CYBLE_GAP_BD_ADDR_T
 584:.\Generated_Source\PSoC4/BLE_1.c ****      uint8 dest: 0 - avrevtisement structure, not zero value selects scan response
 585:.\Generated_Source\PSoC4/BLE_1.c ****                  structure.
 586:.\Generated_Source\PSoC4/BLE_1.c **** 
 587:.\Generated_Source\PSoC4/BLE_1.c ****     Return:
 588:.\Generated_Source\PSoC4/BLE_1.c ****      None
 589:.\Generated_Source\PSoC4/BLE_1.c ****  
 590:.\Generated_Source\PSoC4/BLE_1.c ****     ******************************************************************************/
 591:.\Generated_Source\PSoC4/BLE_1.c ****     void CyBle_ChangeAdDeviceAddress(const CYBLE_GAP_BD_ADDR_T* bdAddr, uint8 dest)
 592:.\Generated_Source\PSoC4/BLE_1.c ****     {
 505              		.loc 1 592 0
 506              		.cfi_startproc
 507 0000 80B5     		push	{r7, lr}
 508              		.cfi_def_cfa_offset 8
 509              		.cfi_offset 7, -8
 510              		.cfi_offset 14, -4
 511 0002 84B0     		sub	sp, sp, #16
 512              		.cfi_def_cfa_offset 24
 513 0004 00AF     		add	r7, sp, #0
 514              		.cfi_def_cfa_register 7
 515 0006 7860     		str	r0, [r7, #4]
 516 0008 0A1C     		mov	r2, r1
 517 000a FB1C     		add	r3, r7, #3
 518 000c 1A70     		strb	r2, [r3]
 593:.\Generated_Source\PSoC4/BLE_1.c ****         uint8 i;
 594:.\Generated_Source\PSoC4/BLE_1.c ****         uint8 *destBuffer = NULL;
 519              		.loc 1 594 0
 520 000e 0023     		mov	r3, #0
 521 0010 BB60     		str	r3, [r7, #8]
 595:.\Generated_Source\PSoC4/BLE_1.c ****         
 596:.\Generated_Source\PSoC4/BLE_1.c ****         if(dest == 0u)      /* Destination - advertising structure */
 597:.\Generated_Source\PSoC4/BLE_1.c ****         {
 598:.\Generated_Source\PSoC4/BLE_1.c ****             #ifdef CYBLE_ADV_PKT_INDEX_BLUETOOTH_DEVICE_ADDRESS
 599:.\Generated_Source\PSoC4/BLE_1.c ****                 destBuffer = &cyBle_discoveryData.advData[CYBLE_ADV_PKT_INDEX_BLUETOOTH_DEVICE_ADDR
 600:.\Generated_Source\PSoC4/BLE_1.c ****             #endif /* CYBLE_ADV_PKT_INDEX_BLUETOOTH_DEVICE_ADDRESS */
 601:.\Generated_Source\PSoC4/BLE_1.c ****         }
 602:.\Generated_Source\PSoC4/BLE_1.c ****         else                /* Destination - scan response structure */
 603:.\Generated_Source\PSoC4/BLE_1.c ****         {
 604:.\Generated_Source\PSoC4/BLE_1.c ****             #ifdef CYBLE_SCN_PKT_INDEX_BLUETOOTH_DEVICE_ADDRESS
 605:.\Generated_Source\PSoC4/BLE_1.c ****                 destBuffer = &cyBle_scanRspData.scanRspData[CYBLE_SCN_PKT_INDEX_BLUETOOTH_DEVICE_AD
 606:.\Generated_Source\PSoC4/BLE_1.c ****             #endif /* CYBLE_SCN_PKT_INDEX_BLUETOOTH_DEVICE_ADDRESS */    
 607:.\Generated_Source\PSoC4/BLE_1.c ****         }
 608:.\Generated_Source\PSoC4/BLE_1.c ****         
 609:.\Generated_Source\PSoC4/BLE_1.c ****         if(destBuffer != NULL)
 522              		.loc 1 609 0
 523 0012 BB68     		ldr	r3, [r7, #8]
 524 0014 002B     		cmp	r3, #0
 525 0016 20D0     		beq	.L26
ARM GAS  C:\Users\jsing\AppData\Local\Temp\ccadTqFE.s 			page 21


 610:.\Generated_Source\PSoC4/BLE_1.c ****         {
 611:.\Generated_Source\PSoC4/BLE_1.c ****             /* Update Device Address type */
 612:.\Generated_Source\PSoC4/BLE_1.c ****             destBuffer[0u] = bdAddr->type;
 526              		.loc 1 612 0
 527 0018 7B68     		ldr	r3, [r7, #4]
 528 001a 9A79     		ldrb	r2, [r3, #6]
 529 001c BB68     		ldr	r3, [r7, #8]
 530 001e 1A70     		strb	r2, [r3]
 613:.\Generated_Source\PSoC4/BLE_1.c ****             
 614:.\Generated_Source\PSoC4/BLE_1.c ****             for(i = 0; i < CYBLE_GAP_BD_ADDR_SIZE; i++)
 531              		.loc 1 614 0
 532 0020 3B1C     		mov	r3, r7
 533 0022 0F33     		add	r3, r3, #15
 534 0024 0022     		mov	r2, #0
 535 0026 1A70     		strb	r2, [r3]
 536 0028 12E0     		b	.L28
 537              	.L29:
 615:.\Generated_Source\PSoC4/BLE_1.c ****             {
 616:.\Generated_Source\PSoC4/BLE_1.c ****                 destBuffer[i + 1u] = bdAddr->bdAddr[i];
 538              		.loc 1 616 0 discriminator 2
 539 002a 3B1C     		mov	r3, r7
 540 002c 0F33     		add	r3, r3, #15
 541 002e 1B78     		ldrb	r3, [r3]
 542 0030 0133     		add	r3, r3, #1
 543 0032 BA68     		ldr	r2, [r7, #8]
 544 0034 D318     		add	r3, r2, r3
 545 0036 3A1C     		mov	r2, r7
 546 0038 0F32     		add	r2, r2, #15
 547 003a 1278     		ldrb	r2, [r2]
 548 003c 7968     		ldr	r1, [r7, #4]
 549 003e 8A5C     		ldrb	r2, [r1, r2]
 550 0040 1A70     		strb	r2, [r3]
 614:.\Generated_Source\PSoC4/BLE_1.c ****             for(i = 0; i < CYBLE_GAP_BD_ADDR_SIZE; i++)
 551              		.loc 1 614 0 discriminator 2
 552 0042 3B1C     		mov	r3, r7
 553 0044 0F33     		add	r3, r3, #15
 554 0046 1A78     		ldrb	r2, [r3]
 555 0048 3B1C     		mov	r3, r7
 556 004a 0F33     		add	r3, r3, #15
 557 004c 0132     		add	r2, r2, #1
 558 004e 1A70     		strb	r2, [r3]
 559              	.L28:
 614:.\Generated_Source\PSoC4/BLE_1.c ****             for(i = 0; i < CYBLE_GAP_BD_ADDR_SIZE; i++)
 560              		.loc 1 614 0 is_stmt 0 discriminator 1
 561 0050 3B1C     		mov	r3, r7
 562 0052 0F33     		add	r3, r3, #15
 563 0054 1B78     		ldrb	r3, [r3]
 564 0056 052B     		cmp	r3, #5
 565 0058 E7D9     		bls	.L29
 566              	.L26:
 617:.\Generated_Source\PSoC4/BLE_1.c ****             }
 618:.\Generated_Source\PSoC4/BLE_1.c ****         }
 619:.\Generated_Source\PSoC4/BLE_1.c ****     }
 567              		.loc 1 619 0 is_stmt 1
 568 005a BD46     		mov	sp, r7
 569 005c 04B0     		add	sp, sp, #16
 570              		@ sp needed
ARM GAS  C:\Users\jsing\AppData\Local\Temp\ccadTqFE.s 			page 22


 571 005e 80BD     		pop	{r7, pc}
 572              		.cfi_endproc
 573              	.LFE8:
 574              		.size	CyBle_ChangeAdDeviceAddress, .-CyBle_ChangeAdDeviceAddress
 575              		.section	.text.CyBle_ChangeAdLocalName,"ax",%progbits
 576              		.align	2
 577              		.code	16
 578              		.thumb_func
 579              		.type	CyBle_ChangeAdLocalName, %function
 580              	CyBle_ChangeAdLocalName:
 581              	.LFB9:
 620:.\Generated_Source\PSoC4/BLE_1.c ****   
 621:.\Generated_Source\PSoC4/BLE_1.c **** #endif /* CYBLE_GAP_ROLE_PERIPHERAL || CYBLE_GAP_ROLE_BROADCASTER */
 622:.\Generated_Source\PSoC4/BLE_1.c **** 
 623:.\Generated_Source\PSoC4/BLE_1.c **** 
 624:.\Generated_Source\PSoC4/BLE_1.c **** #if(CYBLE_GAP_ROLE_CENTRAL || CYBLE_GAP_ROLE_OBSERVER)
 625:.\Generated_Source\PSoC4/BLE_1.c **** 
 626:.\Generated_Source\PSoC4/BLE_1.c ****     /******************************************************************************
 627:.\Generated_Source\PSoC4/BLE_1.c ****     ##Function Name: CyBle_GapcStartScan
 628:.\Generated_Source\PSoC4/BLE_1.c ****     *******************************************************************************
 629:.\Generated_Source\PSoC4/BLE_1.c ****     
 630:.\Generated_Source\PSoC4/BLE_1.c ****      Summary:
 631:.\Generated_Source\PSoC4/BLE_1.c ****       This function is used for discovering GAP peripheral devices that are 
 632:.\Generated_Source\PSoC4/BLE_1.c ****       available for connection. It performs the scanning routine using the 
 633:.\Generated_Source\PSoC4/BLE_1.c ****       parameters entered in the component's customizer.
 634:.\Generated_Source\PSoC4/BLE_1.c ****       
 635:.\Generated_Source\PSoC4/BLE_1.c ****       As soon as the discovery operation starts, CYBLE_EVT_GAPC_SCAN_START_STOP 
 636:.\Generated_Source\PSoC4/BLE_1.c ****       event is generated. The CYBLE_EVT_GAPC_SCAN_PROGRESS_RESULT event is 
 637:.\Generated_Source\PSoC4/BLE_1.c ****       generated when a GAP peripheral device is located. There are three discovery
 638:.\Generated_Source\PSoC4/BLE_1.c ****       procedures can be selected in the customizer's GUI:
 639:.\Generated_Source\PSoC4/BLE_1.c ****       
 640:.\Generated_Source\PSoC4/BLE_1.c ****       * Observation procedure: A device performing the observer role receives only
 641:.\Generated_Source\PSoC4/BLE_1.c ****                                advertisement data from devices irrespective of 
 642:.\Generated_Source\PSoC4/BLE_1.c ****                                their discoverable mode settings. Advertisement 
 643:.\Generated_Source\PSoC4/BLE_1.c ****                                data received is provided by the event,      
 644:.\Generated_Source\PSoC4/BLE_1.c ****                                CYBLE_EVT_GAPC_SCAN_PROGRESS_RESULT. This procedure
 645:.\Generated_Source\PSoC4/BLE_1.c ****                                requires the scanType sub parameter to be passive
 646:.\Generated_Source\PSoC4/BLE_1.c ****                                scanning. 
 647:.\Generated_Source\PSoC4/BLE_1.c ****       
 648:.\Generated_Source\PSoC4/BLE_1.c ****       * Limited Discovery procedure: A device performing the limited discovery
 649:.\Generated_Source\PSoC4/BLE_1.c ****                                      procedure receives advertisement data and 
 650:.\Generated_Source\PSoC4/BLE_1.c ****                                      scan# response data from devices in the 
 651:.\Generated_Source\PSoC4/BLE_1.c ****                                      limited discoverable mode only. Received data
 652:.\Generated_Source\PSoC4/BLE_1.c ****                                      is provided by the event, 
 653:.\Generated_Source\PSoC4/BLE_1.c ****                                      CYBLE_EVT_GAPC_SCAN_PROGRESS_RESULT. This 
 654:.\Generated_Source\PSoC4/BLE_1.c ****                                      procedure requires the scanType sub-parameter 
 655:.\Generated_Source\PSoC4/BLE_1.c ****                                      to be active scanning.
 656:.\Generated_Source\PSoC4/BLE_1.c ****       
 657:.\Generated_Source\PSoC4/BLE_1.c ****       * General Discovery procedure: A device performing the general discovery 
 658:.\Generated_Source\PSoC4/BLE_1.c ****                                      procedure receives the advertisement data and
 659:.\Generated_Source\PSoC4/BLE_1.c ****                                      scan response data from devices in both 
 660:.\Generated_Source\PSoC4/BLE_1.c ****                                      limited discoverable mode and the general 
 661:.\Generated_Source\PSoC4/BLE_1.c ****                                      discoverable mode. Received data is provided
 662:.\Generated_Source\PSoC4/BLE_1.c ****                                      by the event,
 663:.\Generated_Source\PSoC4/BLE_1.c ****                                      CYBLE_EVT_GAPC_SCAN_PROGRESS_RESULT. This 
 664:.\Generated_Source\PSoC4/BLE_1.c ****                                      procedure requires the scanType sub-parameter
 665:.\Generated_Source\PSoC4/BLE_1.c ****                                      to be active scanning.
ARM GAS  C:\Users\jsing\AppData\Local\Temp\ccadTqFE.s 			page 23


 666:.\Generated_Source\PSoC4/BLE_1.c ****       
 667:.\Generated_Source\PSoC4/BLE_1.c ****       Every Advertisement / Scan response packet received results in a new event, 
 668:.\Generated_Source\PSoC4/BLE_1.c ****       CYBLE_EVT_GAPC_SCAN_PROGRESS_RESULT.
 669:.\Generated_Source\PSoC4/BLE_1.c ****       If 'scanTo' sub-parameter is a non-zero value, then upon commencement of 
 670:.\Generated_Source\PSoC4/BLE_1.c ****       discovery procedure and elapsed time = 'scanTo', CYBLE_EVT_TIMEOUT event
 671:.\Generated_Source\PSoC4/BLE_1.c ****       is generated with the event parameter indicating CYBLE_GAP_SCAN_TO.
 672:.\Generated_Source\PSoC4/BLE_1.c ****       Possible generated events are:
 673:.\Generated_Source\PSoC4/BLE_1.c ****       * CYBLE_EVT_GAPC_SCAN_START_STOP: If a device started or stopped scanning. 
 674:.\Generated_Source\PSoC4/BLE_1.c ****                                         Use CyBle_GetState() to determine the 
 675:.\Generated_Source\PSoC4/BLE_1.c ****                                         state. Sequential scanning could be 
 676:.\Generated_Source\PSoC4/BLE_1.c ****                                         started when CYBLE_STATE_DISCONNECTED 
 677:.\Generated_Source\PSoC4/BLE_1.c ****                                         state is returned. 
 678:.\Generated_Source\PSoC4/BLE_1.c ****       * CYBLE_EVT_GAPC_SCAN_PROGRESS_RESULT 
 679:.\Generated_Source\PSoC4/BLE_1.c ****       * CYBLE_EVT_TIMEOUT (CYBLE_GAP_SCAN_TO)
 680:.\Generated_Source\PSoC4/BLE_1.c ****     
 681:.\Generated_Source\PSoC4/BLE_1.c ****      Parameters:
 682:.\Generated_Source\PSoC4/BLE_1.c ****       uint8 scanningIntervalType:  Fast or slow scanning interval with
 683:.\Generated_Source\PSoC4/BLE_1.c ****           timings entered in Scan settings section of the customiser.
 684:.\Generated_Source\PSoC4/BLE_1.c ****     	  * CYBLE_SCANNING_FAST   0x00u
 685:.\Generated_Source\PSoC4/BLE_1.c ****     	  * CYBLE_SCANNING_SLOW   0x01u
 686:.\Generated_Source\PSoC4/BLE_1.c ****     	  * CYBLE_SCANNING_CUSTOM 0x02u
 687:.\Generated_Source\PSoC4/BLE_1.c ****     
 688:.\Generated_Source\PSoC4/BLE_1.c ****     Return:
 689:.\Generated_Source\PSoC4/BLE_1.c ****      CYBLE_API_RESULT_T : Return value indicates if the function succeeded or
 690:.\Generated_Source\PSoC4/BLE_1.c ****      failed. Following are the possible error codes.
 691:.\Generated_Source\PSoC4/BLE_1.c ****      <table>
 692:.\Generated_Source\PSoC4/BLE_1.c ****       Errors codes                        Values  Description
 693:.\Generated_Source\PSoC4/BLE_1.c ****       ------------                        ------  -----------
 694:.\Generated_Source\PSoC4/BLE_1.c ****       CYBLE_ERROR_OK                      0x0000  On successful operation.
 695:.\Generated_Source\PSoC4/BLE_1.c ****       CYBLE_ERROR_STACK_INTERNAL          0x0003  An error occurred in the 
 696:.\Generated_Source\PSoC4/BLE_1.c ****                                                    BLE stack.
 697:.\Generated_Source\PSoC4/BLE_1.c ****      </table>
 698:.\Generated_Source\PSoC4/BLE_1.c ****      
 699:.\Generated_Source\PSoC4/BLE_1.c ****     ******************************************************************************/
 700:.\Generated_Source\PSoC4/BLE_1.c ****     CYBLE_API_RESULT_T CyBle_GapcStartScan(uint8 scanningIntervalType)
 701:.\Generated_Source\PSoC4/BLE_1.c ****     {
 702:.\Generated_Source\PSoC4/BLE_1.c ****         CYBLE_API_RESULT_T apiResult;
 703:.\Generated_Source\PSoC4/BLE_1.c **** 
 704:.\Generated_Source\PSoC4/BLE_1.c ****         if(scanningIntervalType == CYBLE_SCANNING_FAST)
 705:.\Generated_Source\PSoC4/BLE_1.c ****         {
 706:.\Generated_Source\PSoC4/BLE_1.c ****             cyBle_discoveryInfo.scanTo = CYBLE_FAST_SCAN_TIMEOUT;
 707:.\Generated_Source\PSoC4/BLE_1.c ****             cyBle_discoveryInfo.scanIntv = CYBLE_FAST_SCAN_INTERVAL;
 708:.\Generated_Source\PSoC4/BLE_1.c ****             cyBle_discoveryInfo.scanWindow = CYBLE_FAST_SCAN_WINDOW;
 709:.\Generated_Source\PSoC4/BLE_1.c ****         }
 710:.\Generated_Source\PSoC4/BLE_1.c ****         else if(scanningIntervalType == CYBLE_SCANNING_SLOW)
 711:.\Generated_Source\PSoC4/BLE_1.c ****         {
 712:.\Generated_Source\PSoC4/BLE_1.c ****             cyBle_discoveryInfo.scanTo = CYBLE_SLOW_SCAN_TIMEOUT;
 713:.\Generated_Source\PSoC4/BLE_1.c ****             cyBle_discoveryInfo.scanIntv = CYBLE_SLOW_SCAN_INTERVAL;
 714:.\Generated_Source\PSoC4/BLE_1.c ****             cyBle_discoveryInfo.scanWindow = CYBLE_SLOW_SCAN_WINDOW;
 715:.\Generated_Source\PSoC4/BLE_1.c ****         }       
 716:.\Generated_Source\PSoC4/BLE_1.c ****         else /* Do not update scanning intervals */
 717:.\Generated_Source\PSoC4/BLE_1.c ****         {
 718:.\Generated_Source\PSoC4/BLE_1.c ****         }
 719:.\Generated_Source\PSoC4/BLE_1.c ****         
 720:.\Generated_Source\PSoC4/BLE_1.c ****         cyBle_scanningIntervalType = scanningIntervalType;
 721:.\Generated_Source\PSoC4/BLE_1.c ****         apiResult = CyBle_GapcStartDiscovery(&cyBle_discoveryInfo);
 722:.\Generated_Source\PSoC4/BLE_1.c ****     
ARM GAS  C:\Users\jsing\AppData\Local\Temp\ccadTqFE.s 			page 24


 723:.\Generated_Source\PSoC4/BLE_1.c ****         if(CYBLE_ERROR_OK == apiResult)
 724:.\Generated_Source\PSoC4/BLE_1.c ****         {
 725:.\Generated_Source\PSoC4/BLE_1.c ****             cyBle_eventHandlerFlag |= CYBLE_START_FLAG;
 726:.\Generated_Source\PSoC4/BLE_1.c ****         }
 727:.\Generated_Source\PSoC4/BLE_1.c ****        
 728:.\Generated_Source\PSoC4/BLE_1.c ****         return (apiResult);
 729:.\Generated_Source\PSoC4/BLE_1.c ****     }
 730:.\Generated_Source\PSoC4/BLE_1.c ****     
 731:.\Generated_Source\PSoC4/BLE_1.c ****     
 732:.\Generated_Source\PSoC4/BLE_1.c ****     /******************************************************************************
 733:.\Generated_Source\PSoC4/BLE_1.c ****     ##Function Name: CyBle_GapcStopScan
 734:.\Generated_Source\PSoC4/BLE_1.c ****     *******************************************************************************
 735:.\Generated_Source\PSoC4/BLE_1.c ****     
 736:.\Generated_Source\PSoC4/BLE_1.c ****      Summary:
 737:.\Generated_Source\PSoC4/BLE_1.c ****       This function used to stop the discovery of devices. On stopping discovery
 738:.\Generated_Source\PSoC4/BLE_1.c ****       operation, CYBLE_EVT_GAPC_SCAN_START_STOP event is generated. Application
 739:.\Generated_Source\PSoC4/BLE_1.c ****       layer needs to keep track of the function call made before receiving this
 740:.\Generated_Source\PSoC4/BLE_1.c ****       event to associate this event with either the start or stop discovery
 741:.\Generated_Source\PSoC4/BLE_1.c ****       function.
 742:.\Generated_Source\PSoC4/BLE_1.c ****     
 743:.\Generated_Source\PSoC4/BLE_1.c ****       Possible events generated are:
 744:.\Generated_Source\PSoC4/BLE_1.c ****        * CYBLE_EVT_GAPC_SCAN_START_STOP
 745:.\Generated_Source\PSoC4/BLE_1.c ****     
 746:.\Generated_Source\PSoC4/BLE_1.c ****      Parameters:
 747:.\Generated_Source\PSoC4/BLE_1.c ****       None
 748:.\Generated_Source\PSoC4/BLE_1.c ****     
 749:.\Generated_Source\PSoC4/BLE_1.c ****      Return:
 750:.\Generated_Source\PSoC4/BLE_1.c ****       None
 751:.\Generated_Source\PSoC4/BLE_1.c ****     
 752:.\Generated_Source\PSoC4/BLE_1.c ****     ******************************************************************************/
 753:.\Generated_Source\PSoC4/BLE_1.c ****     void CyBle_GapcStopScan(void)
 754:.\Generated_Source\PSoC4/BLE_1.c ****     {
 755:.\Generated_Source\PSoC4/BLE_1.c ****         CyBle_GapcStopDiscovery();
 756:.\Generated_Source\PSoC4/BLE_1.c ****         
 757:.\Generated_Source\PSoC4/BLE_1.c ****         cyBle_eventHandlerFlag |= CYBLE_STOP_FLAG;
 758:.\Generated_Source\PSoC4/BLE_1.c ****     }
 759:.\Generated_Source\PSoC4/BLE_1.c **** 
 760:.\Generated_Source\PSoC4/BLE_1.c ****     
 761:.\Generated_Source\PSoC4/BLE_1.c **** #endif /* CYBLE_GAP_ROLE_CENTRAL || CYBLE_GAP_ROLE_OBSERVER */
 762:.\Generated_Source\PSoC4/BLE_1.c **** 
 763:.\Generated_Source\PSoC4/BLE_1.c **** 
 764:.\Generated_Source\PSoC4/BLE_1.c **** #if(CYBLE_GAP_ROLE_CENTRAL)
 765:.\Generated_Source\PSoC4/BLE_1.c **** 
 766:.\Generated_Source\PSoC4/BLE_1.c ****     /******************************************************************************
 767:.\Generated_Source\PSoC4/BLE_1.c ****     ##Function Name: CyBle_GapcConnectDevice
 768:.\Generated_Source\PSoC4/BLE_1.c ****     *******************************************************************************
 769:.\Generated_Source\PSoC4/BLE_1.c ****     
 770:.\Generated_Source\PSoC4/BLE_1.c ****     Summary:
 771:.\Generated_Source\PSoC4/BLE_1.c ****      This function is used to send a connection request to the remote device with
 772:.\Generated_Source\PSoC4/BLE_1.c ****      the connection parameters set in the component customizer. This function needs
 773:.\Generated_Source\PSoC4/BLE_1.c ****      to be called only once after the target device is discovered by 
 774:.\Generated_Source\PSoC4/BLE_1.c ****      CyBle_GapcStartScan() and further scanning has stopped. Scanning is 
 775:.\Generated_Source\PSoC4/BLE_1.c ****      successfully stopped on invoking CyBle_GapcStopScan() and then receiving the
 776:.\Generated_Source\PSoC4/BLE_1.c ****      event CYBLE_EVT_GAPC_SCAN_START_STOP with sub-parameter 'success' = 0x01u.
 777:.\Generated_Source\PSoC4/BLE_1.c ****      
 778:.\Generated_Source\PSoC4/BLE_1.c ****      On successful connection, the following events are generated at the GAP 
 779:.\Generated_Source\PSoC4/BLE_1.c ****      Central device (as well as the GAP Peripheral device), in the following order.
ARM GAS  C:\Users\jsing\AppData\Local\Temp\ccadTqFE.s 			page 25


 780:.\Generated_Source\PSoC4/BLE_1.c ****      * CYBLE_EVT_GATT_CONNECT_IND
 781:.\Generated_Source\PSoC4/BLE_1.c ****      * CYBLE_EVT_GAP_DEVICE_CONNECTED
 782:.\Generated_Source\PSoC4/BLE_1.c ****  
 783:.\Generated_Source\PSoC4/BLE_1.c ****      A procedure is considered to have timed out if a connection response packet is 
 784:.\Generated_Source\PSoC4/BLE_1.c ****      not received within time set by cyBle_connectingTimeout global variable
 785:.\Generated_Source\PSoC4/BLE_1.c ****      (30 seconds by default). CYBLE_EVT_TIMEOUT event with CYBLE_GENERIC_TO parameter
 786:.\Generated_Source\PSoC4/BLE_1.c ****      will indicate about connection procedure timeout. Connection will automatically
 787:.\Generated_Source\PSoC4/BLE_1.c ****      be cancelled and state will be changed to CYBLE_STATE_DISCONNECTED.
 788:.\Generated_Source\PSoC4/BLE_1.c ****     
 789:.\Generated_Source\PSoC4/BLE_1.c ****     Parameters:
 790:.\Generated_Source\PSoC4/BLE_1.c ****      const CYBLE_GAP_BD_ADDR_T address: The device address of the remote device to 
 791:.\Generated_Source\PSoC4/BLE_1.c ****                                         connect to. 
 792:.\Generated_Source\PSoC4/BLE_1.c ****      timeout: Timeout for which timer to be started in seconds.
 793:.\Generated_Source\PSoC4/BLE_1.c ****  
 794:.\Generated_Source\PSoC4/BLE_1.c ****     Return:
 795:.\Generated_Source\PSoC4/BLE_1.c ****      CYBLE_API_RESULT_T : Return value indicates if the function succeeded or 
 796:.\Generated_Source\PSoC4/BLE_1.c ****      failed. Following are the possible error codes.
 797:.\Generated_Source\PSoC4/BLE_1.c ****      <table>
 798:.\Generated_Source\PSoC4/BLE_1.c ****       Errors codes                        Description
 799:.\Generated_Source\PSoC4/BLE_1.c ****       ------------                        -----------
 800:.\Generated_Source\PSoC4/BLE_1.c ****       CYBLE_ERROR_OK                      On successful operation.
 801:.\Generated_Source\PSoC4/BLE_1.c ****       CYBLE_ERROR_STACK_INTERNAL          On error occurred in the 
 802:.\Generated_Source\PSoC4/BLE_1.c ****                                            BLE stack.
 803:.\Generated_Source\PSoC4/BLE_1.c ****       CYBLE_ERROR_INVALID_PARAMETER       On specifying NULL as input
 804:.\Generated_Source\PSoC4/BLE_1.c ****                                            parameter for 'scanInfo' or if
 805:.\Generated_Source\PSoC4/BLE_1.c ****                                            any element with in 'scanInfo'
 806:.\Generated_Source\PSoC4/BLE_1.c ****                                            has an invalid value.
 807:.\Generated_Source\PSoC4/BLE_1.c ****      </table>
 808:.\Generated_Source\PSoC4/BLE_1.c ****  
 809:.\Generated_Source\PSoC4/BLE_1.c ****     ******************************************************************************/
 810:.\Generated_Source\PSoC4/BLE_1.c ****     CYBLE_API_RESULT_T CyBle_GapcConnectDevice(const CYBLE_GAP_BD_ADDR_T * address)
 811:.\Generated_Source\PSoC4/BLE_1.c ****     {
 812:.\Generated_Source\PSoC4/BLE_1.c ****         CYBLE_API_RESULT_T apiResult;
 813:.\Generated_Source\PSoC4/BLE_1.c ****         uint8 i;
 814:.\Generated_Source\PSoC4/BLE_1.c **** 
 815:.\Generated_Source\PSoC4/BLE_1.c ****         if(CYBLE_STATE_DISCONNECTED != CyBle_GetState())
 816:.\Generated_Source\PSoC4/BLE_1.c ****         {
 817:.\Generated_Source\PSoC4/BLE_1.c ****             apiResult = CYBLE_ERROR_INVALID_STATE;
 818:.\Generated_Source\PSoC4/BLE_1.c ****         }
 819:.\Generated_Source\PSoC4/BLE_1.c ****         else if(address == NULL)
 820:.\Generated_Source\PSoC4/BLE_1.c ****         {
 821:.\Generated_Source\PSoC4/BLE_1.c ****             apiResult = CYBLE_ERROR_INVALID_PARAMETER;
 822:.\Generated_Source\PSoC4/BLE_1.c ****         }
 823:.\Generated_Source\PSoC4/BLE_1.c ****         else
 824:.\Generated_Source\PSoC4/BLE_1.c ****         {
 825:.\Generated_Source\PSoC4/BLE_1.c ****             for(i = 0u; i < CYBLE_GAP_BD_ADDR_SIZE; i++)
 826:.\Generated_Source\PSoC4/BLE_1.c ****             {
 827:.\Generated_Source\PSoC4/BLE_1.c ****                 cyBle_connectionParameters.peerBdAddr[i] = address->bdAddr[i];
 828:.\Generated_Source\PSoC4/BLE_1.c ****             }
 829:.\Generated_Source\PSoC4/BLE_1.c ****             cyBle_connectionParameters.peerAddrType = address -> type;
 830:.\Generated_Source\PSoC4/BLE_1.c ****             apiResult = CyBle_GapcInitConnection(&cyBle_connectionParameters);
 831:.\Generated_Source\PSoC4/BLE_1.c ****             
 832:.\Generated_Source\PSoC4/BLE_1.c ****             if(CYBLE_ERROR_OK == apiResult)
 833:.\Generated_Source\PSoC4/BLE_1.c ****             {
 834:.\Generated_Source\PSoC4/BLE_1.c ****                 CyBle_SetState(CYBLE_STATE_CONNECTING);
 835:.\Generated_Source\PSoC4/BLE_1.c ****                 if(cyBle_connectingTimeout != 0u)
 836:.\Generated_Source\PSoC4/BLE_1.c ****                 {
ARM GAS  C:\Users\jsing\AppData\Local\Temp\ccadTqFE.s 			page 26


 837:.\Generated_Source\PSoC4/BLE_1.c ****                     (void)CyBle_StartTimer(cyBle_connectingTimeout);
 838:.\Generated_Source\PSoC4/BLE_1.c ****                 }
 839:.\Generated_Source\PSoC4/BLE_1.c ****             }
 840:.\Generated_Source\PSoC4/BLE_1.c ****         }
 841:.\Generated_Source\PSoC4/BLE_1.c ****         return (apiResult);
 842:.\Generated_Source\PSoC4/BLE_1.c ****     }
 843:.\Generated_Source\PSoC4/BLE_1.c ****     
 844:.\Generated_Source\PSoC4/BLE_1.c **** 
 845:.\Generated_Source\PSoC4/BLE_1.c ****     /******************************************************************************
 846:.\Generated_Source\PSoC4/BLE_1.c ****     ##Function Name: CyBle_GapcCancelDeviceConnection
 847:.\Generated_Source\PSoC4/BLE_1.c ****     *******************************************************************************
 848:.\Generated_Source\PSoC4/BLE_1.c ****     
 849:.\Generated_Source\PSoC4/BLE_1.c ****     Summary:
 850:.\Generated_Source\PSoC4/BLE_1.c ****      This function cancels a previously initiated connection with the remote 
 851:.\Generated_Source\PSoC4/BLE_1.c ****      device. It is a blocking function. No event is generated on calling this 
 852:.\Generated_Source\PSoC4/BLE_1.c ****      function. If the devices are already connected then this function should not
 853:.\Generated_Source\PSoC4/BLE_1.c ****      be used. If you intend to disconnect from an existing connection, the function
 854:.\Generated_Source\PSoC4/BLE_1.c ****      CyBle_GapDisconnect() should be used.
 855:.\Generated_Source\PSoC4/BLE_1.c **** 
 856:.\Generated_Source\PSoC4/BLE_1.c ****     Parameters:
 857:.\Generated_Source\PSoC4/BLE_1.c ****      None
 858:.\Generated_Source\PSoC4/BLE_1.c **** 
 859:.\Generated_Source\PSoC4/BLE_1.c ****     Return:
 860:.\Generated_Source\PSoC4/BLE_1.c ****      CYBLE_API_RESULT_T : Return value indicates if the function succeeded or 
 861:.\Generated_Source\PSoC4/BLE_1.c ****      failed. Following are the possible error codes.
 862:.\Generated_Source\PSoC4/BLE_1.c ****      <table>
 863:.\Generated_Source\PSoC4/BLE_1.c ****       Errors codes                        Description
 864:.\Generated_Source\PSoC4/BLE_1.c ****       ------------                        -----------
 865:.\Generated_Source\PSoC4/BLE_1.c ****       CYBLE_ERROR_OK                      On successful operation.
 866:.\Generated_Source\PSoC4/BLE_1.c ****       CYBLE_ERROR_STACK_INTERNAL          An error occurred in the 
 867:.\Generated_Source\PSoC4/BLE_1.c ****                                            BLE stack.
 868:.\Generated_Source\PSoC4/BLE_1.c ****       CYBLE_ERROR_INVALID_OPERATION       Device is already connected.
 869:.\Generated_Source\PSoC4/BLE_1.c ****      </table>
 870:.\Generated_Source\PSoC4/BLE_1.c ****  
 871:.\Generated_Source\PSoC4/BLE_1.c ****     ******************************************************************************/
 872:.\Generated_Source\PSoC4/BLE_1.c ****     CYBLE_API_RESULT_T CyBle_GapcCancelDeviceConnection(void)
 873:.\Generated_Source\PSoC4/BLE_1.c ****     {
 874:.\Generated_Source\PSoC4/BLE_1.c ****         CYBLE_API_RESULT_T apiResult;
 875:.\Generated_Source\PSoC4/BLE_1.c ****         
 876:.\Generated_Source\PSoC4/BLE_1.c ****         apiResult = CyBle_GapcCancelConnection();
 877:.\Generated_Source\PSoC4/BLE_1.c ****             
 878:.\Generated_Source\PSoC4/BLE_1.c ****         if(cyBle_connectingTimeout != 0u)
 879:.\Generated_Source\PSoC4/BLE_1.c ****         {
 880:.\Generated_Source\PSoC4/BLE_1.c ****             (void)CyBle_StopTimer();
 881:.\Generated_Source\PSoC4/BLE_1.c ****         }
 882:.\Generated_Source\PSoC4/BLE_1.c **** 
 883:.\Generated_Source\PSoC4/BLE_1.c ****         if(CYBLE_ERROR_OK == apiResult)
 884:.\Generated_Source\PSoC4/BLE_1.c ****         {
 885:.\Generated_Source\PSoC4/BLE_1.c ****             CyBle_SetState(CYBLE_STATE_DISCONNECTED);
 886:.\Generated_Source\PSoC4/BLE_1.c ****         }
 887:.\Generated_Source\PSoC4/BLE_1.c ****         return (apiResult);
 888:.\Generated_Source\PSoC4/BLE_1.c ****     }    
 889:.\Generated_Source\PSoC4/BLE_1.c **** 
 890:.\Generated_Source\PSoC4/BLE_1.c ****     
 891:.\Generated_Source\PSoC4/BLE_1.c **** #endif /* CYBLE_GAP_ROLE_CENTRAL */
 892:.\Generated_Source\PSoC4/BLE_1.c **** 
 893:.\Generated_Source\PSoC4/BLE_1.c **** 
ARM GAS  C:\Users\jsing\AppData\Local\Temp\ccadTqFE.s 			page 27


 894:.\Generated_Source\PSoC4/BLE_1.c **** #if(CYBLE_GATT_ROLE_SERVER)
 895:.\Generated_Source\PSoC4/BLE_1.c **** 
 896:.\Generated_Source\PSoC4/BLE_1.c **** #if(CYBLE_GAP_ROLE_PERIPHERAL)
 897:.\Generated_Source\PSoC4/BLE_1.c **** 
 898:.\Generated_Source\PSoC4/BLE_1.c ****         /******************************************************************************
 899:.\Generated_Source\PSoC4/BLE_1.c ****         ##Function Name: CyBle_ChangeAdLocalName
 900:.\Generated_Source\PSoC4/BLE_1.c ****         *******************************************************************************
 901:.\Generated_Source\PSoC4/BLE_1.c ****         Summary:
 902:.\Generated_Source\PSoC4/BLE_1.c ****          This API is used to set the local device name in the advertisement or scan 
 903:.\Generated_Source\PSoC4/BLE_1.c ****          response data structure.
 904:.\Generated_Source\PSoC4/BLE_1.c **** 
 905:.\Generated_Source\PSoC4/BLE_1.c ****         Parameters:
 906:.\Generated_Source\PSoC4/BLE_1.c ****          char8 name: The local device name string to be set in advertisement data 
 907:.\Generated_Source\PSoC4/BLE_1.c ****                    structure.
 908:.\Generated_Source\PSoC4/BLE_1.c ****          uint8 dest: 0 - avrevtisement structure, not zero value selects scan response
 909:.\Generated_Source\PSoC4/BLE_1.c ****                      structure.
 910:.\Generated_Source\PSoC4/BLE_1.c **** 
 911:.\Generated_Source\PSoC4/BLE_1.c ****         Return:
 912:.\Generated_Source\PSoC4/BLE_1.c ****          None
 913:.\Generated_Source\PSoC4/BLE_1.c ****      
 914:.\Generated_Source\PSoC4/BLE_1.c ****         ******************************************************************************/
 915:.\Generated_Source\PSoC4/BLE_1.c ****         static void CyBle_ChangeAdLocalName(const char8 name[], uint8 dest)
 916:.\Generated_Source\PSoC4/BLE_1.c ****         {
 582              		.loc 1 916 0
 583              		.cfi_startproc
 584 0000 80B5     		push	{r7, lr}
 585              		.cfi_def_cfa_offset 8
 586              		.cfi_offset 7, -8
 587              		.cfi_offset 14, -4
 588 0002 86B0     		sub	sp, sp, #24
 589              		.cfi_def_cfa_offset 32
 590 0004 00AF     		add	r7, sp, #0
 591              		.cfi_def_cfa_register 7
 592 0006 7860     		str	r0, [r7, #4]
 593 0008 0A1C     		mov	r2, r1
 594 000a FB1C     		add	r3, r7, #3
 595 000c 1A70     		strb	r2, [r3]
 917:.\Generated_Source\PSoC4/BLE_1.c ****             uint8 i;
 918:.\Generated_Source\PSoC4/BLE_1.c ****             uint8 flag = 0u;
 596              		.loc 1 918 0
 597 000e 3B1C     		mov	r3, r7
 598 0010 1633     		add	r3, r3, #22
 599 0012 0022     		mov	r2, #0
 600 0014 1A70     		strb	r2, [r3]
 919:.\Generated_Source\PSoC4/BLE_1.c ****             uint8 adLength = 0u;
 601              		.loc 1 919 0
 602 0016 3B1C     		mov	r3, r7
 603 0018 1533     		add	r3, r3, #21
 604 001a 0022     		mov	r2, #0
 605 001c 1A70     		strb	r2, [r3]
 920:.\Generated_Source\PSoC4/BLE_1.c ****             uint8 byteCounter = 0u;
 606              		.loc 1 920 0
 607 001e 3B1C     		mov	r3, r7
 608 0020 1433     		add	r3, r3, #20
 609 0022 0022     		mov	r2, #0
 610 0024 1A70     		strb	r2, [r3]
 921:.\Generated_Source\PSoC4/BLE_1.c ****             uint8 *destBuffer;
ARM GAS  C:\Users\jsing\AppData\Local\Temp\ccadTqFE.s 			page 28


 922:.\Generated_Source\PSoC4/BLE_1.c ****             uint8 maxLength;
 923:.\Generated_Source\PSoC4/BLE_1.c ****             
 924:.\Generated_Source\PSoC4/BLE_1.c ****             if(dest == 0u)      /* Destination - advertising structure */
 611              		.loc 1 924 0
 612 0026 FB1C     		add	r3, r7, #3
 613 0028 1B78     		ldrb	r3, [r3]
 614 002a 002B     		cmp	r3, #0
 615 002c 07D1     		bne	.L31
 925:.\Generated_Source\PSoC4/BLE_1.c ****             {
 926:.\Generated_Source\PSoC4/BLE_1.c ****                 destBuffer = cyBle_discoveryData.advData;
 616              		.loc 1 926 0
 617 002e 5A4B     		ldr	r3, .L46
 618 0030 3B61     		str	r3, [r7, #16]
 927:.\Generated_Source\PSoC4/BLE_1.c ****                 maxLength = cyBle_discoveryData.advDataLen;
 619              		.loc 1 927 0
 620 0032 3B1C     		mov	r3, r7
 621 0034 0F33     		add	r3, r3, #15
 622 0036 584A     		ldr	r2, .L46
 623 0038 D27F     		ldrb	r2, [r2, #31]
 624 003a 1A70     		strb	r2, [r3]
 928:.\Generated_Source\PSoC4/BLE_1.c ****             }
 929:.\Generated_Source\PSoC4/BLE_1.c ****             else                /* Destination - scan response structure */
 930:.\Generated_Source\PSoC4/BLE_1.c ****             {
 931:.\Generated_Source\PSoC4/BLE_1.c ****                 destBuffer = cyBle_scanRspData.scanRspData;
 932:.\Generated_Source\PSoC4/BLE_1.c ****                 maxLength = cyBle_scanRspData.scanRspDataLen;
 933:.\Generated_Source\PSoC4/BLE_1.c ****             }
 934:.\Generated_Source\PSoC4/BLE_1.c ****             
 935:.\Generated_Source\PSoC4/BLE_1.c ****             while((byteCounter < maxLength) && (0u == flag))
 625              		.loc 1 935 0
 626 003c 3DE0     		b	.L33
 627              	.L31:
 931:.\Generated_Source\PSoC4/BLE_1.c ****                 destBuffer = cyBle_scanRspData.scanRspData;
 628              		.loc 1 931 0
 629 003e 574B     		ldr	r3, .L46+4
 630 0040 3B61     		str	r3, [r7, #16]
 932:.\Generated_Source\PSoC4/BLE_1.c ****                 maxLength = cyBle_scanRspData.scanRspDataLen;
 631              		.loc 1 932 0
 632 0042 3B1C     		mov	r3, r7
 633 0044 0F33     		add	r3, r3, #15
 634 0046 554A     		ldr	r2, .L46+4
 635 0048 D27F     		ldrb	r2, [r2, #31]
 636 004a 1A70     		strb	r2, [r3]
 637              		.loc 1 935 0
 638 004c 35E0     		b	.L33
 639              	.L39:
 936:.\Generated_Source\PSoC4/BLE_1.c ****             {
 937:.\Generated_Source\PSoC4/BLE_1.c ****                 adLength = destBuffer[byteCounter];
 640              		.loc 1 937 0
 641 004e 3B1C     		mov	r3, r7
 642 0050 1433     		add	r3, r3, #20
 643 0052 1B78     		ldrb	r3, [r3]
 644 0054 3A69     		ldr	r2, [r7, #16]
 645 0056 D218     		add	r2, r2, r3
 646 0058 3B1C     		mov	r3, r7
 647 005a 1533     		add	r3, r3, #21
 648 005c 1278     		ldrb	r2, [r2]
 649 005e 1A70     		strb	r2, [r3]
ARM GAS  C:\Users\jsing\AppData\Local\Temp\ccadTqFE.s 			page 29


 938:.\Generated_Source\PSoC4/BLE_1.c ****                 
 939:.\Generated_Source\PSoC4/BLE_1.c ****                 if(0u != adLength)
 650              		.loc 1 939 0
 651 0060 3B1C     		mov	r3, r7
 652 0062 1533     		add	r3, r3, #21
 653 0064 1B78     		ldrb	r3, [r3]
 654 0066 002B     		cmp	r3, #0
 655 0068 26D0     		beq	.L34
 940:.\Generated_Source\PSoC4/BLE_1.c ****                 {
 941:.\Generated_Source\PSoC4/BLE_1.c ****                     /* Increment byte counter so it can point to AD type */
 942:.\Generated_Source\PSoC4/BLE_1.c ****                     byteCounter++;
 656              		.loc 1 942 0
 657 006a 3B1C     		mov	r3, r7
 658 006c 1433     		add	r3, r3, #20
 659 006e 1A78     		ldrb	r2, [r3]
 660 0070 3B1C     		mov	r3, r7
 661 0072 1433     		add	r3, r3, #20
 662 0074 0132     		add	r2, r2, #1
 663 0076 1A70     		strb	r2, [r3]
 943:.\Generated_Source\PSoC4/BLE_1.c ****                     
 944:.\Generated_Source\PSoC4/BLE_1.c ****                     if((CYBLE_SHORT_LOCAL_NAME == destBuffer[byteCounter]) || 
 664              		.loc 1 944 0
 665 0078 3B1C     		mov	r3, r7
 666 007a 1433     		add	r3, r3, #20
 667 007c 1B78     		ldrb	r3, [r3]
 668 007e 3A69     		ldr	r2, [r7, #16]
 669 0080 D318     		add	r3, r2, r3
 670 0082 1B78     		ldrb	r3, [r3]
 671 0084 082B     		cmp	r3, #8
 672 0086 07D0     		beq	.L35
 945:.\Generated_Source\PSoC4/BLE_1.c ****                         (CYBLE_COMPLETE_LOCAL_NAME == destBuffer[byteCounter]))
 673              		.loc 1 945 0 discriminator 1
 674 0088 3B1C     		mov	r3, r7
 675 008a 1433     		add	r3, r3, #20
 676 008c 1B78     		ldrb	r3, [r3]
 677 008e 3A69     		ldr	r2, [r7, #16]
 678 0090 D318     		add	r3, r2, r3
 679 0092 1B78     		ldrb	r3, [r3]
 944:.\Generated_Source\PSoC4/BLE_1.c ****                     if((CYBLE_SHORT_LOCAL_NAME == destBuffer[byteCounter]) || 
 680              		.loc 1 944 0 discriminator 1
 681 0094 092B     		cmp	r3, #9
 682 0096 04D1     		bne	.L36
 683              	.L35:
 946:.\Generated_Source\PSoC4/BLE_1.c ****                     {
 947:.\Generated_Source\PSoC4/BLE_1.c ****                         /* Start of the Local Name AD type was fount. Set flag and exit the loop. *
 948:.\Generated_Source\PSoC4/BLE_1.c ****                         flag = 1u;
 684              		.loc 1 948 0
 685 0098 3B1C     		mov	r3, r7
 686 009a 1633     		add	r3, r3, #22
 687 009c 0122     		mov	r2, #1
 688 009e 1A70     		strb	r2, [r3]
 689 00a0 0BE0     		b	.L33
 690              	.L36:
 949:.\Generated_Source\PSoC4/BLE_1.c ****                     }
 950:.\Generated_Source\PSoC4/BLE_1.c ****                     else
 951:.\Generated_Source\PSoC4/BLE_1.c ****                     {
 952:.\Generated_Source\PSoC4/BLE_1.c ****                         byteCounter += adLength;
ARM GAS  C:\Users\jsing\AppData\Local\Temp\ccadTqFE.s 			page 30


 691              		.loc 1 952 0
 692 00a2 3B1C     		mov	r3, r7
 693 00a4 1433     		add	r3, r3, #20
 694 00a6 391C     		mov	r1, r7
 695 00a8 1431     		add	r1, r1, #20
 696 00aa 3A1C     		mov	r2, r7
 697 00ac 1532     		add	r2, r2, #21
 698 00ae 0978     		ldrb	r1, [r1]
 699 00b0 1278     		ldrb	r2, [r2]
 700 00b2 8A18     		add	r2, r1, r2
 701 00b4 1A70     		strb	r2, [r3]
 702 00b6 00E0     		b	.L33
 703              	.L34:
 953:.\Generated_Source\PSoC4/BLE_1.c ****                     }
 954:.\Generated_Source\PSoC4/BLE_1.c ****                 }
 955:.\Generated_Source\PSoC4/BLE_1.c ****                 else
 956:.\Generated_Source\PSoC4/BLE_1.c ****                 {
 957:.\Generated_Source\PSoC4/BLE_1.c ****                     /* The end of advertisement data structure was encountered though exit the 
 958:.\Generated_Source\PSoC4/BLE_1.c ****                       loop. */
 959:.\Generated_Source\PSoC4/BLE_1.c ****                     break;
 704              		.loc 1 959 0
 705 00b8 0CE0     		b	.L38
 706              	.L33:
 935:.\Generated_Source\PSoC4/BLE_1.c ****             while((byteCounter < maxLength) && (0u == flag))
 707              		.loc 1 935 0 discriminator 1
 708 00ba 3A1C     		mov	r2, r7
 709 00bc 1432     		add	r2, r2, #20
 710 00be 3B1C     		mov	r3, r7
 711 00c0 0F33     		add	r3, r3, #15
 712 00c2 1278     		ldrb	r2, [r2]
 713 00c4 1B78     		ldrb	r3, [r3]
 714 00c6 9A42     		cmp	r2, r3
 715 00c8 04D2     		bcs	.L38
 935:.\Generated_Source\PSoC4/BLE_1.c ****             while((byteCounter < maxLength) && (0u == flag))
 716              		.loc 1 935 0 is_stmt 0 discriminator 2
 717 00ca 3B1C     		mov	r3, r7
 718 00cc 1633     		add	r3, r3, #22
 719 00ce 1B78     		ldrb	r3, [r3]
 720 00d0 002B     		cmp	r3, #0
 721 00d2 BCD0     		beq	.L39
 722              	.L38:
 960:.\Generated_Source\PSoC4/BLE_1.c ****                 }
 961:.\Generated_Source\PSoC4/BLE_1.c ****             }
 962:.\Generated_Source\PSoC4/BLE_1.c ****             
 963:.\Generated_Source\PSoC4/BLE_1.c ****             if(0u != flag)
 723              		.loc 1 963 0 is_stmt 1
 724 00d4 3B1C     		mov	r3, r7
 725 00d6 1633     		add	r3, r3, #22
 726 00d8 1B78     		ldrb	r3, [r3]
 727 00da 002B     		cmp	r3, #0
 728 00dc 59D0     		beq	.L30
 964:.\Generated_Source\PSoC4/BLE_1.c ****             {
 965:.\Generated_Source\PSoC4/BLE_1.c ****                 /* Reuse "adLength" to hold location of the last character of local name in 
 966:.\Generated_Source\PSoC4/BLE_1.c ****                    AD structure. */
 967:.\Generated_Source\PSoC4/BLE_1.c ****                 adLength += byteCounter;
 729              		.loc 1 967 0
 730 00de 3B1C     		mov	r3, r7
ARM GAS  C:\Users\jsing\AppData\Local\Temp\ccadTqFE.s 			page 31


 731 00e0 1533     		add	r3, r3, #21
 732 00e2 391C     		mov	r1, r7
 733 00e4 1531     		add	r1, r1, #21
 734 00e6 3A1C     		mov	r2, r7
 735 00e8 1432     		add	r2, r2, #20
 736 00ea 0978     		ldrb	r1, [r1]
 737 00ec 1278     		ldrb	r2, [r2]
 738 00ee 8A18     		add	r2, r1, r2
 739 00f0 1A70     		strb	r2, [r3]
 968:.\Generated_Source\PSoC4/BLE_1.c ****                 
 969:.\Generated_Source\PSoC4/BLE_1.c ****                 /* Increment byte counter to point to start of the local Name string */
 970:.\Generated_Source\PSoC4/BLE_1.c ****                 byteCounter++;
 740              		.loc 1 970 0
 741 00f2 3B1C     		mov	r3, r7
 742 00f4 1433     		add	r3, r3, #20
 743 00f6 1A78     		ldrb	r2, [r3]
 744 00f8 3B1C     		mov	r3, r7
 745 00fa 1433     		add	r3, r3, #20
 746 00fc 0132     		add	r2, r2, #1
 747 00fe 1A70     		strb	r2, [r3]
 971:.\Generated_Source\PSoC4/BLE_1.c ****                 
 972:.\Generated_Source\PSoC4/BLE_1.c ****                 for(i = byteCounter; ((i < (adLength)) && (CYBLE_NULL_CHARCTER != name[i - byteCoun
 748              		.loc 1 972 0
 749 0100 3B1C     		mov	r3, r7
 750 0102 1733     		add	r3, r3, #23
 751 0104 3A1C     		mov	r2, r7
 752 0106 1432     		add	r2, r2, #20
 753 0108 1278     		ldrb	r2, [r2]
 754 010a 1A70     		strb	r2, [r3]
 755 010c 16E0     		b	.L41
 756              	.L43:
 973:.\Generated_Source\PSoC4/BLE_1.c ****                 {
 974:.\Generated_Source\PSoC4/BLE_1.c ****                     destBuffer[i] = (uint8)name[i - byteCounter];
 757              		.loc 1 974 0 discriminator 1
 758 010e 3B1C     		mov	r3, r7
 759 0110 1733     		add	r3, r3, #23
 760 0112 1B78     		ldrb	r3, [r3]
 761 0114 3A69     		ldr	r2, [r7, #16]
 762 0116 D318     		add	r3, r2, r3
 763 0118 3A1C     		mov	r2, r7
 764 011a 1732     		add	r2, r2, #23
 765 011c 1178     		ldrb	r1, [r2]
 766 011e 3A1C     		mov	r2, r7
 767 0120 1432     		add	r2, r2, #20
 768 0122 1278     		ldrb	r2, [r2]
 769 0124 8A1A     		sub	r2, r1, r2
 770 0126 7968     		ldr	r1, [r7, #4]
 771 0128 8A18     		add	r2, r1, r2
 772 012a 1278     		ldrb	r2, [r2]
 773 012c 1A70     		strb	r2, [r3]
 972:.\Generated_Source\PSoC4/BLE_1.c ****                 for(i = byteCounter; ((i < (adLength)) && (CYBLE_NULL_CHARCTER != name[i - byteCoun
 774              		.loc 1 972 0 discriminator 1
 775 012e 3B1C     		mov	r3, r7
 776 0130 1733     		add	r3, r3, #23
 777 0132 1A78     		ldrb	r2, [r3]
 778 0134 3B1C     		mov	r3, r7
 779 0136 1733     		add	r3, r3, #23
ARM GAS  C:\Users\jsing\AppData\Local\Temp\ccadTqFE.s 			page 32


 780 0138 0132     		add	r2, r2, #1
 781 013a 1A70     		strb	r2, [r3]
 782              	.L41:
 783 013c 3A1C     		mov	r2, r7
 784 013e 1732     		add	r2, r2, #23
 785 0140 3B1C     		mov	r3, r7
 786 0142 1533     		add	r3, r3, #21
 787 0144 1278     		ldrb	r2, [r2]
 788 0146 1B78     		ldrb	r3, [r3]
 789 0148 9A42     		cmp	r2, r3
 790 014a 0BD2     		bcs	.L42
 972:.\Generated_Source\PSoC4/BLE_1.c ****                 for(i = byteCounter; ((i < (adLength)) && (CYBLE_NULL_CHARCTER != name[i - byteCoun
 791              		.loc 1 972 0 is_stmt 0 discriminator 2
 792 014c 3B1C     		mov	r3, r7
 793 014e 1733     		add	r3, r3, #23
 794 0150 1A78     		ldrb	r2, [r3]
 795 0152 3B1C     		mov	r3, r7
 796 0154 1433     		add	r3, r3, #20
 797 0156 1B78     		ldrb	r3, [r3]
 798 0158 D31A     		sub	r3, r2, r3
 799 015a 7A68     		ldr	r2, [r7, #4]
 800 015c D318     		add	r3, r2, r3
 801 015e 1B78     		ldrb	r3, [r3]
 802 0160 002B     		cmp	r3, #0
 803 0162 D4D1     		bne	.L43
 804              	.L42:
 975:.\Generated_Source\PSoC4/BLE_1.c ****                 }
 976:.\Generated_Source\PSoC4/BLE_1.c ****                 
 977:.\Generated_Source\PSoC4/BLE_1.c ****                 /* This loop handles the case when new local name is shorted than old one.
 978:.\Generated_Source\PSoC4/BLE_1.c ****                    In this case all remaining characters should be null characters. */
 979:.\Generated_Source\PSoC4/BLE_1.c ****                 while(adLength > i)
 805              		.loc 1 979 0 is_stmt 1
 806 0164 0DE0     		b	.L44
 807              	.L45:
 980:.\Generated_Source\PSoC4/BLE_1.c ****                 {
 981:.\Generated_Source\PSoC4/BLE_1.c ****                     /* Terminate string */
 982:.\Generated_Source\PSoC4/BLE_1.c ****                     destBuffer[i] = (uint8)CYBLE_NULL_CHARCTER;
 808              		.loc 1 982 0
 809 0166 3B1C     		mov	r3, r7
 810 0168 1733     		add	r3, r3, #23
 811 016a 1B78     		ldrb	r3, [r3]
 812 016c 3A69     		ldr	r2, [r7, #16]
 813 016e D318     		add	r3, r2, r3
 814 0170 0022     		mov	r2, #0
 815 0172 1A70     		strb	r2, [r3]
 983:.\Generated_Source\PSoC4/BLE_1.c ****                     i++;
 816              		.loc 1 983 0
 817 0174 3B1C     		mov	r3, r7
 818 0176 1733     		add	r3, r3, #23
 819 0178 1A78     		ldrb	r2, [r3]
 820 017a 3B1C     		mov	r3, r7
 821 017c 1733     		add	r3, r3, #23
 822 017e 0132     		add	r2, r2, #1
 823 0180 1A70     		strb	r2, [r3]
 824              	.L44:
 979:.\Generated_Source\PSoC4/BLE_1.c ****                 while(adLength > i)
 825              		.loc 1 979 0 discriminator 1
ARM GAS  C:\Users\jsing\AppData\Local\Temp\ccadTqFE.s 			page 33


 826 0182 3A1C     		mov	r2, r7
 827 0184 1532     		add	r2, r2, #21
 828 0186 3B1C     		mov	r3, r7
 829 0188 1733     		add	r3, r3, #23
 830 018a 1278     		ldrb	r2, [r2]
 831 018c 1B78     		ldrb	r3, [r3]
 832 018e 9A42     		cmp	r2, r3
 833 0190 E9D8     		bhi	.L45
 834              	.L30:
 984:.\Generated_Source\PSoC4/BLE_1.c ****                 }
 985:.\Generated_Source\PSoC4/BLE_1.c ****             }
 986:.\Generated_Source\PSoC4/BLE_1.c ****         }
 835              		.loc 1 986 0
 836 0192 BD46     		mov	sp, r7
 837 0194 06B0     		add	sp, sp, #24
 838              		@ sp needed
 839 0196 80BD     		pop	{r7, pc}
 840              	.L47:
 841              		.align	2
 842              	.L46:
 843 0198 00000000 		.word	cyBle_discoveryData
 844 019c 00000000 		.word	cyBle_scanRspData
 845              		.cfi_endproc
 846              	.LFE9:
 847              		.size	CyBle_ChangeAdLocalName, .-CyBle_ChangeAdLocalName
 848              		.section	.text.CyBle_GapSetLocalName,"ax",%progbits
 849              		.align	2
 850              		.global	CyBle_GapSetLocalName
 851              		.code	16
 852              		.thumb_func
 853              		.type	CyBle_GapSetLocalName, %function
 854              	CyBle_GapSetLocalName:
 855              	.LFB10:
 987:.\Generated_Source\PSoC4/BLE_1.c ****         
 988:.\Generated_Source\PSoC4/BLE_1.c **** #endif /* (CYBLE_GAP_ROLE_PERIPHERAL) */  
 989:.\Generated_Source\PSoC4/BLE_1.c ****     
 990:.\Generated_Source\PSoC4/BLE_1.c ****     
 991:.\Generated_Source\PSoC4/BLE_1.c ****     /******************************************************************************
 992:.\Generated_Source\PSoC4/BLE_1.c ****     ##Function Name: CyBle_GapSetLocalName
 993:.\Generated_Source\PSoC4/BLE_1.c ****     *******************************************************************************
 994:.\Generated_Source\PSoC4/BLE_1.c ****     Summary:
 995:.\Generated_Source\PSoC4/BLE_1.c ****      This API is used to set the local device name - a Characteristic of the 
 996:.\Generated_Source\PSoC4/BLE_1.c ****      GAP Service. If the characteristic length entered in the component customizer
 997:.\Generated_Source\PSoC4/BLE_1.c ****      is shorter than the string specified by the "name" parameter, the local device
 998:.\Generated_Source\PSoC4/BLE_1.c ****      name will be cut to the length specified in the customizer.
 999:.\Generated_Source\PSoC4/BLE_1.c **** 
1000:.\Generated_Source\PSoC4/BLE_1.c ****     Parameters:
1001:.\Generated_Source\PSoC4/BLE_1.c ****      char8 name: The local device name string. The name string to be written as
1002:.\Generated_Source\PSoC4/BLE_1.c ****                  the local device name. It represents a UTF-8 encoded User
1003:.\Generated_Source\PSoC4/BLE_1.c ****                  Friendly Descriptive Name for the device. The length of the local
1004:.\Generated_Source\PSoC4/BLE_1.c ****                  device string is entered into the component customizer and it can
1005:.\Generated_Source\PSoC4/BLE_1.c ****                  be set to a value from 0 to 248 bytes. If the name contained in
1006:.\Generated_Source\PSoC4/BLE_1.c ****                  the parameter is shorter than the length from the customizer, the
1007:.\Generated_Source\PSoC4/BLE_1.c ****                  end of the name is indicated by a NULL octet (0x00).
1008:.\Generated_Source\PSoC4/BLE_1.c **** 
1009:.\Generated_Source\PSoC4/BLE_1.c ****     Return:
1010:.\Generated_Source\PSoC4/BLE_1.c ****      CYBLE_API_RESULT_T : Return value indicates if the function succeeded or 
ARM GAS  C:\Users\jsing\AppData\Local\Temp\ccadTqFE.s 			page 34


1011:.\Generated_Source\PSoC4/BLE_1.c ****      failed. Following are the possible error codes.
1012:.\Generated_Source\PSoC4/BLE_1.c ****      <table>
1013:.\Generated_Source\PSoC4/BLE_1.c ****       Errors codes                        Description
1014:.\Generated_Source\PSoC4/BLE_1.c ****       ------------                        -----------
1015:.\Generated_Source\PSoC4/BLE_1.c ****       CYBLE_ERROR_OK                      Function completed successfully.
1016:.\Generated_Source\PSoC4/BLE_1.c ****       CYBLE_ERROR_INVALID_PARAMETER       On specifying NULL as input parameter
1017:.\Generated_Source\PSoC4/BLE_1.c ****      </table>
1018:.\Generated_Source\PSoC4/BLE_1.c ****  
1019:.\Generated_Source\PSoC4/BLE_1.c ****     ******************************************************************************/
1020:.\Generated_Source\PSoC4/BLE_1.c ****     CYBLE_API_RESULT_T CyBle_GapSetLocalName(const char8 name[])
1021:.\Generated_Source\PSoC4/BLE_1.c ****     {
 856              		.loc 1 1021 0
 857              		.cfi_startproc
 858 0000 80B5     		push	{r7, lr}
 859              		.cfi_def_cfa_offset 8
 860              		.cfi_offset 7, -8
 861              		.cfi_offset 14, -4
 862 0002 86B0     		sub	sp, sp, #24
 863              		.cfi_def_cfa_offset 32
 864 0004 00AF     		add	r7, sp, #0
 865              		.cfi_def_cfa_register 7
 866 0006 7860     		str	r0, [r7, #4]
1022:.\Generated_Source\PSoC4/BLE_1.c ****         CYBLE_API_RESULT_T apiResult = CYBLE_ERROR_OK;
 867              		.loc 1 1022 0
 868 0008 3B1C     		mov	r3, r7
 869 000a 1633     		add	r3, r3, #22
 870 000c 0022     		mov	r2, #0
 871 000e 1A80     		strh	r2, [r3]
1023:.\Generated_Source\PSoC4/BLE_1.c ****         uint8 i;
1024:.\Generated_Source\PSoC4/BLE_1.c ****         char8 *ptr;
1025:.\Generated_Source\PSoC4/BLE_1.c ****         uint8 charLen;
1026:.\Generated_Source\PSoC4/BLE_1.c **** 
1027:.\Generated_Source\PSoC4/BLE_1.c ****         if(NULL != name)
 872              		.loc 1 1027 0
 873 0010 7B68     		ldr	r3, [r7, #4]
 874 0012 002B     		cmp	r3, #0
 875 0014 42D0     		beq	.L49
1028:.\Generated_Source\PSoC4/BLE_1.c ****         {
1029:.\Generated_Source\PSoC4/BLE_1.c ****             /* Get the pointer to the Device Name characteristic  */
1030:.\Generated_Source\PSoC4/BLE_1.c ****             ptr = (char8 *)
 876              		.loc 1 1030 0
 877 0016 274B     		ldr	r3, .L55
 878 0018 9B6B     		ldr	r3, [r3, #56]
 879 001a 3B61     		str	r3, [r7, #16]
1031:.\Generated_Source\PSoC4/BLE_1.c ****                 cyBle_gattDB[CYBLE_GAP_DEVICE_NAME_INDEX].attValue.attFormatValue.attGenericVal;
1032:.\Generated_Source\PSoC4/BLE_1.c **** 
1033:.\Generated_Source\PSoC4/BLE_1.c ****             /* First need to get the length of the characteristic data in the GATT
1034:.\Generated_Source\PSoC4/BLE_1.c ****                 database to make sure there is enough place for the data. The length
1035:.\Generated_Source\PSoC4/BLE_1.c ****                 can't be longer than 248, so only the LSB of 16 bit of length is to
1036:.\Generated_Source\PSoC4/BLE_1.c ****                 be used. */
1037:.\Generated_Source\PSoC4/BLE_1.c ****             charLen = (uint8) cyBle_gattDB[CYBLE_GAP_DEVICE_NAME_INDEX].attValue.attFormatValue.len
 880              		.loc 1 1037 0
 881 001c 254B     		ldr	r3, .L55
 882 001e 9A8E     		ldrh	r2, [r3, #52]
 883 0020 3B1C     		mov	r3, r7
 884 0022 0F33     		add	r3, r3, #15
 885 0024 1A70     		strb	r2, [r3]
ARM GAS  C:\Users\jsing\AppData\Local\Temp\ccadTqFE.s 			page 35


1038:.\Generated_Source\PSoC4/BLE_1.c **** 
1039:.\Generated_Source\PSoC4/BLE_1.c ****             /* Copy name into characteristic */
1040:.\Generated_Source\PSoC4/BLE_1.c ****             for(i = 0u; ((i < (charLen - 1u)) && (CYBLE_NULL_CHARCTER != name[i])); i++)
 886              		.loc 1 1040 0
 887 0026 3B1C     		mov	r3, r7
 888 0028 1533     		add	r3, r3, #21
 889 002a 0022     		mov	r2, #0
 890 002c 1A70     		strb	r2, [r3]
 891 002e 12E0     		b	.L50
 892              	.L52:
1041:.\Generated_Source\PSoC4/BLE_1.c ****             {
1042:.\Generated_Source\PSoC4/BLE_1.c ****                 ptr[i] = name[i];
 893              		.loc 1 1042 0 discriminator 1
 894 0030 3B1C     		mov	r3, r7
 895 0032 1533     		add	r3, r3, #21
 896 0034 1B78     		ldrb	r3, [r3]
 897 0036 3A69     		ldr	r2, [r7, #16]
 898 0038 D318     		add	r3, r2, r3
 899 003a 3A1C     		mov	r2, r7
 900 003c 1532     		add	r2, r2, #21
 901 003e 1278     		ldrb	r2, [r2]
 902 0040 7968     		ldr	r1, [r7, #4]
 903 0042 8A18     		add	r2, r1, r2
 904 0044 1278     		ldrb	r2, [r2]
 905 0046 1A70     		strb	r2, [r3]
1040:.\Generated_Source\PSoC4/BLE_1.c ****             for(i = 0u; ((i < (charLen - 1u)) && (CYBLE_NULL_CHARCTER != name[i])); i++)
 906              		.loc 1 1040 0 discriminator 1
 907 0048 3B1C     		mov	r3, r7
 908 004a 1533     		add	r3, r3, #21
 909 004c 1A78     		ldrb	r2, [r3]
 910 004e 3B1C     		mov	r3, r7
 911 0050 1533     		add	r3, r3, #21
 912 0052 0132     		add	r2, r2, #1
 913 0054 1A70     		strb	r2, [r3]
 914              	.L50:
 915 0056 3B1C     		mov	r3, r7
 916 0058 1533     		add	r3, r3, #21
 917 005a 1A78     		ldrb	r2, [r3]
 918 005c 3B1C     		mov	r3, r7
 919 005e 0F33     		add	r3, r3, #15
 920 0060 1B78     		ldrb	r3, [r3]
 921 0062 013B     		sub	r3, r3, #1
 922 0064 9A42     		cmp	r2, r3
 923 0066 07D2     		bcs	.L51
1040:.\Generated_Source\PSoC4/BLE_1.c ****             for(i = 0u; ((i < (charLen - 1u)) && (CYBLE_NULL_CHARCTER != name[i])); i++)
 924              		.loc 1 1040 0 is_stmt 0 discriminator 2
 925 0068 3B1C     		mov	r3, r7
 926 006a 1533     		add	r3, r3, #21
 927 006c 1B78     		ldrb	r3, [r3]
 928 006e 7A68     		ldr	r2, [r7, #4]
 929 0070 D318     		add	r3, r2, r3
 930 0072 1B78     		ldrb	r3, [r3]
 931 0074 002B     		cmp	r3, #0
 932 0076 DBD1     		bne	.L52
 933              	.L51:
1043:.\Generated_Source\PSoC4/BLE_1.c ****             }
1044:.\Generated_Source\PSoC4/BLE_1.c **** 
ARM GAS  C:\Users\jsing\AppData\Local\Temp\ccadTqFE.s 			page 36


1045:.\Generated_Source\PSoC4/BLE_1.c ****             /* Terminate string */
1046:.\Generated_Source\PSoC4/BLE_1.c ****             ptr[i] = CYBLE_NULL_CHARCTER;
 934              		.loc 1 1046 0 is_stmt 1
 935 0078 3B1C     		mov	r3, r7
 936 007a 1533     		add	r3, r3, #21
 937 007c 1B78     		ldrb	r3, [r3]
 938 007e 3A69     		ldr	r2, [r7, #16]
 939 0080 D318     		add	r3, r2, r3
 940 0082 0022     		mov	r2, #0
 941 0084 1A70     		strb	r2, [r3]
1047:.\Generated_Source\PSoC4/BLE_1.c ****             
1048:.\Generated_Source\PSoC4/BLE_1.c ****             /* Update device name in advertising and scan response structure */
1049:.\Generated_Source\PSoC4/BLE_1.c ****             #if(CYBLE_GAP_ROLE_PERIPHERAL)
1050:.\Generated_Source\PSoC4/BLE_1.c ****                 CyBle_ChangeAdLocalName(name, 0u);
 942              		.loc 1 1050 0
 943 0086 7B68     		ldr	r3, [r7, #4]
 944 0088 181C     		mov	r0, r3
 945 008a 0021     		mov	r1, #0
 946 008c FFF7FEFF 		bl	CyBle_ChangeAdLocalName
1051:.\Generated_Source\PSoC4/BLE_1.c ****                 CyBle_ChangeAdLocalName(name, 1u);
 947              		.loc 1 1051 0
 948 0090 7B68     		ldr	r3, [r7, #4]
 949 0092 181C     		mov	r0, r3
 950 0094 0121     		mov	r1, #1
 951 0096 FFF7FEFF 		bl	CyBle_ChangeAdLocalName
 952 009a 03E0     		b	.L53
 953              	.L49:
1052:.\Generated_Source\PSoC4/BLE_1.c ****             #endif /* (CYBLE_GAP_ROLE_PERIPHERAL) */
1053:.\Generated_Source\PSoC4/BLE_1.c ****         }
1054:.\Generated_Source\PSoC4/BLE_1.c ****         else
1055:.\Generated_Source\PSoC4/BLE_1.c ****         {
1056:.\Generated_Source\PSoC4/BLE_1.c ****             apiResult = CYBLE_ERROR_INVALID_PARAMETER;
 954              		.loc 1 1056 0
 955 009c 3B1C     		mov	r3, r7
 956 009e 1633     		add	r3, r3, #22
 957 00a0 0122     		mov	r2, #1
 958 00a2 1A80     		strh	r2, [r3]
 959              	.L53:
1057:.\Generated_Source\PSoC4/BLE_1.c ****         }
1058:.\Generated_Source\PSoC4/BLE_1.c ****         
1059:.\Generated_Source\PSoC4/BLE_1.c ****         return(apiResult);
 960              		.loc 1 1059 0
 961 00a4 3B1C     		mov	r3, r7
 962 00a6 1633     		add	r3, r3, #22
 963 00a8 1B88     		ldrh	r3, [r3]
1060:.\Generated_Source\PSoC4/BLE_1.c ****     }
 964              		.loc 1 1060 0
 965 00aa 181C     		mov	r0, r3
 966 00ac BD46     		mov	sp, r7
 967 00ae 06B0     		add	sp, sp, #24
 968              		@ sp needed
 969 00b0 80BD     		pop	{r7, pc}
 970              	.L56:
 971 00b2 C046     		.align	2
 972              	.L55:
 973 00b4 00000000 		.word	cyBle_gattDB
 974              		.cfi_endproc
ARM GAS  C:\Users\jsing\AppData\Local\Temp\ccadTqFE.s 			page 37


 975              	.LFE10:
 976              		.size	CyBle_GapSetLocalName, .-CyBle_GapSetLocalName
 977              		.section	.text.CyBle_GapGetLocalName,"ax",%progbits
 978              		.align	2
 979              		.global	CyBle_GapGetLocalName
 980              		.code	16
 981              		.thumb_func
 982              		.type	CyBle_GapGetLocalName, %function
 983              	CyBle_GapGetLocalName:
 984              	.LFB11:
1061:.\Generated_Source\PSoC4/BLE_1.c **** 
1062:.\Generated_Source\PSoC4/BLE_1.c **** 
1063:.\Generated_Source\PSoC4/BLE_1.c ****     /******************************************************************************
1064:.\Generated_Source\PSoC4/BLE_1.c ****     ##Function Name: CyBle_GapGetLocalName
1065:.\Generated_Source\PSoC4/BLE_1.c ****     *******************************************************************************
1066:.\Generated_Source\PSoC4/BLE_1.c ****  
1067:.\Generated_Source\PSoC4/BLE_1.c ****     Summary:
1068:.\Generated_Source\PSoC4/BLE_1.c ****      This API is used to read the local device name - a Characteristic of the 
1069:.\Generated_Source\PSoC4/BLE_1.c ****      GAP Service.
1070:.\Generated_Source\PSoC4/BLE_1.c **** 
1071:.\Generated_Source\PSoC4/BLE_1.c ****     Parameters:
1072:.\Generated_Source\PSoC4/BLE_1.c ****     char8 name: The local device name string. Used to read the local name to the
1073:.\Generated_Source\PSoC4/BLE_1.c ****                 given string array. It represents a UTF-8 encoded User Friendly 
1074:.\Generated_Source\PSoC4/BLE_1.c ****                 Descriptive Name for the device. The length of the local device
1075:.\Generated_Source\PSoC4/BLE_1.c ****                 string is entered into the component customizer and it can be set
1076:.\Generated_Source\PSoC4/BLE_1.c ****                 to a value from 0 to 248 bytes. If the name contained in the
1077:.\Generated_Source\PSoC4/BLE_1.c ****                 parameter is shorter than the length from the customizer, the end
1078:.\Generated_Source\PSoC4/BLE_1.c ****                 of the name is indicated by a NULL octet (0x00).
1079:.\Generated_Source\PSoC4/BLE_1.c **** 
1080:.\Generated_Source\PSoC4/BLE_1.c ****     Return:
1081:.\Generated_Source\PSoC4/BLE_1.c ****      CYBLE_API_RESULT_T : Return value indicates if the function succeeded or 
1082:.\Generated_Source\PSoC4/BLE_1.c ****      failed. Following are the possible error codes.
1083:.\Generated_Source\PSoC4/BLE_1.c ****      <table>
1084:.\Generated_Source\PSoC4/BLE_1.c ****       Errors codes                        Description
1085:.\Generated_Source\PSoC4/BLE_1.c ****       ------------                        -----------
1086:.\Generated_Source\PSoC4/BLE_1.c ****       CYBLE_ERROR_OK                      Function completed successfully.
1087:.\Generated_Source\PSoC4/BLE_1.c ****       CYBLE_ERROR_INVALID_PARAMETER       On specifying NULL as input parameter
1088:.\Generated_Source\PSoC4/BLE_1.c ****      </table>
1089:.\Generated_Source\PSoC4/BLE_1.c **** 
1090:.\Generated_Source\PSoC4/BLE_1.c ****     ******************************************************************************/
1091:.\Generated_Source\PSoC4/BLE_1.c ****     CYBLE_API_RESULT_T CyBle_GapGetLocalName(char8 name[])
1092:.\Generated_Source\PSoC4/BLE_1.c ****     {
 985              		.loc 1 1092 0
 986              		.cfi_startproc
 987 0000 80B5     		push	{r7, lr}
 988              		.cfi_def_cfa_offset 8
 989              		.cfi_offset 7, -8
 990              		.cfi_offset 14, -4
 991 0002 86B0     		sub	sp, sp, #24
 992              		.cfi_def_cfa_offset 32
 993 0004 00AF     		add	r7, sp, #0
 994              		.cfi_def_cfa_register 7
 995 0006 7860     		str	r0, [r7, #4]
1093:.\Generated_Source\PSoC4/BLE_1.c ****         CYBLE_API_RESULT_T apiResult = CYBLE_ERROR_OK;
 996              		.loc 1 1093 0
 997 0008 3B1C     		mov	r3, r7
 998 000a 1633     		add	r3, r3, #22
ARM GAS  C:\Users\jsing\AppData\Local\Temp\ccadTqFE.s 			page 38


 999 000c 0022     		mov	r2, #0
 1000 000e 1A80     		strh	r2, [r3]
1094:.\Generated_Source\PSoC4/BLE_1.c ****         uint8 charLen;
1095:.\Generated_Source\PSoC4/BLE_1.c ****         uint8 i;
1096:.\Generated_Source\PSoC4/BLE_1.c ****         char8 *ptr;
1097:.\Generated_Source\PSoC4/BLE_1.c **** 
1098:.\Generated_Source\PSoC4/BLE_1.c ****         if(NULL != name)
 1001              		.loc 1 1098 0
 1002 0010 7B68     		ldr	r3, [r7, #4]
 1003 0012 002B     		cmp	r3, #0
 1004 0014 38D0     		beq	.L58
1099:.\Generated_Source\PSoC4/BLE_1.c ****         {
1100:.\Generated_Source\PSoC4/BLE_1.c ****             /* Get the pointer to the Device Name characteristic  */
1101:.\Generated_Source\PSoC4/BLE_1.c ****             ptr = (char8 *) cyBle_gattDB[CYBLE_GAP_DEVICE_NAME_INDEX].attValue.attFormatValue.attGe
 1005              		.loc 1 1101 0
 1006 0016 224B     		ldr	r3, .L64
 1007 0018 9B6B     		ldr	r3, [r3, #56]
 1008 001a 3B61     		str	r3, [r7, #16]
1102:.\Generated_Source\PSoC4/BLE_1.c **** 
1103:.\Generated_Source\PSoC4/BLE_1.c ****             /* First need to get the length of the characteristic data in the GATT
1104:.\Generated_Source\PSoC4/BLE_1.c ****                 database to make sure there is enough place for the data. The length
1105:.\Generated_Source\PSoC4/BLE_1.c ****                 can't be longer than 248, so only the LSB of 16 bit of length is to
1106:.\Generated_Source\PSoC4/BLE_1.c ****                 be used. */
1107:.\Generated_Source\PSoC4/BLE_1.c ****             charLen = (uint8)cyBle_gattDB[CYBLE_GAP_DEVICE_NAME_INDEX].attValue.attFormatValue.leng
 1009              		.loc 1 1107 0
 1010 001c 204B     		ldr	r3, .L64
 1011 001e 9A8E     		ldrh	r2, [r3, #52]
 1012 0020 3B1C     		mov	r3, r7
 1013 0022 0F33     		add	r3, r3, #15
 1014 0024 1A70     		strb	r2, [r3]
1108:.\Generated_Source\PSoC4/BLE_1.c **** 
1109:.\Generated_Source\PSoC4/BLE_1.c ****             /* Copy name from characteristic */
1110:.\Generated_Source\PSoC4/BLE_1.c ****             for(i = 0u; ((i < (charLen - 1u)) && (CYBLE_NULL_CHARCTER != ptr[i])); i++)
 1015              		.loc 1 1110 0
 1016 0026 3B1C     		mov	r3, r7
 1017 0028 1533     		add	r3, r3, #21
 1018 002a 0022     		mov	r2, #0
 1019 002c 1A70     		strb	r2, [r3]
 1020 002e 12E0     		b	.L59
 1021              	.L61:
1111:.\Generated_Source\PSoC4/BLE_1.c ****             {
1112:.\Generated_Source\PSoC4/BLE_1.c ****                 name[i] = ptr[i];
 1022              		.loc 1 1112 0 discriminator 1
 1023 0030 3B1C     		mov	r3, r7
 1024 0032 1533     		add	r3, r3, #21
 1025 0034 1B78     		ldrb	r3, [r3]
 1026 0036 7A68     		ldr	r2, [r7, #4]
 1027 0038 D318     		add	r3, r2, r3
 1028 003a 3A1C     		mov	r2, r7
 1029 003c 1532     		add	r2, r2, #21
 1030 003e 1278     		ldrb	r2, [r2]
 1031 0040 3969     		ldr	r1, [r7, #16]
 1032 0042 8A18     		add	r2, r1, r2
 1033 0044 1278     		ldrb	r2, [r2]
 1034 0046 1A70     		strb	r2, [r3]
1110:.\Generated_Source\PSoC4/BLE_1.c ****             for(i = 0u; ((i < (charLen - 1u)) && (CYBLE_NULL_CHARCTER != ptr[i])); i++)
 1035              		.loc 1 1110 0 discriminator 1
ARM GAS  C:\Users\jsing\AppData\Local\Temp\ccadTqFE.s 			page 39


 1036 0048 3B1C     		mov	r3, r7
 1037 004a 1533     		add	r3, r3, #21
 1038 004c 1A78     		ldrb	r2, [r3]
 1039 004e 3B1C     		mov	r3, r7
 1040 0050 1533     		add	r3, r3, #21
 1041 0052 0132     		add	r2, r2, #1
 1042 0054 1A70     		strb	r2, [r3]
 1043              	.L59:
 1044 0056 3B1C     		mov	r3, r7
 1045 0058 1533     		add	r3, r3, #21
 1046 005a 1A78     		ldrb	r2, [r3]
 1047 005c 3B1C     		mov	r3, r7
 1048 005e 0F33     		add	r3, r3, #15
 1049 0060 1B78     		ldrb	r3, [r3]
 1050 0062 013B     		sub	r3, r3, #1
 1051 0064 9A42     		cmp	r2, r3
 1052 0066 07D2     		bcs	.L60
1110:.\Generated_Source\PSoC4/BLE_1.c ****             for(i = 0u; ((i < (charLen - 1u)) && (CYBLE_NULL_CHARCTER != ptr[i])); i++)
 1053              		.loc 1 1110 0 is_stmt 0 discriminator 2
 1054 0068 3B1C     		mov	r3, r7
 1055 006a 1533     		add	r3, r3, #21
 1056 006c 1B78     		ldrb	r3, [r3]
 1057 006e 3A69     		ldr	r2, [r7, #16]
 1058 0070 D318     		add	r3, r2, r3
 1059 0072 1B78     		ldrb	r3, [r3]
 1060 0074 002B     		cmp	r3, #0
 1061 0076 DBD1     		bne	.L61
 1062              	.L60:
1113:.\Generated_Source\PSoC4/BLE_1.c ****             }
1114:.\Generated_Source\PSoC4/BLE_1.c **** 
1115:.\Generated_Source\PSoC4/BLE_1.c ****             /* Terminate string */
1116:.\Generated_Source\PSoC4/BLE_1.c ****             name[i] = CYBLE_NULL_CHARCTER;
 1063              		.loc 1 1116 0 is_stmt 1
 1064 0078 3B1C     		mov	r3, r7
 1065 007a 1533     		add	r3, r3, #21
 1066 007c 1B78     		ldrb	r3, [r3]
 1067 007e 7A68     		ldr	r2, [r7, #4]
 1068 0080 D318     		add	r3, r2, r3
 1069 0082 0022     		mov	r2, #0
 1070 0084 1A70     		strb	r2, [r3]
 1071 0086 03E0     		b	.L62
 1072              	.L58:
1117:.\Generated_Source\PSoC4/BLE_1.c ****         }
1118:.\Generated_Source\PSoC4/BLE_1.c ****         else
1119:.\Generated_Source\PSoC4/BLE_1.c ****         {
1120:.\Generated_Source\PSoC4/BLE_1.c ****             apiResult = CYBLE_ERROR_INVALID_PARAMETER;
 1073              		.loc 1 1120 0
 1074 0088 3B1C     		mov	r3, r7
 1075 008a 1633     		add	r3, r3, #22
 1076 008c 0122     		mov	r2, #1
 1077 008e 1A80     		strh	r2, [r3]
 1078              	.L62:
1121:.\Generated_Source\PSoC4/BLE_1.c ****         }
1122:.\Generated_Source\PSoC4/BLE_1.c ****         
1123:.\Generated_Source\PSoC4/BLE_1.c ****         return(apiResult);
 1079              		.loc 1 1123 0
 1080 0090 3B1C     		mov	r3, r7
ARM GAS  C:\Users\jsing\AppData\Local\Temp\ccadTqFE.s 			page 40


 1081 0092 1633     		add	r3, r3, #22
 1082 0094 1B88     		ldrh	r3, [r3]
1124:.\Generated_Source\PSoC4/BLE_1.c ****     }
 1083              		.loc 1 1124 0
 1084 0096 181C     		mov	r0, r3
 1085 0098 BD46     		mov	sp, r7
 1086 009a 06B0     		add	sp, sp, #24
 1087              		@ sp needed
 1088 009c 80BD     		pop	{r7, pc}
 1089              	.L65:
 1090 009e C046     		.align	2
 1091              	.L64:
 1092 00a0 00000000 		.word	cyBle_gattDB
 1093              		.cfi_endproc
 1094              	.LFE11:
 1095              		.size	CyBle_GapGetLocalName, .-CyBle_GapGetLocalName
 1096              		.section	.text.CyBle_Get16ByPtr,"ax",%progbits
 1097              		.align	2
 1098              		.global	CyBle_Get16ByPtr
 1099              		.code	16
 1100              		.thumb_func
 1101              		.type	CyBle_Get16ByPtr, %function
 1102              	CyBle_Get16ByPtr:
 1103              	.LFB12:
1125:.\Generated_Source\PSoC4/BLE_1.c **** 
1126:.\Generated_Source\PSoC4/BLE_1.c **** #endif /* (CYBLE_GATT_ROLE_SERVER) */
1127:.\Generated_Source\PSoC4/BLE_1.c **** 
1128:.\Generated_Source\PSoC4/BLE_1.c **** 
1129:.\Generated_Source\PSoC4/BLE_1.c **** /******************************************************************************
1130:.\Generated_Source\PSoC4/BLE_1.c **** ##Function Name: CyBle_Get16ByPtr
1131:.\Generated_Source\PSoC4/BLE_1.c **** *******************************************************************************
1132:.\Generated_Source\PSoC4/BLE_1.c **** 
1133:.\Generated_Source\PSoC4/BLE_1.c **** Summary:
1134:.\Generated_Source\PSoC4/BLE_1.c ****  Returns the two-bytes value by using a pointer to the LSB.
1135:.\Generated_Source\PSoC4/BLE_1.c **** 
1136:.\Generated_Source\PSoC4/BLE_1.c **** Parameters:
1137:.\Generated_Source\PSoC4/BLE_1.c ****  uint8 * ptr: Pointer to the LSB of two-bytes data (little endian).
1138:.\Generated_Source\PSoC4/BLE_1.c **** 
1139:.\Generated_Source\PSoC4/BLE_1.c **** Return:
1140:.\Generated_Source\PSoC4/BLE_1.c ****  uint16 value: Two-bytes data.
1141:.\Generated_Source\PSoC4/BLE_1.c **** 
1142:.\Generated_Source\PSoC4/BLE_1.c **** ******************************************************************************/
1143:.\Generated_Source\PSoC4/BLE_1.c **** uint16 CyBle_Get16ByPtr(const uint8 ptr[])
1144:.\Generated_Source\PSoC4/BLE_1.c **** {
 1104              		.loc 1 1144 0
 1105              		.cfi_startproc
 1106 0000 80B5     		push	{r7, lr}
 1107              		.cfi_def_cfa_offset 8
 1108              		.cfi_offset 7, -8
 1109              		.cfi_offset 14, -4
 1110 0002 82B0     		sub	sp, sp, #8
 1111              		.cfi_def_cfa_offset 16
 1112 0004 00AF     		add	r7, sp, #0
 1113              		.cfi_def_cfa_register 7
 1114 0006 7860     		str	r0, [r7, #4]
1145:.\Generated_Source\PSoC4/BLE_1.c ****     return ((uint16) ptr[0u] | ((uint16) (((uint16) ptr[1u]) << 8u)));
 1115              		.loc 1 1145 0
ARM GAS  C:\Users\jsing\AppData\Local\Temp\ccadTqFE.s 			page 41


 1116 0008 7B68     		ldr	r3, [r7, #4]
 1117 000a 1B78     		ldrb	r3, [r3]
 1118 000c 1A1C     		mov	r2, r3
 1119 000e 7B68     		ldr	r3, [r7, #4]
 1120 0010 0133     		add	r3, r3, #1
 1121 0012 1B78     		ldrb	r3, [r3]
 1122 0014 1B02     		lsl	r3, r3, #8
 1123 0016 9BB2     		uxth	r3, r3
 1124 0018 1343     		orr	r3, r2
 1125 001a 9BB2     		uxth	r3, r3
1146:.\Generated_Source\PSoC4/BLE_1.c **** }
 1126              		.loc 1 1146 0
 1127 001c 181C     		mov	r0, r3
 1128 001e BD46     		mov	sp, r7
 1129 0020 02B0     		add	sp, sp, #8
 1130              		@ sp needed
 1131 0022 80BD     		pop	{r7, pc}
 1132              		.cfi_endproc
 1133              	.LFE12:
 1134              		.size	CyBle_Get16ByPtr, .-CyBle_Get16ByPtr
 1135              		.section	.text.CyBle_Set16ByPtr,"ax",%progbits
 1136              		.align	2
 1137              		.global	CyBle_Set16ByPtr
 1138              		.code	16
 1139              		.thumb_func
 1140              		.type	CyBle_Set16ByPtr, %function
 1141              	CyBle_Set16ByPtr:
 1142              	.LFB13:
1147:.\Generated_Source\PSoC4/BLE_1.c **** 
1148:.\Generated_Source\PSoC4/BLE_1.c **** 
1149:.\Generated_Source\PSoC4/BLE_1.c **** /******************************************************************************
1150:.\Generated_Source\PSoC4/BLE_1.c **** ##Function Name: CyBle_Set16ByPtr
1151:.\Generated_Source\PSoC4/BLE_1.c **** *******************************************************************************
1152:.\Generated_Source\PSoC4/BLE_1.c **** 
1153:.\Generated_Source\PSoC4/BLE_1.c **** Summary:
1154:.\Generated_Source\PSoC4/BLE_1.c ****  Sets the two-bytes value by using a pointer to the LSB.
1155:.\Generated_Source\PSoC4/BLE_1.c **** 
1156:.\Generated_Source\PSoC4/BLE_1.c **** Parameters:
1157:.\Generated_Source\PSoC4/BLE_1.c ****  uint8 * ptr:   Pointer to the LSB of two-bytes data (little endian).
1158:.\Generated_Source\PSoC4/BLE_1.c ****  uint16 value:  Two-bytes data to be written.
1159:.\Generated_Source\PSoC4/BLE_1.c **** 
1160:.\Generated_Source\PSoC4/BLE_1.c **** Return:
1161:.\Generated_Source\PSoC4/BLE_1.c ****  None
1162:.\Generated_Source\PSoC4/BLE_1.c **** 
1163:.\Generated_Source\PSoC4/BLE_1.c **** ******************************************************************************/
1164:.\Generated_Source\PSoC4/BLE_1.c **** void CyBle_Set16ByPtr(uint8 ptr[], uint16 value)
1165:.\Generated_Source\PSoC4/BLE_1.c **** {
 1143              		.loc 1 1165 0
 1144              		.cfi_startproc
 1145 0000 80B5     		push	{r7, lr}
 1146              		.cfi_def_cfa_offset 8
 1147              		.cfi_offset 7, -8
 1148              		.cfi_offset 14, -4
 1149 0002 82B0     		sub	sp, sp, #8
 1150              		.cfi_def_cfa_offset 16
 1151 0004 00AF     		add	r7, sp, #0
 1152              		.cfi_def_cfa_register 7
ARM GAS  C:\Users\jsing\AppData\Local\Temp\ccadTqFE.s 			page 42


 1153 0006 7860     		str	r0, [r7, #4]
 1154 0008 0A1C     		mov	r2, r1
 1155 000a BB1C     		add	r3, r7, #2
 1156 000c 1A80     		strh	r2, [r3]
1166:.\Generated_Source\PSoC4/BLE_1.c ****     ptr[0u] = (uint8) value;
 1157              		.loc 1 1166 0
 1158 000e BB1C     		add	r3, r7, #2
 1159 0010 1B88     		ldrh	r3, [r3]
 1160 0012 DAB2     		uxtb	r2, r3
 1161 0014 7B68     		ldr	r3, [r7, #4]
 1162 0016 1A70     		strb	r2, [r3]
1167:.\Generated_Source\PSoC4/BLE_1.c ****     ptr[1u] = (uint8) (value >> 8u);
 1163              		.loc 1 1167 0
 1164 0018 7B68     		ldr	r3, [r7, #4]
 1165 001a 0133     		add	r3, r3, #1
 1166 001c BA1C     		add	r2, r7, #2
 1167 001e 1288     		ldrh	r2, [r2]
 1168 0020 120A     		lsr	r2, r2, #8
 1169 0022 92B2     		uxth	r2, r2
 1170 0024 D2B2     		uxtb	r2, r2
 1171 0026 1A70     		strb	r2, [r3]
1168:.\Generated_Source\PSoC4/BLE_1.c **** }
 1172              		.loc 1 1168 0
 1173 0028 BD46     		mov	sp, r7
 1174 002a 02B0     		add	sp, sp, #8
 1175              		@ sp needed
 1176 002c 80BD     		pop	{r7, pc}
 1177              		.cfi_endproc
 1178              	.LFE13:
 1179              		.size	CyBle_Set16ByPtr, .-CyBle_Set16ByPtr
 1180 002e C046     		.bss
 1181 0024 00000000 		.align	3
 1182              	cyBle_stackMemoryRam.5994:
 1183 0028 00000000 		.space	3220
 1183      00000000 
 1183      00000000 
 1183      00000000 
 1183      00000000 
 1184 0cbc 00000000 		.text
 1185              	.Letext0:
 1186              		.file 2 ".\\Generated_Source\\PSoC4\\cytypes.h"
 1187              		.file 3 ".\\Generated_Source\\PSoC4\\BLE_1_Stack.h"
 1188              		.file 4 ".\\Generated_Source\\PSoC4\\BLE_1_StackGap.h"
 1189              		.file 5 ".\\Generated_Source\\PSoC4\\BLE_1_StackGattDb.h"
 1190              		.file 6 ".\\Generated_Source\\PSoC4\\BLE_1.h"
 1191              		.file 7 ".\\Generated_Source\\PSoC4\\BLE_1_eventHandler.h"
 1192              		.file 8 ".\\Generated_Source\\PSoC4\\BLE_1_gatt.h"
 1193              		.section	.debug_info,"",%progbits
 1194              	.Ldebug_info0:
 1195 0000 AF090000 		.4byte	0x9af
 1196 0004 0400     		.2byte	0x4
 1197 0006 00000000 		.4byte	.Ldebug_abbrev0
 1198 000a 04       		.byte	0x4
 1199 000b 01       		.uleb128 0x1
 1200 000c D20A0000 		.4byte	.LASF187
 1201 0010 01       		.byte	0x1
 1202 0011 3A0D0000 		.4byte	.LASF188
ARM GAS  C:\Users\jsing\AppData\Local\Temp\ccadTqFE.s 			page 43


 1203 0015 12110000 		.4byte	.LASF189
 1204 0019 00000000 		.4byte	.Ldebug_ranges0+0
 1205 001d 00000000 		.4byte	0
 1206 0021 00000000 		.4byte	.Ldebug_line0
 1207 0025 02       		.uleb128 0x2
 1208 0026 01       		.byte	0x1
 1209 0027 06       		.byte	0x6
 1210 0028 6B030000 		.4byte	.LASF0
 1211 002c 02       		.uleb128 0x2
 1212 002d 01       		.byte	0x1
 1213 002e 08       		.byte	0x8
 1214 002f C80B0000 		.4byte	.LASF1
 1215 0033 02       		.uleb128 0x2
 1216 0034 02       		.byte	0x2
 1217 0035 05       		.byte	0x5
 1218 0036 000C0000 		.4byte	.LASF2
 1219 003a 02       		.uleb128 0x2
 1220 003b 02       		.byte	0x2
 1221 003c 07       		.byte	0x7
 1222 003d 7C0E0000 		.4byte	.LASF3
 1223 0041 02       		.uleb128 0x2
 1224 0042 04       		.byte	0x4
 1225 0043 05       		.byte	0x5
 1226 0044 E6010000 		.4byte	.LASF4
 1227 0048 02       		.uleb128 0x2
 1228 0049 04       		.byte	0x4
 1229 004a 07       		.byte	0x7
 1230 004b B3060000 		.4byte	.LASF5
 1231 004f 02       		.uleb128 0x2
 1232 0050 08       		.byte	0x8
 1233 0051 05       		.byte	0x5
 1234 0052 5D030000 		.4byte	.LASF6
 1235 0056 02       		.uleb128 0x2
 1236 0057 08       		.byte	0x8
 1237 0058 07       		.byte	0x7
 1238 0059 1F060000 		.4byte	.LASF7
 1239 005d 03       		.uleb128 0x3
 1240 005e 04       		.byte	0x4
 1241 005f 05       		.byte	0x5
 1242 0060 696E7400 		.ascii	"int\000"
 1243 0064 02       		.uleb128 0x2
 1244 0065 04       		.byte	0x4
 1245 0066 07       		.byte	0x7
 1246 0067 BA0D0000 		.4byte	.LASF8
 1247 006b 04       		.uleb128 0x4
 1248 006c F1040000 		.4byte	.LASF9
 1249 0070 02       		.byte	0x2
 1250 0071 A1       		.byte	0xa1
 1251 0072 2C000000 		.4byte	0x2c
 1252 0076 04       		.uleb128 0x4
 1253 0077 D60B0000 		.4byte	.LASF10
 1254 007b 02       		.byte	0x2
 1255 007c A2       		.byte	0xa2
 1256 007d 3A000000 		.4byte	0x3a
 1257 0081 04       		.uleb128 0x4
 1258 0082 79050000 		.4byte	.LASF11
 1259 0086 02       		.byte	0x2
ARM GAS  C:\Users\jsing\AppData\Local\Temp\ccadTqFE.s 			page 44


 1260 0087 A3       		.byte	0xa3
 1261 0088 48000000 		.4byte	0x48
 1262 008c 02       		.uleb128 0x2
 1263 008d 04       		.byte	0x4
 1264 008e 04       		.byte	0x4
 1265 008f CC0A0000 		.4byte	.LASF12
 1266 0093 02       		.uleb128 0x2
 1267 0094 08       		.byte	0x8
 1268 0095 04       		.byte	0x4
 1269 0096 29050000 		.4byte	.LASF13
 1270 009a 04       		.uleb128 0x4
 1271 009b EC0D0000 		.4byte	.LASF14
 1272 009f 02       		.byte	0x2
 1273 00a0 B2       		.byte	0xb2
 1274 00a1 A5000000 		.4byte	0xa5
 1275 00a5 02       		.uleb128 0x2
 1276 00a6 01       		.byte	0x1
 1277 00a7 08       		.byte	0x8
 1278 00a8 5B0D0000 		.4byte	.LASF15
 1279 00ac 05       		.uleb128 0x5
 1280 00ad 6B000000 		.4byte	0x6b
 1281 00b1 02       		.uleb128 0x2
 1282 00b2 04       		.byte	0x4
 1283 00b3 07       		.byte	0x7
 1284 00b4 87090000 		.4byte	.LASF16
 1285 00b8 06       		.uleb128 0x6
 1286 00b9 04       		.byte	0x4
 1287 00ba 07       		.uleb128 0x7
 1288 00bb 01       		.byte	0x1
 1289 00bc 03       		.byte	0x3
 1290 00bd 58       		.byte	0x58
 1291 00be 2A020000 		.4byte	0x22a
 1292 00c2 08       		.uleb128 0x8
 1293 00c3 8D070000 		.4byte	.LASF17
 1294 00c7 00       		.sleb128 0
 1295 00c8 08       		.uleb128 0x8
 1296 00c9 77030000 		.4byte	.LASF18
 1297 00cd 01       		.sleb128 1
 1298 00ce 08       		.uleb128 0x8
 1299 00cf D4010000 		.4byte	.LASF19
 1300 00d3 02       		.sleb128 2
 1301 00d4 08       		.uleb128 0x8
 1302 00d5 630E0000 		.4byte	.LASF20
 1303 00d9 03       		.sleb128 3
 1304 00da 08       		.uleb128 0x8
 1305 00db 67020000 		.4byte	.LASF21
 1306 00df 04       		.sleb128 4
 1307 00e0 08       		.uleb128 0x8
 1308 00e1 23000000 		.4byte	.LASF22
 1309 00e5 05       		.sleb128 5
 1310 00e6 08       		.uleb128 0x8
 1311 00e7 CF080000 		.4byte	.LASF23
 1312 00eb 20       		.sleb128 32
 1313 00ec 08       		.uleb128 0x8
 1314 00ed D4030000 		.4byte	.LASF24
 1315 00f1 21       		.sleb128 33
 1316 00f2 08       		.uleb128 0x8
ARM GAS  C:\Users\jsing\AppData\Local\Temp\ccadTqFE.s 			page 45


 1317 00f3 D0070000 		.4byte	.LASF25
 1318 00f7 22       		.sleb128 34
 1319 00f8 08       		.uleb128 0x8
 1320 00f9 6A080000 		.4byte	.LASF26
 1321 00fd 23       		.sleb128 35
 1322 00fe 08       		.uleb128 0x8
 1323 00ff E9090000 		.4byte	.LASF27
 1324 0103 24       		.sleb128 36
 1325 0104 08       		.uleb128 0x8
 1326 0105 B5090000 		.4byte	.LASF28
 1327 0109 25       		.sleb128 37
 1328 010a 08       		.uleb128 0x8
 1329 010b 90040000 		.4byte	.LASF29
 1330 010f 26       		.sleb128 38
 1331 0110 08       		.uleb128 0x8
 1332 0111 F4070000 		.4byte	.LASF30
 1333 0115 27       		.sleb128 39
 1334 0116 08       		.uleb128 0x8
 1335 0117 800D0000 		.4byte	.LASF31
 1336 011b 28       		.sleb128 40
 1337 011c 08       		.uleb128 0x8
 1338 011d 05030000 		.4byte	.LASF32
 1339 0121 29       		.sleb128 41
 1340 0122 08       		.uleb128 0x8
 1341 0123 C3000000 		.4byte	.LASF33
 1342 0127 2A       		.sleb128 42
 1343 0128 08       		.uleb128 0x8
 1344 0129 84020000 		.4byte	.LASF34
 1345 012d 2B       		.sleb128 43
 1346 012e 08       		.uleb128 0x8
 1347 012f 69100000 		.4byte	.LASF35
 1348 0133 2C       		.sleb128 44
 1349 0134 08       		.uleb128 0x8
 1350 0135 A8050000 		.4byte	.LASF36
 1351 0139 C000     		.sleb128 64
 1352 013b 08       		.uleb128 0x8
 1353 013c 90080000 		.4byte	.LASF37
 1354 0140 C100     		.sleb128 65
 1355 0142 08       		.uleb128 0x8
 1356 0143 5A060000 		.4byte	.LASF38
 1357 0147 C200     		.sleb128 66
 1358 0149 08       		.uleb128 0x8
 1359 014a D60E0000 		.4byte	.LASF39
 1360 014e C300     		.sleb128 67
 1361 0150 08       		.uleb128 0x8
 1362 0151 DF060000 		.4byte	.LASF40
 1363 0155 C400     		.sleb128 68
 1364 0157 08       		.uleb128 0x8
 1365 0158 A50A0000 		.4byte	.LASF41
 1366 015c C500     		.sleb128 69
 1367 015e 08       		.uleb128 0x8
 1368 015f 4E090000 		.4byte	.LASF42
 1369 0163 C600     		.sleb128 70
 1370 0165 08       		.uleb128 0x8
 1371 0166 A4070000 		.4byte	.LASF43
 1372 016a C700     		.sleb128 71
 1373 016c 08       		.uleb128 0x8
ARM GAS  C:\Users\jsing\AppData\Local\Temp\ccadTqFE.s 			page 46


 1374 016d 2D100000 		.4byte	.LASF44
 1375 0171 C800     		.sleb128 72
 1376 0173 08       		.uleb128 0x8
 1377 0174 F6030000 		.4byte	.LASF45
 1378 0178 C900     		.sleb128 73
 1379 017a 08       		.uleb128 0x8
 1380 017b 6E0F0000 		.4byte	.LASF46
 1381 017f CA00     		.sleb128 74
 1382 0181 08       		.uleb128 0x8
 1383 0182 47010000 		.4byte	.LASF47
 1384 0186 CB00     		.sleb128 75
 1385 0188 08       		.uleb128 0x8
 1386 0189 C5060000 		.4byte	.LASF48
 1387 018d CC00     		.sleb128 76
 1388 018f 08       		.uleb128 0x8
 1389 0190 CF090000 		.4byte	.LASF49
 1390 0194 CD00     		.sleb128 77
 1391 0196 08       		.uleb128 0x8
 1392 0197 39040000 		.4byte	.LASF50
 1393 019b CE00     		.sleb128 78
 1394 019d 08       		.uleb128 0x8
 1395 019e 660C0000 		.4byte	.LASF51
 1396 01a2 CF00     		.sleb128 79
 1397 01a4 08       		.uleb128 0x8
 1398 01a5 66010000 		.4byte	.LASF52
 1399 01a9 D000     		.sleb128 80
 1400 01ab 08       		.uleb128 0x8
 1401 01ac 0A050000 		.4byte	.LASF53
 1402 01b0 D100     		.sleb128 81
 1403 01b2 08       		.uleb128 0x8
 1404 01b3 2D0A0000 		.4byte	.LASF54
 1405 01b7 D200     		.sleb128 82
 1406 01b9 08       		.uleb128 0x8
 1407 01ba 0A0C0000 		.4byte	.LASF55
 1408 01be D300     		.sleb128 83
 1409 01c0 08       		.uleb128 0x8
 1410 01c1 EE0C0000 		.4byte	.LASF56
 1411 01c5 D400     		.sleb128 84
 1412 01c7 08       		.uleb128 0x8
 1413 01c8 FD060000 		.4byte	.LASF57
 1414 01cc D500     		.sleb128 85
 1415 01ce 08       		.uleb128 0x8
 1416 01cf C2050000 		.4byte	.LASF58
 1417 01d3 F000     		.sleb128 112
 1418 01d5 08       		.uleb128 0x8
 1419 01d6 EC100000 		.4byte	.LASF59
 1420 01da F100     		.sleb128 113
 1421 01dc 08       		.uleb128 0x8
 1422 01dd B3080000 		.4byte	.LASF60
 1423 01e1 F200     		.sleb128 114
 1424 01e3 08       		.uleb128 0x8
 1425 01e4 30090000 		.4byte	.LASF61
 1426 01e8 F300     		.sleb128 115
 1427 01ea 08       		.uleb128 0x8
 1428 01eb 870A0000 		.4byte	.LASF62
 1429 01ef F400     		.sleb128 116
 1430 01f1 08       		.uleb128 0x8
ARM GAS  C:\Users\jsing\AppData\Local\Temp\ccadTqFE.s 			page 47


 1431 01f2 8D100000 		.4byte	.LASF63
 1432 01f6 F500     		.sleb128 117
 1433 01f8 08       		.uleb128 0x8
 1434 01f9 FA000000 		.4byte	.LASF64
 1435 01fd F600     		.sleb128 118
 1436 01ff 08       		.uleb128 0x8
 1437 0200 53000000 		.4byte	.LASF65
 1438 0204 F700     		.sleb128 119
 1439 0206 08       		.uleb128 0x8
 1440 0207 00000000 		.4byte	.LASF66
 1441 020b F800     		.sleb128 120
 1442 020d 08       		.uleb128 0x8
 1443 020e 22030000 		.4byte	.LASF67
 1444 0212 F900     		.sleb128 121
 1445 0214 08       		.uleb128 0x8
 1446 0215 E8050000 		.4byte	.LASF68
 1447 0219 FA00     		.sleb128 122
 1448 021b 08       		.uleb128 0x8
 1449 021c C3100000 		.4byte	.LASF69
 1450 0220 FA01     		.sleb128 250
 1451 0222 08       		.uleb128 0x8
 1452 0223 8B050000 		.4byte	.LASF70
 1453 0227 FF01     		.sleb128 255
 1454 0229 00       		.byte	0
 1455 022a 09       		.uleb128 0x9
 1456 022b 02       		.byte	0x2
 1457 022c 03       		.byte	0x3
 1458 022d 9A01     		.2byte	0x19a
 1459 022f F6020000 		.4byte	0x2f6
 1460 0233 08       		.uleb128 0x8
 1461 0234 99050000 		.4byte	.LASF71
 1462 0238 00       		.sleb128 0
 1463 0239 08       		.uleb128 0x8
 1464 023a 39050000 		.4byte	.LASF72
 1465 023e 01       		.sleb128 1
 1466 023f 08       		.uleb128 0x8
 1467 0240 A70E0000 		.4byte	.LASF73
 1468 0244 02       		.sleb128 2
 1469 0245 08       		.uleb128 0x8
 1470 0246 87000000 		.4byte	.LASF74
 1471 024a 03       		.sleb128 3
 1472 024b 08       		.uleb128 0x8
 1473 024c 44020000 		.4byte	.LASF75
 1474 0250 04       		.sleb128 4
 1475 0251 08       		.uleb128 0x8
 1476 0252 3C060000 		.4byte	.LASF76
 1477 0256 05       		.sleb128 5
 1478 0257 08       		.uleb128 0x8
 1479 0258 4C0C0000 		.4byte	.LASF77
 1480 025c 06       		.sleb128 6
 1481 025d 08       		.uleb128 0x8
 1482 025e AC030000 		.4byte	.LASF78
 1483 0262 07       		.sleb128 7
 1484 0263 08       		.uleb128 0x8
 1485 0264 0F0D0000 		.4byte	.LASF79
 1486 0268 08       		.sleb128 8
 1487 0269 08       		.uleb128 0x8
ARM GAS  C:\Users\jsing\AppData\Local\Temp\ccadTqFE.s 			page 48


 1488 026a 54100000 		.4byte	.LASF80
 1489 026e 09       		.sleb128 9
 1490 026f 08       		.uleb128 0x8
 1491 0270 980B0000 		.4byte	.LASF81
 1492 0274 0A       		.sleb128 10
 1493 0275 08       		.uleb128 0x8
 1494 0276 600D0000 		.4byte	.LASF82
 1495 027a 0B       		.sleb128 11
 1496 027b 08       		.uleb128 0x8
 1497 027c EE020000 		.4byte	.LASF83
 1498 0280 0C       		.sleb128 12
 1499 0281 08       		.uleb128 0x8
 1500 0282 1F020000 		.4byte	.LASF84
 1501 0286 0D       		.sleb128 13
 1502 0287 08       		.uleb128 0x8
 1503 0288 8A060000 		.4byte	.LASF85
 1504 028c 0E       		.sleb128 14
 1505 028d 08       		.uleb128 0x8
 1506 028e D80F0000 		.4byte	.LASF86
 1507 0292 0F       		.sleb128 15
 1508 0293 08       		.uleb128 0x8
 1509 0294 350E0000 		.4byte	.LASF87
 1510 0298 10       		.sleb128 16
 1511 0299 08       		.uleb128 0x8
 1512 029a 50070000 		.4byte	.LASF88
 1513 029e 11       		.sleb128 17
 1514 029f 08       		.uleb128 0x8
 1515 02a0 B8040000 		.4byte	.LASF89
 1516 02a4 12       		.sleb128 18
 1517 02a5 08       		.uleb128 0x8
 1518 02a6 5C110000 		.4byte	.LASF90
 1519 02aa 13       		.sleb128 19
 1520 02ab 08       		.uleb128 0x8
 1521 02ac 8A030000 		.4byte	.LASF91
 1522 02b0 27       		.sleb128 39
 1523 02b1 08       		.uleb128 0x8
 1524 02b2 100E0000 		.4byte	.LASF92
 1525 02b6 28       		.sleb128 40
 1526 02b7 08       		.uleb128 0x8
 1527 02b8 BC0F0000 		.4byte	.LASF93
 1528 02bc 29       		.sleb128 41
 1529 02bd 08       		.uleb128 0x8
 1530 02be 20090000 		.4byte	.LASF94
 1531 02c2 FF01     		.sleb128 255
 1532 02c4 08       		.uleb128 0x8
 1533 02c5 57040000 		.4byte	.LASF95
 1534 02c9 8002     		.sleb128 256
 1535 02cb 08       		.uleb128 0x8
 1536 02cc AE100000 		.4byte	.LASF96
 1537 02d0 8102     		.sleb128 257
 1538 02d2 08       		.uleb128 0x8
 1539 02d3 0A090000 		.4byte	.LASF97
 1540 02d7 8202     		.sleb128 258
 1541 02d9 08       		.uleb128 0x8
 1542 02da 74070000 		.4byte	.LASF98
 1543 02de 8302     		.sleb128 259
 1544 02e0 08       		.uleb128 0x8
ARM GAS  C:\Users\jsing\AppData\Local\Temp\ccadTqFE.s 			page 49


 1545 02e1 4E0A0000 		.4byte	.LASF99
 1546 02e5 8402     		.sleb128 260
 1547 02e7 08       		.uleb128 0x8
 1548 02e8 DD0B0000 		.4byte	.LASF100
 1549 02ec 8502     		.sleb128 261
 1550 02ee 08       		.uleb128 0x8
 1551 02ef 0F040000 		.4byte	.LASF101
 1552 02f3 8602     		.sleb128 262
 1553 02f5 00       		.byte	0
 1554 02f6 0A       		.uleb128 0xa
 1555 02f7 0F0A0000 		.4byte	.LASF102
 1556 02fb 03       		.byte	0x3
 1557 02fc F401     		.2byte	0x1f4
 1558 02fe 2A020000 		.4byte	0x22a
 1559 0302 0B       		.uleb128 0xb
 1560 0303 07       		.byte	0x7
 1561 0304 03       		.byte	0x3
 1562 0305 7502     		.2byte	0x275
 1563 0307 26030000 		.4byte	0x326
 1564 030b 0C       		.uleb128 0xc
 1565 030c 03050000 		.4byte	.LASF103
 1566 0310 03       		.byte	0x3
 1567 0311 7702     		.2byte	0x277
 1568 0313 26030000 		.4byte	0x326
 1569 0317 00       		.byte	0
 1570 0318 0C       		.uleb128 0xc
 1571 0319 CF010000 		.4byte	.LASF104
 1572 031d 03       		.byte	0x3
 1573 031e 7802     		.2byte	0x278
 1574 0320 6B000000 		.4byte	0x6b
 1575 0324 06       		.byte	0x6
 1576 0325 00       		.byte	0
 1577 0326 0D       		.uleb128 0xd
 1578 0327 6B000000 		.4byte	0x6b
 1579 032b 36030000 		.4byte	0x336
 1580 032f 0E       		.uleb128 0xe
 1581 0330 B1000000 		.4byte	0xb1
 1582 0334 05       		.byte	0x5
 1583 0335 00       		.byte	0
 1584 0336 0A       		.uleb128 0xa
 1585 0337 DA020000 		.4byte	.LASF105
 1586 033b 03       		.byte	0x3
 1587 033c 7902     		.2byte	0x279
 1588 033e 02030000 		.4byte	0x302
 1589 0342 07       		.uleb128 0x7
 1590 0343 01       		.byte	0x1
 1591 0344 04       		.byte	0x4
 1592 0345 89       		.byte	0x89
 1593 0346 69030000 		.4byte	0x369
 1594 034a 08       		.uleb128 0x8
 1595 034b B4020000 		.4byte	.LASF106
 1596 034f 00       		.sleb128 0
 1597 0350 08       		.uleb128 0x8
 1598 0351 1B010000 		.4byte	.LASF107
 1599 0355 01       		.sleb128 1
 1600 0356 08       		.uleb128 0x8
 1601 0357 9A010000 		.4byte	.LASF108
ARM GAS  C:\Users\jsing\AppData\Local\Temp\ccadTqFE.s 			page 50


 1602 035b 02       		.sleb128 2
 1603 035c 08       		.uleb128 0x8
 1604 035d 440F0000 		.4byte	.LASF109
 1605 0361 03       		.sleb128 3
 1606 0362 08       		.uleb128 0x8
 1607 0363 900C0000 		.4byte	.LASF110
 1608 0367 04       		.sleb128 4
 1609 0368 00       		.byte	0
 1610 0369 04       		.uleb128 0x4
 1611 036a 250F0000 		.4byte	.LASF111
 1612 036e 04       		.byte	0x4
 1613 036f 99       		.byte	0x99
 1614 0370 42030000 		.4byte	0x342
 1615 0374 0B       		.uleb128 0xb
 1616 0375 10       		.byte	0x10
 1617 0376 04       		.byte	0x4
 1618 0377 6701     		.2byte	0x167
 1619 0379 E6030000 		.4byte	0x3e6
 1620 037d 0C       		.uleb128 0xc
 1621 037e 850C0000 		.4byte	.LASF112
 1622 0382 04       		.byte	0x4
 1623 0383 6D01     		.2byte	0x16d
 1624 0385 76000000 		.4byte	0x76
 1625 0389 00       		.byte	0
 1626 038a 0C       		.uleb128 0xc
 1627 038b 6C040000 		.4byte	.LASF113
 1628 038f 04       		.byte	0x4
 1629 0390 7301     		.2byte	0x173
 1630 0392 76000000 		.4byte	0x76
 1631 0396 02       		.byte	0x2
 1632 0397 0C       		.uleb128 0xc
 1633 0398 7C020000 		.4byte	.LASF114
 1634 039c 04       		.byte	0x4
 1635 039d 7C01     		.2byte	0x17c
 1636 039f 69030000 		.4byte	0x369
 1637 03a3 04       		.byte	0x4
 1638 03a4 0C       		.uleb128 0xc
 1639 03a5 A9090000 		.4byte	.LASF115
 1640 03a9 04       		.byte	0x4
 1641 03aa 8201     		.2byte	0x182
 1642 03ac 6B000000 		.4byte	0x6b
 1643 03b0 05       		.byte	0x5
 1644 03b1 0C       		.uleb128 0xc
 1645 03b2 890B0000 		.4byte	.LASF116
 1646 03b6 04       		.byte	0x4
 1647 03b7 8901     		.2byte	0x189
 1648 03b9 6B000000 		.4byte	0x6b
 1649 03bd 06       		.byte	0x6
 1650 03be 0C       		.uleb128 0xc
 1651 03bf C9030000 		.4byte	.LASF117
 1652 03c3 04       		.byte	0x4
 1653 03c4 8F01     		.2byte	0x18f
 1654 03c6 26030000 		.4byte	0x326
 1655 03ca 07       		.byte	0x7
 1656 03cb 0C       		.uleb128 0xc
 1657 03cc EC000000 		.4byte	.LASF118
 1658 03d0 04       		.byte	0x4
ARM GAS  C:\Users\jsing\AppData\Local\Temp\ccadTqFE.s 			page 51


 1659 03d1 9701     		.2byte	0x197
 1660 03d3 6B000000 		.4byte	0x6b
 1661 03d7 0D       		.byte	0xd
 1662 03d8 0C       		.uleb128 0xc
 1663 03d9 29040000 		.4byte	.LASF119
 1664 03dd 04       		.byte	0x4
 1665 03de A301     		.2byte	0x1a3
 1666 03e0 6B000000 		.4byte	0x6b
 1667 03e4 0E       		.byte	0xe
 1668 03e5 00       		.byte	0
 1669 03e6 0A       		.uleb128 0xa
 1670 03e7 D40D0000 		.4byte	.LASF120
 1671 03eb 04       		.byte	0x4
 1672 03ec A501     		.2byte	0x1a5
 1673 03ee 74030000 		.4byte	0x374
 1674 03f2 0B       		.uleb128 0xb
 1675 03f3 20       		.byte	0x20
 1676 03f4 04       		.byte	0x4
 1677 03f5 A801     		.2byte	0x1a8
 1678 03f7 16040000 		.4byte	0x416
 1679 03fb 0C       		.uleb128 0xc
 1680 03fc BB0C0000 		.4byte	.LASF121
 1681 0400 04       		.byte	0x4
 1682 0401 AB01     		.2byte	0x1ab
 1683 0403 16040000 		.4byte	0x416
 1684 0407 00       		.byte	0
 1685 0408 0C       		.uleb128 0xc
 1686 0409 14060000 		.4byte	.LASF122
 1687 040d 04       		.byte	0x4
 1688 040e AE01     		.2byte	0x1ae
 1689 0410 6B000000 		.4byte	0x6b
 1690 0414 1F       		.byte	0x1f
 1691 0415 00       		.byte	0
 1692 0416 0D       		.uleb128 0xd
 1693 0417 6B000000 		.4byte	0x6b
 1694 041b 26040000 		.4byte	0x426
 1695 041f 0E       		.uleb128 0xe
 1696 0420 B1000000 		.4byte	0xb1
 1697 0424 1E       		.byte	0x1e
 1698 0425 00       		.byte	0
 1699 0426 0A       		.uleb128 0xa
 1700 0427 AC000000 		.4byte	.LASF123
 1701 042b 04       		.byte	0x4
 1702 042c B001     		.2byte	0x1b0
 1703 042e F2030000 		.4byte	0x3f2
 1704 0432 0B       		.uleb128 0xb
 1705 0433 20       		.byte	0x20
 1706 0434 04       		.byte	0x4
 1707 0435 B301     		.2byte	0x1b3
 1708 0437 56040000 		.4byte	0x456
 1709 043b 0C       		.uleb128 0xc
 1710 043c F7040000 		.4byte	.LASF124
 1711 0440 04       		.byte	0x4
 1712 0441 B701     		.2byte	0x1b7
 1713 0443 16040000 		.4byte	0x416
 1714 0447 00       		.byte	0
 1715 0448 0C       		.uleb128 0xc
ARM GAS  C:\Users\jsing\AppData\Local\Temp\ccadTqFE.s 			page 52


 1716 0449 2D080000 		.4byte	.LASF125
 1717 044d 04       		.byte	0x4
 1718 044e BA01     		.2byte	0x1ba
 1719 0450 6B000000 		.4byte	0x6b
 1720 0454 1F       		.byte	0x1f
 1721 0455 00       		.byte	0
 1722 0456 0A       		.uleb128 0xa
 1723 0457 35070000 		.4byte	.LASF126
 1724 045b 04       		.byte	0x4
 1725 045c BC01     		.2byte	0x1bc
 1726 045e 32040000 		.4byte	0x432
 1727 0462 0B       		.uleb128 0xb
 1728 0463 14       		.byte	0x14
 1729 0464 04       		.byte	0x4
 1730 0465 BF01     		.2byte	0x1bf
 1731 0467 AD040000 		.4byte	0x4ad
 1732 046b 0C       		.uleb128 0xc
 1733 046c 30050000 		.4byte	.LASF127
 1734 0470 04       		.byte	0x4
 1735 0471 C701     		.2byte	0x1c7
 1736 0473 6B000000 		.4byte	0x6b
 1737 0477 00       		.byte	0
 1738 0478 0C       		.uleb128 0xc
 1739 0479 1C0F0000 		.4byte	.LASF128
 1740 047d 04       		.byte	0x4
 1741 047e CA01     		.2byte	0x1ca
 1742 0480 AD040000 		.4byte	0x4ad
 1743 0484 04       		.byte	0x4
 1744 0485 0C       		.uleb128 0xc
 1745 0486 BB0C0000 		.4byte	.LASF121
 1746 048a 04       		.byte	0x4
 1747 048b CC01     		.2byte	0x1cc
 1748 048d B3040000 		.4byte	0x4b3
 1749 0491 08       		.byte	0x8
 1750 0492 0C       		.uleb128 0xc
 1751 0493 F7040000 		.4byte	.LASF124
 1752 0497 04       		.byte	0x4
 1753 0498 CE01     		.2byte	0x1ce
 1754 049a B9040000 		.4byte	0x4b9
 1755 049e 0C       		.byte	0xc
 1756 049f 0C       		.uleb128 0xc
 1757 04a0 56110000 		.4byte	.LASF129
 1758 04a4 04       		.byte	0x4
 1759 04a5 D801     		.2byte	0x1d8
 1760 04a7 76000000 		.4byte	0x76
 1761 04ab 10       		.byte	0x10
 1762 04ac 00       		.byte	0
 1763 04ad 0F       		.uleb128 0xf
 1764 04ae 04       		.byte	0x4
 1765 04af E6030000 		.4byte	0x3e6
 1766 04b3 0F       		.uleb128 0xf
 1767 04b4 04       		.byte	0x4
 1768 04b5 26040000 		.4byte	0x426
 1769 04b9 0F       		.uleb128 0xf
 1770 04ba 04       		.byte	0x4
 1771 04bb 56040000 		.4byte	0x456
 1772 04bf 0A       		.uleb128 0xa
ARM GAS  C:\Users\jsing\AppData\Local\Temp\ccadTqFE.s 			page 53


 1773 04c0 000F0000 		.4byte	.LASF130
 1774 04c4 04       		.byte	0x4
 1775 04c5 DA01     		.2byte	0x1da
 1776 04c7 62040000 		.4byte	0x462
 1777 04cb 0F       		.uleb128 0xf
 1778 04cc 04       		.byte	0x4
 1779 04cd 6B000000 		.4byte	0x6b
 1780 04d1 10       		.uleb128 0x10
 1781 04d2 08       		.byte	0x8
 1782 04d3 05       		.byte	0x5
 1783 04d4 B8       		.byte	0xb8
 1784 04d5 F2040000 		.4byte	0x4f2
 1785 04d9 11       		.uleb128 0x11
 1786 04da A00E0000 		.4byte	.LASF131
 1787 04de 05       		.byte	0x5
 1788 04df BB       		.byte	0xbb
 1789 04e0 76000000 		.4byte	0x76
 1790 04e4 00       		.byte	0
 1791 04e5 11       		.uleb128 0x11
 1792 04e6 790A0000 		.4byte	.LASF132
 1793 04ea 05       		.byte	0x5
 1794 04eb C0       		.byte	0xc0
 1795 04ec B8000000 		.4byte	0xb8
 1796 04f0 04       		.byte	0x4
 1797 04f1 00       		.byte	0
 1798 04f2 04       		.uleb128 0x4
 1799 04f3 F20D0000 		.4byte	.LASF133
 1800 04f7 05       		.byte	0x5
 1801 04f8 C2       		.byte	0xc2
 1802 04f9 D1040000 		.4byte	0x4d1
 1803 04fd 12       		.uleb128 0x12
 1804 04fe 08       		.byte	0x8
 1805 04ff 05       		.byte	0x5
 1806 0500 C5       		.byte	0xc5
 1807 0501 1C050000 		.4byte	0x51c
 1808 0505 13       		.uleb128 0x13
 1809 0506 26070000 		.4byte	.LASF134
 1810 050a 05       		.byte	0x5
 1811 050b CC       		.byte	0xcc
 1812 050c F2040000 		.4byte	0x4f2
 1813 0510 13       		.uleb128 0x13
 1814 0511 6C0A0000 		.4byte	.LASF135
 1815 0515 05       		.byte	0x5
 1816 0516 CF       		.byte	0xcf
 1817 0517 76000000 		.4byte	0x76
 1818 051b 00       		.byte	0
 1819 051c 04       		.uleb128 0x4
 1820 051d 57050000 		.4byte	.LASF136
 1821 0521 05       		.byte	0x5
 1822 0522 D1       		.byte	0xd1
 1823 0523 FD040000 		.4byte	0x4fd
 1824 0527 10       		.uleb128 0x10
 1825 0528 14       		.byte	0x14
 1826 0529 05       		.byte	0x5
 1827 052a D4       		.byte	0xd4
 1828 052b 6C050000 		.4byte	0x56c
 1829 052f 11       		.uleb128 0x11
ARM GAS  C:\Users\jsing\AppData\Local\Temp\ccadTqFE.s 			page 54


 1830 0530 6F050000 		.4byte	.LASF137
 1831 0534 05       		.byte	0x5
 1832 0535 D7       		.byte	0xd7
 1833 0536 76000000 		.4byte	0x76
 1834 053a 00       		.byte	0
 1835 053b 11       		.uleb128 0x11
 1836 053c 0C060000 		.4byte	.LASF138
 1837 0540 05       		.byte	0x5
 1838 0541 DD       		.byte	0xdd
 1839 0542 76000000 		.4byte	0x76
 1840 0546 02       		.byte	0x2
 1841 0547 11       		.uleb128 0x11
 1842 0548 EB030000 		.4byte	.LASF139
 1843 054c 05       		.byte	0x5
 1844 054d E7       		.byte	0xe7
 1845 054e 81000000 		.4byte	0x81
 1846 0552 04       		.byte	0x4
 1847 0553 11       		.uleb128 0x11
 1848 0554 C70D0000 		.4byte	.LASF140
 1849 0558 05       		.byte	0x5
 1850 0559 EA       		.byte	0xea
 1851 055a 76000000 		.4byte	0x76
 1852 055e 08       		.byte	0x8
 1853 055f 11       		.uleb128 0x11
 1854 0560 BF0B0000 		.4byte	.LASF141
 1855 0564 05       		.byte	0x5
 1856 0565 F3       		.byte	0xf3
 1857 0566 1C050000 		.4byte	0x51c
 1858 056a 0C       		.byte	0xc
 1859 056b 00       		.byte	0
 1860 056c 04       		.uleb128 0x4
 1861 056d 8F0E0000 		.4byte	.LASF142
 1862 0571 05       		.byte	0x5
 1863 0572 F4       		.byte	0xf4
 1864 0573 27050000 		.4byte	0x527
 1865 0577 0A       		.uleb128 0xa
 1866 0578 C50E0000 		.4byte	.LASF143
 1867 057c 06       		.byte	0x6
 1868 057d 0001     		.2byte	0x100
 1869 057f 83050000 		.4byte	0x583
 1870 0583 0F       		.uleb128 0xf
 1871 0584 04       		.byte	0x4
 1872 0585 89050000 		.4byte	0x589
 1873 0589 14       		.uleb128 0x14
 1874 058a 99050000 		.4byte	0x599
 1875 058e 15       		.uleb128 0x15
 1876 058f 81000000 		.4byte	0x81
 1877 0593 15       		.uleb128 0x15
 1878 0594 B8000000 		.4byte	0xb8
 1879 0598 00       		.byte	0
 1880 0599 09       		.uleb128 0x9
 1881 059a 01       		.byte	0x1
 1882 059b 07       		.byte	0x7
 1883 059c 9505     		.2byte	0x595
 1884 059e C1050000 		.4byte	0x5c1
 1885 05a2 08       		.uleb128 0x8
 1886 05a3 3F000000 		.4byte	.LASF144
ARM GAS  C:\Users\jsing\AppData\Local\Temp\ccadTqFE.s 			page 55


 1887 05a7 00       		.sleb128 0
 1888 05a8 08       		.uleb128 0x8
 1889 05a9 90090000 		.4byte	.LASF145
 1890 05ad 01       		.sleb128 1
 1891 05ae 08       		.uleb128 0x8
 1892 05af 17100000 		.4byte	.LASF146
 1893 05b3 02       		.sleb128 2
 1894 05b4 08       		.uleb128 0x8
 1895 05b5 45030000 		.4byte	.LASF147
 1896 05b9 03       		.sleb128 3
 1897 05ba 08       		.uleb128 0x8
 1898 05bb 77040000 		.4byte	.LASF148
 1899 05bf 04       		.sleb128 4
 1900 05c0 00       		.byte	0
 1901 05c1 0A       		.uleb128 0xa
 1902 05c2 360F0000 		.4byte	.LASF149
 1903 05c6 07       		.byte	0x7
 1904 05c7 A305     		.2byte	0x5a3
 1905 05c9 99050000 		.4byte	0x599
 1906 05cd 16       		.uleb128 0x16
 1907 05ce E1100000 		.4byte	.LASF150
 1908 05d2 01       		.byte	0x1
 1909 05d3 87       		.byte	0x87
 1910 05d4 00000000 		.4byte	.LFB2
 1911 05d8 2C000000 		.4byte	.LFE2-.LFB2
 1912 05dc 01       		.uleb128 0x1
 1913 05dd 9C       		.byte	0x9c
 1914 05de 17       		.uleb128 0x17
 1915 05df 78060000 		.4byte	.LASF151
 1916 05e3 01       		.byte	0x1
 1917 05e4 BB       		.byte	0xbb
 1918 05e5 00000000 		.4byte	.LFB3
 1919 05e9 08000000 		.4byte	.LFE3-.LFB3
 1920 05ed 01       		.uleb128 0x1
 1921 05ee 9C       		.byte	0x9c
 1922 05ef 18       		.uleb128 0x18
 1923 05f0 3C080000 		.4byte	.LASF155
 1924 05f4 01       		.byte	0x1
 1925 05f5 4201     		.2byte	0x142
 1926 05f7 F6020000 		.4byte	0x2f6
 1927 05fb 00000000 		.4byte	.LFB4
 1928 05ff 90000000 		.4byte	.LFE4-.LFB4
 1929 0603 01       		.uleb128 0x1
 1930 0604 9C       		.byte	0x9c
 1931 0605 3A060000 		.4byte	0x63a
 1932 0609 19       		.uleb128 0x19
 1933 060a B20B0000 		.4byte	.LASF157
 1934 060e 01       		.byte	0x1
 1935 060f 4201     		.2byte	0x142
 1936 0611 77050000 		.4byte	0x577
 1937 0615 02       		.uleb128 0x2
 1938 0616 91       		.byte	0x91
 1939 0617 64       		.sleb128 -28
 1940 0618 1A       		.uleb128 0x1a
 1941 0619 050A0000 		.4byte	.LASF152
 1942 061d 01       		.byte	0x1
 1943 061e 4401     		.2byte	0x144
ARM GAS  C:\Users\jsing\AppData\Local\Temp\ccadTqFE.s 			page 56


 1944 0620 F6020000 		.4byte	0x2f6
 1945 0624 02       		.uleb128 0x2
 1946 0625 91       		.byte	0x91
 1947 0626 6E       		.sleb128 -18
 1948 0627 1A       		.uleb128 0x1a
 1949 0628 85010000 		.4byte	.LASF153
 1950 062c 01       		.byte	0x1
 1951 062d 4701     		.2byte	0x147
 1952 062f 3A060000 		.4byte	0x63a
 1953 0633 05       		.uleb128 0x5
 1954 0634 03       		.byte	0x3
 1955 0635 28000000 		.4byte	cyBle_stackMemoryRam.5994
 1956 0639 00       		.byte	0
 1957 063a 0D       		.uleb128 0xd
 1958 063b 6B000000 		.4byte	0x6b
 1959 063f 4B060000 		.4byte	0x64b
 1960 0643 1B       		.uleb128 0x1b
 1961 0644 B1000000 		.4byte	0xb1
 1962 0648 930C     		.2byte	0xc93
 1963 064a 00       		.byte	0
 1964 064b 1C       		.uleb128 0x1c
 1965 064c 220A0000 		.4byte	.LASF154
 1966 0650 01       		.byte	0x1
 1967 0651 7801     		.2byte	0x178
 1968 0653 00000000 		.4byte	.LFB5
 1969 0657 1C000000 		.4byte	.LFE5-.LFB5
 1970 065b 01       		.uleb128 0x1
 1971 065c 9C       		.byte	0x9c
 1972 065d 18       		.uleb128 0x18
 1973 065e 6C0B0000 		.4byte	.LASF156
 1974 0662 01       		.byte	0x1
 1975 0663 FA01     		.2byte	0x1fa
 1976 0665 F6020000 		.4byte	0x2f6
 1977 0669 00000000 		.4byte	.LFB6
 1978 066d C4000000 		.4byte	.LFE6-.LFB6
 1979 0671 01       		.uleb128 0x1
 1980 0672 9C       		.byte	0x9c
 1981 0673 96060000 		.4byte	0x696
 1982 0677 19       		.uleb128 0x19
 1983 0678 A20D0000 		.4byte	.LASF158
 1984 067c 01       		.byte	0x1
 1985 067d FA01     		.2byte	0x1fa
 1986 067f 6B000000 		.4byte	0x6b
 1987 0683 02       		.uleb128 0x2
 1988 0684 91       		.byte	0x91
 1989 0685 67       		.sleb128 -25
 1990 0686 1A       		.uleb128 0x1a
 1991 0687 050A0000 		.4byte	.LASF152
 1992 068b 01       		.byte	0x1
 1993 068c FC01     		.2byte	0x1fc
 1994 068e F6020000 		.4byte	0x2f6
 1995 0692 02       		.uleb128 0x2
 1996 0693 91       		.byte	0x91
 1997 0694 6E       		.sleb128 -18
 1998 0695 00       		.byte	0
 1999 0696 1C       		.uleb128 0x1c
 2000 0697 EF010000 		.4byte	.LASF159
ARM GAS  C:\Users\jsing\AppData\Local\Temp\ccadTqFE.s 			page 57


 2001 069b 01       		.byte	0x1
 2002 069c 3702     		.2byte	0x237
 2003 069e 00000000 		.4byte	.LFB7
 2004 06a2 20000000 		.4byte	.LFE7-.LFB7
 2005 06a6 01       		.uleb128 0x1
 2006 06a7 9C       		.byte	0x9c
 2007 06a8 1D       		.uleb128 0x1d
 2008 06a9 2B0C0000 		.4byte	.LASF171
 2009 06ad 01       		.byte	0x1
 2010 06ae 4F02     		.2byte	0x24f
 2011 06b0 00000000 		.4byte	.LFB8
 2012 06b4 60000000 		.4byte	.LFE8-.LFB8
 2013 06b8 01       		.uleb128 0x1
 2014 06b9 9C       		.byte	0x9c
 2015 06ba F9060000 		.4byte	0x6f9
 2016 06be 19       		.uleb128 0x19
 2017 06bf 03050000 		.4byte	.LASF103
 2018 06c3 01       		.byte	0x1
 2019 06c4 4F02     		.2byte	0x24f
 2020 06c6 F9060000 		.4byte	0x6f9
 2021 06ca 02       		.uleb128 0x2
 2022 06cb 91       		.byte	0x91
 2023 06cc 6C       		.sleb128 -20
 2024 06cd 19       		.uleb128 0x19
 2025 06ce 670A0000 		.4byte	.LASF160
 2026 06d2 01       		.byte	0x1
 2027 06d3 4F02     		.2byte	0x24f
 2028 06d5 6B000000 		.4byte	0x6b
 2029 06d9 02       		.uleb128 0x2
 2030 06da 91       		.byte	0x91
 2031 06db 6B       		.sleb128 -21
 2032 06dc 1E       		.uleb128 0x1e
 2033 06dd 6900     		.ascii	"i\000"
 2034 06df 01       		.byte	0x1
 2035 06e0 5102     		.2byte	0x251
 2036 06e2 6B000000 		.4byte	0x6b
 2037 06e6 02       		.uleb128 0x2
 2038 06e7 91       		.byte	0x91
 2039 06e8 77       		.sleb128 -9
 2040 06e9 1A       		.uleb128 0x1a
 2041 06ea 80050000 		.4byte	.LASF161
 2042 06ee 01       		.byte	0x1
 2043 06ef 5202     		.2byte	0x252
 2044 06f1 CB040000 		.4byte	0x4cb
 2045 06f5 02       		.uleb128 0x2
 2046 06f6 91       		.byte	0x91
 2047 06f7 70       		.sleb128 -16
 2048 06f8 00       		.byte	0
 2049 06f9 0F       		.uleb128 0xf
 2050 06fa 04       		.byte	0x4
 2051 06fb FF060000 		.4byte	0x6ff
 2052 06ff 1F       		.uleb128 0x1f
 2053 0700 36030000 		.4byte	0x336
 2054 0704 20       		.uleb128 0x20
 2055 0705 D60C0000 		.4byte	.LASF190
 2056 0709 01       		.byte	0x1
 2057 070a 9303     		.2byte	0x393
ARM GAS  C:\Users\jsing\AppData\Local\Temp\ccadTqFE.s 			page 58


 2058 070c 00000000 		.4byte	.LFB9
 2059 0710 A0010000 		.4byte	.LFE9-.LFB9
 2060 0714 01       		.uleb128 0x1
 2061 0715 9C       		.byte	0x9c
 2062 0716 91070000 		.4byte	0x791
 2063 071a 19       		.uleb128 0x19
 2064 071b 21070000 		.4byte	.LASF162
 2065 071f 01       		.byte	0x1
 2066 0720 9303     		.2byte	0x393
 2067 0722 91070000 		.4byte	0x791
 2068 0726 02       		.uleb128 0x2
 2069 0727 91       		.byte	0x91
 2070 0728 64       		.sleb128 -28
 2071 0729 19       		.uleb128 0x19
 2072 072a 670A0000 		.4byte	.LASF160
 2073 072e 01       		.byte	0x1
 2074 072f 9303     		.2byte	0x393
 2075 0731 6B000000 		.4byte	0x6b
 2076 0735 02       		.uleb128 0x2
 2077 0736 91       		.byte	0x91
 2078 0737 63       		.sleb128 -29
 2079 0738 1E       		.uleb128 0x1e
 2080 0739 6900     		.ascii	"i\000"
 2081 073b 01       		.byte	0x1
 2082 073c 9503     		.2byte	0x395
 2083 073e 6B000000 		.4byte	0x6b
 2084 0742 02       		.uleb128 0x2
 2085 0743 91       		.byte	0x91
 2086 0744 77       		.sleb128 -9
 2087 0745 1A       		.uleb128 0x1a
 2088 0746 470C0000 		.4byte	.LASF163
 2089 074a 01       		.byte	0x1
 2090 074b 9603     		.2byte	0x396
 2091 074d 6B000000 		.4byte	0x6b
 2092 0751 02       		.uleb128 0x2
 2093 0752 91       		.byte	0x91
 2094 0753 76       		.sleb128 -10
 2095 0754 1A       		.uleb128 0x1a
 2096 0755 13080000 		.4byte	.LASF164
 2097 0759 01       		.byte	0x1
 2098 075a 9703     		.2byte	0x397
 2099 075c 6B000000 		.4byte	0x6b
 2100 0760 02       		.uleb128 0x2
 2101 0761 91       		.byte	0x91
 2102 0762 75       		.sleb128 -11
 2103 0763 1A       		.uleb128 0x1a
 2104 0764 F40E0000 		.4byte	.LASF165
 2105 0768 01       		.byte	0x1
 2106 0769 9803     		.2byte	0x398
 2107 076b 6B000000 		.4byte	0x6b
 2108 076f 02       		.uleb128 0x2
 2109 0770 91       		.byte	0x91
 2110 0771 74       		.sleb128 -12
 2111 0772 1A       		.uleb128 0x1a
 2112 0773 80050000 		.4byte	.LASF161
 2113 0777 01       		.byte	0x1
 2114 0778 9903     		.2byte	0x399
ARM GAS  C:\Users\jsing\AppData\Local\Temp\ccadTqFE.s 			page 59


 2115 077a CB040000 		.4byte	0x4cb
 2116 077e 02       		.uleb128 0x2
 2117 077f 91       		.byte	0x91
 2118 0780 70       		.sleb128 -16
 2119 0781 1A       		.uleb128 0x1a
 2120 0782 8C0F0000 		.4byte	.LASF166
 2121 0786 01       		.byte	0x1
 2122 0787 9A03     		.2byte	0x39a
 2123 0789 6B000000 		.4byte	0x6b
 2124 078d 02       		.uleb128 0x2
 2125 078e 91       		.byte	0x91
 2126 078f 6F       		.sleb128 -17
 2127 0790 00       		.byte	0
 2128 0791 0F       		.uleb128 0xf
 2129 0792 04       		.byte	0x4
 2130 0793 97070000 		.4byte	0x797
 2131 0797 1F       		.uleb128 0x1f
 2132 0798 9A000000 		.4byte	0x9a
 2133 079c 18       		.uleb128 0x18
 2134 079d DB040000 		.4byte	.LASF167
 2135 07a1 01       		.byte	0x1
 2136 07a2 FC03     		.2byte	0x3fc
 2137 07a4 F6020000 		.4byte	0x2f6
 2138 07a8 00000000 		.4byte	.LFB10
 2139 07ac B8000000 		.4byte	.LFE10-.LFB10
 2140 07b0 01       		.uleb128 0x1
 2141 07b1 9C       		.byte	0x9c
 2142 07b2 00080000 		.4byte	0x800
 2143 07b6 19       		.uleb128 0x19
 2144 07b7 21070000 		.4byte	.LASF162
 2145 07bb 01       		.byte	0x1
 2146 07bc FC03     		.2byte	0x3fc
 2147 07be 91070000 		.4byte	0x791
 2148 07c2 02       		.uleb128 0x2
 2149 07c3 91       		.byte	0x91
 2150 07c4 64       		.sleb128 -28
 2151 07c5 1A       		.uleb128 0x1a
 2152 07c6 050A0000 		.4byte	.LASF152
 2153 07ca 01       		.byte	0x1
 2154 07cb FE03     		.2byte	0x3fe
 2155 07cd F6020000 		.4byte	0x2f6
 2156 07d1 02       		.uleb128 0x2
 2157 07d2 91       		.byte	0x91
 2158 07d3 76       		.sleb128 -10
 2159 07d4 1E       		.uleb128 0x1e
 2160 07d5 6900     		.ascii	"i\000"
 2161 07d7 01       		.byte	0x1
 2162 07d8 FF03     		.2byte	0x3ff
 2163 07da 6B000000 		.4byte	0x6b
 2164 07de 02       		.uleb128 0x2
 2165 07df 91       		.byte	0x91
 2166 07e0 75       		.sleb128 -11
 2167 07e1 1E       		.uleb128 0x1e
 2168 07e2 70747200 		.ascii	"ptr\000"
 2169 07e6 01       		.byte	0x1
 2170 07e7 0004     		.2byte	0x400
 2171 07e9 00080000 		.4byte	0x800
ARM GAS  C:\Users\jsing\AppData\Local\Temp\ccadTqFE.s 			page 60


 2172 07ed 02       		.uleb128 0x2
 2173 07ee 91       		.byte	0x91
 2174 07ef 70       		.sleb128 -16
 2175 07f0 1A       		.uleb128 0x1a
 2176 07f1 AB080000 		.4byte	.LASF168
 2177 07f5 01       		.byte	0x1
 2178 07f6 0104     		.2byte	0x401
 2179 07f8 6B000000 		.4byte	0x6b
 2180 07fc 02       		.uleb128 0x2
 2181 07fd 91       		.byte	0x91
 2182 07fe 6F       		.sleb128 -17
 2183 07ff 00       		.byte	0
 2184 0800 0F       		.uleb128 0xf
 2185 0801 04       		.byte	0x4
 2186 0802 9A000000 		.4byte	0x9a
 2187 0806 21       		.uleb128 0x21
 2188 0807 48080000 		.4byte	.LASF169
 2189 080b 01       		.byte	0x1
 2190 080c 4304     		.2byte	0x443
 2191 080e F6020000 		.4byte	0x2f6
 2192 0812 00000000 		.4byte	.LFB11
 2193 0816 A4000000 		.4byte	.LFE11-.LFB11
 2194 081a 01       		.uleb128 0x1
 2195 081b 9C       		.byte	0x9c
 2196 081c 6A080000 		.4byte	0x86a
 2197 0820 19       		.uleb128 0x19
 2198 0821 21070000 		.4byte	.LASF162
 2199 0825 01       		.byte	0x1
 2200 0826 4304     		.2byte	0x443
 2201 0828 00080000 		.4byte	0x800
 2202 082c 02       		.uleb128 0x2
 2203 082d 91       		.byte	0x91
 2204 082e 64       		.sleb128 -28
 2205 082f 1A       		.uleb128 0x1a
 2206 0830 050A0000 		.4byte	.LASF152
 2207 0834 01       		.byte	0x1
 2208 0835 4504     		.2byte	0x445
 2209 0837 F6020000 		.4byte	0x2f6
 2210 083b 02       		.uleb128 0x2
 2211 083c 91       		.byte	0x91
 2212 083d 76       		.sleb128 -10
 2213 083e 1A       		.uleb128 0x1a
 2214 083f AB080000 		.4byte	.LASF168
 2215 0843 01       		.byte	0x1
 2216 0844 4604     		.2byte	0x446
 2217 0846 6B000000 		.4byte	0x6b
 2218 084a 02       		.uleb128 0x2
 2219 084b 91       		.byte	0x91
 2220 084c 6F       		.sleb128 -17
 2221 084d 1E       		.uleb128 0x1e
 2222 084e 6900     		.ascii	"i\000"
 2223 0850 01       		.byte	0x1
 2224 0851 4704     		.2byte	0x447
 2225 0853 6B000000 		.4byte	0x6b
 2226 0857 02       		.uleb128 0x2
 2227 0858 91       		.byte	0x91
 2228 0859 75       		.sleb128 -11
ARM GAS  C:\Users\jsing\AppData\Local\Temp\ccadTqFE.s 			page 61


 2229 085a 1E       		.uleb128 0x1e
 2230 085b 70747200 		.ascii	"ptr\000"
 2231 085f 01       		.byte	0x1
 2232 0860 4804     		.2byte	0x448
 2233 0862 00080000 		.4byte	0x800
 2234 0866 02       		.uleb128 0x2
 2235 0867 91       		.byte	0x91
 2236 0868 70       		.sleb128 -16
 2237 0869 00       		.byte	0
 2238 086a 21       		.uleb128 0x21
 2239 086b BE010000 		.4byte	.LASF170
 2240 086f 01       		.byte	0x1
 2241 0870 7704     		.2byte	0x477
 2242 0872 76000000 		.4byte	0x76
 2243 0876 00000000 		.4byte	.LFB12
 2244 087a 24000000 		.4byte	.LFE12-.LFB12
 2245 087e 01       		.uleb128 0x1
 2246 087f 9C       		.byte	0x9c
 2247 0880 94080000 		.4byte	0x894
 2248 0884 22       		.uleb128 0x22
 2249 0885 70747200 		.ascii	"ptr\000"
 2250 0889 01       		.byte	0x1
 2251 088a 7704     		.2byte	0x477
 2252 088c 94080000 		.4byte	0x894
 2253 0890 02       		.uleb128 0x2
 2254 0891 91       		.byte	0x91
 2255 0892 74       		.sleb128 -12
 2256 0893 00       		.byte	0
 2257 0894 0F       		.uleb128 0xf
 2258 0895 04       		.byte	0x4
 2259 0896 9A080000 		.4byte	0x89a
 2260 089a 1F       		.uleb128 0x1f
 2261 089b 6B000000 		.4byte	0x6b
 2262 089f 1D       		.uleb128 0x1d
 2263 08a0 1C080000 		.4byte	.LASF172
 2264 08a4 01       		.byte	0x1
 2265 08a5 8C04     		.2byte	0x48c
 2266 08a7 00000000 		.4byte	.LFB13
 2267 08ab 2E000000 		.4byte	.LFE13-.LFB13
 2268 08af 01       		.uleb128 0x1
 2269 08b0 9C       		.byte	0x9c
 2270 08b1 D4080000 		.4byte	0x8d4
 2271 08b5 22       		.uleb128 0x22
 2272 08b6 70747200 		.ascii	"ptr\000"
 2273 08ba 01       		.byte	0x1
 2274 08bb 8C04     		.2byte	0x48c
 2275 08bd CB040000 		.4byte	0x4cb
 2276 08c1 02       		.uleb128 0x2
 2277 08c2 91       		.byte	0x91
 2278 08c3 74       		.sleb128 -12
 2279 08c4 19       		.uleb128 0x19
 2280 08c5 36060000 		.4byte	.LASF173
 2281 08c9 01       		.byte	0x1
 2282 08ca 8C04     		.2byte	0x48c
 2283 08cc 76000000 		.4byte	0x76
 2284 08d0 02       		.uleb128 0x2
 2285 08d1 91       		.byte	0x91
ARM GAS  C:\Users\jsing\AppData\Local\Temp\ccadTqFE.s 			page 62


 2286 08d2 72       		.sleb128 -14
 2287 08d3 00       		.byte	0
 2288 08d4 23       		.uleb128 0x23
 2289 08d5 C30C0000 		.4byte	.LASF174
 2290 08d9 01       		.byte	0x1
 2291 08da 75       		.byte	0x75
 2292 08db 77050000 		.4byte	0x577
 2293 08df 05       		.uleb128 0x5
 2294 08e0 03       		.byte	0x3
 2295 08e1 00000000 		.4byte	CyBle_ApplCallback
 2296 08e5 23       		.uleb128 0x23
 2297 08e6 C2070000 		.4byte	.LASF175
 2298 08ea 01       		.byte	0x1
 2299 08eb 29       		.byte	0x29
 2300 08ec 6B000000 		.4byte	0x6b
 2301 08f0 05       		.uleb128 0x5
 2302 08f1 03       		.byte	0x3
 2303 08f2 00000000 		.4byte	cyBle_initVar
 2304 08f6 24       		.uleb128 0x24
 2305 08f7 F3080000 		.4byte	.LASF176
 2306 08fb 06       		.byte	0x6
 2307 08fc 6E01     		.2byte	0x16e
 2308 08fe AC000000 		.4byte	0xac
 2309 0902 23       		.uleb128 0x23
 2310 0903 960F0000 		.4byte	.LASF177
 2311 0907 01       		.byte	0x1
 2312 0908 76       		.byte	0x76
 2313 0909 36030000 		.4byte	0x336
 2314 090d 05       		.uleb128 0x5
 2315 090e 03       		.byte	0x3
 2316 090f 00000000 		.4byte	cyBle_deviceAddress
 2317 0913 23       		.uleb128 0x23
 2318 0914 FD0F0000 		.4byte	.LASF178
 2319 0918 01       		.byte	0x1
 2320 0919 77       		.byte	0x77
 2321 091a 24090000 		.4byte	0x924
 2322 091e 05       		.uleb128 0x5
 2323 091f 03       		.byte	0x3
 2324 0920 00000000 		.4byte	cyBle_sflashDeviceAddress
 2325 0924 0F       		.uleb128 0xf
 2326 0925 04       		.byte	0x4
 2327 0926 36030000 		.4byte	0x336
 2328 092a 23       		.uleb128 0x23
 2329 092b 72000000 		.4byte	.LASF179
 2330 092f 01       		.byte	0x1
 2331 0930 2D       		.byte	0x2d
 2332 0931 E6030000 		.4byte	0x3e6
 2333 0935 05       		.uleb128 0x5
 2334 0936 03       		.byte	0x3
 2335 0937 00000000 		.4byte	cyBle_discoveryParam
 2336 093b 23       		.uleb128 0x23
 2337 093c 0B020000 		.4byte	.LASF180
 2338 0940 01       		.byte	0x1
 2339 0941 39       		.byte	0x39
 2340 0942 26040000 		.4byte	0x426
 2341 0946 05       		.uleb128 0x5
 2342 0947 03       		.byte	0x3
ARM GAS  C:\Users\jsing\AppData\Local\Temp\ccadTqFE.s 			page 63


 2343 0948 00000000 		.4byte	cyBle_discoveryData
 2344 094c 23       		.uleb128 0x23
 2345 094d AA0F0000 		.4byte	.LASF181
 2346 0951 01       		.byte	0x1
 2347 0952 42       		.byte	0x42
 2348 0953 56040000 		.4byte	0x456
 2349 0957 05       		.uleb128 0x5
 2350 0958 03       		.byte	0x3
 2351 0959 00000000 		.4byte	cyBle_scanRspData
 2352 095d 23       		.uleb128 0x23
 2353 095e 6F090000 		.4byte	.LASF182
 2354 0962 01       		.byte	0x1
 2355 0963 52       		.byte	0x52
 2356 0964 BF040000 		.4byte	0x4bf
 2357 0968 05       		.uleb128 0x5
 2358 0969 03       		.byte	0x3
 2359 096a 00000000 		.4byte	cyBle_discoveryModeInfo
 2360 096e 0D       		.uleb128 0xd
 2361 096f 6C050000 		.4byte	0x56c
 2362 0973 7E090000 		.4byte	0x97e
 2363 0977 0E       		.uleb128 0xe
 2364 0978 B1000000 		.4byte	0xb1
 2365 097c 13       		.byte	0x13
 2366 097d 00       		.byte	0
 2367 097e 25       		.uleb128 0x25
 2368 097f 2D0D0000 		.4byte	.LASF183
 2369 0983 08       		.byte	0x8
 2370 0984 B2       		.byte	0xb2
 2371 0985 89090000 		.4byte	0x989
 2372 0989 1F       		.uleb128 0x1f
 2373 098a 6E090000 		.4byte	0x96e
 2374 098e 24       		.uleb128 0x24
 2375 098f 5E080000 		.4byte	.LASF184
 2376 0993 07       		.byte	0x7
 2377 0994 2207     		.2byte	0x722
 2378 0996 C1050000 		.4byte	0x5c1
 2379 099a 24       		.uleb128 0x24
 2380 099b A3020000 		.4byte	.LASF185
 2381 099f 07       		.byte	0x7
 2382 09a0 2407     		.2byte	0x724
 2383 09a2 AC000000 		.4byte	0xac
 2384 09a6 24       		.uleb128 0x24
 2385 09a7 4E0B0000 		.4byte	.LASF186
 2386 09ab 07       		.byte	0x7
 2387 09ac 2707     		.2byte	0x727
 2388 09ae 6B000000 		.4byte	0x6b
 2389 09b2 00       		.byte	0
 2390              		.section	.debug_abbrev,"",%progbits
 2391              	.Ldebug_abbrev0:
 2392 0000 01       		.uleb128 0x1
 2393 0001 11       		.uleb128 0x11
 2394 0002 01       		.byte	0x1
 2395 0003 25       		.uleb128 0x25
 2396 0004 0E       		.uleb128 0xe
 2397 0005 13       		.uleb128 0x13
 2398 0006 0B       		.uleb128 0xb
 2399 0007 03       		.uleb128 0x3
ARM GAS  C:\Users\jsing\AppData\Local\Temp\ccadTqFE.s 			page 64


 2400 0008 0E       		.uleb128 0xe
 2401 0009 1B       		.uleb128 0x1b
 2402 000a 0E       		.uleb128 0xe
 2403 000b 55       		.uleb128 0x55
 2404 000c 17       		.uleb128 0x17
 2405 000d 11       		.uleb128 0x11
 2406 000e 01       		.uleb128 0x1
 2407 000f 10       		.uleb128 0x10
 2408 0010 17       		.uleb128 0x17
 2409 0011 00       		.byte	0
 2410 0012 00       		.byte	0
 2411 0013 02       		.uleb128 0x2
 2412 0014 24       		.uleb128 0x24
 2413 0015 00       		.byte	0
 2414 0016 0B       		.uleb128 0xb
 2415 0017 0B       		.uleb128 0xb
 2416 0018 3E       		.uleb128 0x3e
 2417 0019 0B       		.uleb128 0xb
 2418 001a 03       		.uleb128 0x3
 2419 001b 0E       		.uleb128 0xe
 2420 001c 00       		.byte	0
 2421 001d 00       		.byte	0
 2422 001e 03       		.uleb128 0x3
 2423 001f 24       		.uleb128 0x24
 2424 0020 00       		.byte	0
 2425 0021 0B       		.uleb128 0xb
 2426 0022 0B       		.uleb128 0xb
 2427 0023 3E       		.uleb128 0x3e
 2428 0024 0B       		.uleb128 0xb
 2429 0025 03       		.uleb128 0x3
 2430 0026 08       		.uleb128 0x8
 2431 0027 00       		.byte	0
 2432 0028 00       		.byte	0
 2433 0029 04       		.uleb128 0x4
 2434 002a 16       		.uleb128 0x16
 2435 002b 00       		.byte	0
 2436 002c 03       		.uleb128 0x3
 2437 002d 0E       		.uleb128 0xe
 2438 002e 3A       		.uleb128 0x3a
 2439 002f 0B       		.uleb128 0xb
 2440 0030 3B       		.uleb128 0x3b
 2441 0031 0B       		.uleb128 0xb
 2442 0032 49       		.uleb128 0x49
 2443 0033 13       		.uleb128 0x13
 2444 0034 00       		.byte	0
 2445 0035 00       		.byte	0
 2446 0036 05       		.uleb128 0x5
 2447 0037 35       		.uleb128 0x35
 2448 0038 00       		.byte	0
 2449 0039 49       		.uleb128 0x49
 2450 003a 13       		.uleb128 0x13
 2451 003b 00       		.byte	0
 2452 003c 00       		.byte	0
 2453 003d 06       		.uleb128 0x6
 2454 003e 0F       		.uleb128 0xf
 2455 003f 00       		.byte	0
 2456 0040 0B       		.uleb128 0xb
ARM GAS  C:\Users\jsing\AppData\Local\Temp\ccadTqFE.s 			page 65


 2457 0041 0B       		.uleb128 0xb
 2458 0042 00       		.byte	0
 2459 0043 00       		.byte	0
 2460 0044 07       		.uleb128 0x7
 2461 0045 04       		.uleb128 0x4
 2462 0046 01       		.byte	0x1
 2463 0047 0B       		.uleb128 0xb
 2464 0048 0B       		.uleb128 0xb
 2465 0049 3A       		.uleb128 0x3a
 2466 004a 0B       		.uleb128 0xb
 2467 004b 3B       		.uleb128 0x3b
 2468 004c 0B       		.uleb128 0xb
 2469 004d 01       		.uleb128 0x1
 2470 004e 13       		.uleb128 0x13
 2471 004f 00       		.byte	0
 2472 0050 00       		.byte	0
 2473 0051 08       		.uleb128 0x8
 2474 0052 28       		.uleb128 0x28
 2475 0053 00       		.byte	0
 2476 0054 03       		.uleb128 0x3
 2477 0055 0E       		.uleb128 0xe
 2478 0056 1C       		.uleb128 0x1c
 2479 0057 0D       		.uleb128 0xd
 2480 0058 00       		.byte	0
 2481 0059 00       		.byte	0
 2482 005a 09       		.uleb128 0x9
 2483 005b 04       		.uleb128 0x4
 2484 005c 01       		.byte	0x1
 2485 005d 0B       		.uleb128 0xb
 2486 005e 0B       		.uleb128 0xb
 2487 005f 3A       		.uleb128 0x3a
 2488 0060 0B       		.uleb128 0xb
 2489 0061 3B       		.uleb128 0x3b
 2490 0062 05       		.uleb128 0x5
 2491 0063 01       		.uleb128 0x1
 2492 0064 13       		.uleb128 0x13
 2493 0065 00       		.byte	0
 2494 0066 00       		.byte	0
 2495 0067 0A       		.uleb128 0xa
 2496 0068 16       		.uleb128 0x16
 2497 0069 00       		.byte	0
 2498 006a 03       		.uleb128 0x3
 2499 006b 0E       		.uleb128 0xe
 2500 006c 3A       		.uleb128 0x3a
 2501 006d 0B       		.uleb128 0xb
 2502 006e 3B       		.uleb128 0x3b
 2503 006f 05       		.uleb128 0x5
 2504 0070 49       		.uleb128 0x49
 2505 0071 13       		.uleb128 0x13
 2506 0072 00       		.byte	0
 2507 0073 00       		.byte	0
 2508 0074 0B       		.uleb128 0xb
 2509 0075 13       		.uleb128 0x13
 2510 0076 01       		.byte	0x1
 2511 0077 0B       		.uleb128 0xb
 2512 0078 0B       		.uleb128 0xb
 2513 0079 3A       		.uleb128 0x3a
ARM GAS  C:\Users\jsing\AppData\Local\Temp\ccadTqFE.s 			page 66


 2514 007a 0B       		.uleb128 0xb
 2515 007b 3B       		.uleb128 0x3b
 2516 007c 05       		.uleb128 0x5
 2517 007d 01       		.uleb128 0x1
 2518 007e 13       		.uleb128 0x13
 2519 007f 00       		.byte	0
 2520 0080 00       		.byte	0
 2521 0081 0C       		.uleb128 0xc
 2522 0082 0D       		.uleb128 0xd
 2523 0083 00       		.byte	0
 2524 0084 03       		.uleb128 0x3
 2525 0085 0E       		.uleb128 0xe
 2526 0086 3A       		.uleb128 0x3a
 2527 0087 0B       		.uleb128 0xb
 2528 0088 3B       		.uleb128 0x3b
 2529 0089 05       		.uleb128 0x5
 2530 008a 49       		.uleb128 0x49
 2531 008b 13       		.uleb128 0x13
 2532 008c 38       		.uleb128 0x38
 2533 008d 0B       		.uleb128 0xb
 2534 008e 00       		.byte	0
 2535 008f 00       		.byte	0
 2536 0090 0D       		.uleb128 0xd
 2537 0091 01       		.uleb128 0x1
 2538 0092 01       		.byte	0x1
 2539 0093 49       		.uleb128 0x49
 2540 0094 13       		.uleb128 0x13
 2541 0095 01       		.uleb128 0x1
 2542 0096 13       		.uleb128 0x13
 2543 0097 00       		.byte	0
 2544 0098 00       		.byte	0
 2545 0099 0E       		.uleb128 0xe
 2546 009a 21       		.uleb128 0x21
 2547 009b 00       		.byte	0
 2548 009c 49       		.uleb128 0x49
 2549 009d 13       		.uleb128 0x13
 2550 009e 2F       		.uleb128 0x2f
 2551 009f 0B       		.uleb128 0xb
 2552 00a0 00       		.byte	0
 2553 00a1 00       		.byte	0
 2554 00a2 0F       		.uleb128 0xf
 2555 00a3 0F       		.uleb128 0xf
 2556 00a4 00       		.byte	0
 2557 00a5 0B       		.uleb128 0xb
 2558 00a6 0B       		.uleb128 0xb
 2559 00a7 49       		.uleb128 0x49
 2560 00a8 13       		.uleb128 0x13
 2561 00a9 00       		.byte	0
 2562 00aa 00       		.byte	0
 2563 00ab 10       		.uleb128 0x10
 2564 00ac 13       		.uleb128 0x13
 2565 00ad 01       		.byte	0x1
 2566 00ae 0B       		.uleb128 0xb
 2567 00af 0B       		.uleb128 0xb
 2568 00b0 3A       		.uleb128 0x3a
 2569 00b1 0B       		.uleb128 0xb
 2570 00b2 3B       		.uleb128 0x3b
ARM GAS  C:\Users\jsing\AppData\Local\Temp\ccadTqFE.s 			page 67


 2571 00b3 0B       		.uleb128 0xb
 2572 00b4 01       		.uleb128 0x1
 2573 00b5 13       		.uleb128 0x13
 2574 00b6 00       		.byte	0
 2575 00b7 00       		.byte	0
 2576 00b8 11       		.uleb128 0x11
 2577 00b9 0D       		.uleb128 0xd
 2578 00ba 00       		.byte	0
 2579 00bb 03       		.uleb128 0x3
 2580 00bc 0E       		.uleb128 0xe
 2581 00bd 3A       		.uleb128 0x3a
 2582 00be 0B       		.uleb128 0xb
 2583 00bf 3B       		.uleb128 0x3b
 2584 00c0 0B       		.uleb128 0xb
 2585 00c1 49       		.uleb128 0x49
 2586 00c2 13       		.uleb128 0x13
 2587 00c3 38       		.uleb128 0x38
 2588 00c4 0B       		.uleb128 0xb
 2589 00c5 00       		.byte	0
 2590 00c6 00       		.byte	0
 2591 00c7 12       		.uleb128 0x12
 2592 00c8 17       		.uleb128 0x17
 2593 00c9 01       		.byte	0x1
 2594 00ca 0B       		.uleb128 0xb
 2595 00cb 0B       		.uleb128 0xb
 2596 00cc 3A       		.uleb128 0x3a
 2597 00cd 0B       		.uleb128 0xb
 2598 00ce 3B       		.uleb128 0x3b
 2599 00cf 0B       		.uleb128 0xb
 2600 00d0 01       		.uleb128 0x1
 2601 00d1 13       		.uleb128 0x13
 2602 00d2 00       		.byte	0
 2603 00d3 00       		.byte	0
 2604 00d4 13       		.uleb128 0x13
 2605 00d5 0D       		.uleb128 0xd
 2606 00d6 00       		.byte	0
 2607 00d7 03       		.uleb128 0x3
 2608 00d8 0E       		.uleb128 0xe
 2609 00d9 3A       		.uleb128 0x3a
 2610 00da 0B       		.uleb128 0xb
 2611 00db 3B       		.uleb128 0x3b
 2612 00dc 0B       		.uleb128 0xb
 2613 00dd 49       		.uleb128 0x49
 2614 00de 13       		.uleb128 0x13
 2615 00df 00       		.byte	0
 2616 00e0 00       		.byte	0
 2617 00e1 14       		.uleb128 0x14
 2618 00e2 15       		.uleb128 0x15
 2619 00e3 01       		.byte	0x1
 2620 00e4 27       		.uleb128 0x27
 2621 00e5 19       		.uleb128 0x19
 2622 00e6 01       		.uleb128 0x1
 2623 00e7 13       		.uleb128 0x13
 2624 00e8 00       		.byte	0
 2625 00e9 00       		.byte	0
 2626 00ea 15       		.uleb128 0x15
 2627 00eb 05       		.uleb128 0x5
ARM GAS  C:\Users\jsing\AppData\Local\Temp\ccadTqFE.s 			page 68


 2628 00ec 00       		.byte	0
 2629 00ed 49       		.uleb128 0x49
 2630 00ee 13       		.uleb128 0x13
 2631 00ef 00       		.byte	0
 2632 00f0 00       		.byte	0
 2633 00f1 16       		.uleb128 0x16
 2634 00f2 2E       		.uleb128 0x2e
 2635 00f3 00       		.byte	0
 2636 00f4 3F       		.uleb128 0x3f
 2637 00f5 19       		.uleb128 0x19
 2638 00f6 03       		.uleb128 0x3
 2639 00f7 0E       		.uleb128 0xe
 2640 00f8 3A       		.uleb128 0x3a
 2641 00f9 0B       		.uleb128 0xb
 2642 00fa 3B       		.uleb128 0x3b
 2643 00fb 0B       		.uleb128 0xb
 2644 00fc 27       		.uleb128 0x27
 2645 00fd 19       		.uleb128 0x19
 2646 00fe 11       		.uleb128 0x11
 2647 00ff 01       		.uleb128 0x1
 2648 0100 12       		.uleb128 0x12
 2649 0101 06       		.uleb128 0x6
 2650 0102 40       		.uleb128 0x40
 2651 0103 18       		.uleb128 0x18
 2652 0104 9642     		.uleb128 0x2116
 2653 0106 19       		.uleb128 0x19
 2654 0107 00       		.byte	0
 2655 0108 00       		.byte	0
 2656 0109 17       		.uleb128 0x17
 2657 010a 2E       		.uleb128 0x2e
 2658 010b 00       		.byte	0
 2659 010c 3F       		.uleb128 0x3f
 2660 010d 19       		.uleb128 0x19
 2661 010e 03       		.uleb128 0x3
 2662 010f 0E       		.uleb128 0xe
 2663 0110 3A       		.uleb128 0x3a
 2664 0111 0B       		.uleb128 0xb
 2665 0112 3B       		.uleb128 0x3b
 2666 0113 0B       		.uleb128 0xb
 2667 0114 27       		.uleb128 0x27
 2668 0115 19       		.uleb128 0x19
 2669 0116 11       		.uleb128 0x11
 2670 0117 01       		.uleb128 0x1
 2671 0118 12       		.uleb128 0x12
 2672 0119 06       		.uleb128 0x6
 2673 011a 40       		.uleb128 0x40
 2674 011b 18       		.uleb128 0x18
 2675 011c 9742     		.uleb128 0x2117
 2676 011e 19       		.uleb128 0x19
 2677 011f 00       		.byte	0
 2678 0120 00       		.byte	0
 2679 0121 18       		.uleb128 0x18
 2680 0122 2E       		.uleb128 0x2e
 2681 0123 01       		.byte	0x1
 2682 0124 3F       		.uleb128 0x3f
 2683 0125 19       		.uleb128 0x19
 2684 0126 03       		.uleb128 0x3
ARM GAS  C:\Users\jsing\AppData\Local\Temp\ccadTqFE.s 			page 69


 2685 0127 0E       		.uleb128 0xe
 2686 0128 3A       		.uleb128 0x3a
 2687 0129 0B       		.uleb128 0xb
 2688 012a 3B       		.uleb128 0x3b
 2689 012b 05       		.uleb128 0x5
 2690 012c 27       		.uleb128 0x27
 2691 012d 19       		.uleb128 0x19
 2692 012e 49       		.uleb128 0x49
 2693 012f 13       		.uleb128 0x13
 2694 0130 11       		.uleb128 0x11
 2695 0131 01       		.uleb128 0x1
 2696 0132 12       		.uleb128 0x12
 2697 0133 06       		.uleb128 0x6
 2698 0134 40       		.uleb128 0x40
 2699 0135 18       		.uleb128 0x18
 2700 0136 9642     		.uleb128 0x2116
 2701 0138 19       		.uleb128 0x19
 2702 0139 01       		.uleb128 0x1
 2703 013a 13       		.uleb128 0x13
 2704 013b 00       		.byte	0
 2705 013c 00       		.byte	0
 2706 013d 19       		.uleb128 0x19
 2707 013e 05       		.uleb128 0x5
 2708 013f 00       		.byte	0
 2709 0140 03       		.uleb128 0x3
 2710 0141 0E       		.uleb128 0xe
 2711 0142 3A       		.uleb128 0x3a
 2712 0143 0B       		.uleb128 0xb
 2713 0144 3B       		.uleb128 0x3b
 2714 0145 05       		.uleb128 0x5
 2715 0146 49       		.uleb128 0x49
 2716 0147 13       		.uleb128 0x13
 2717 0148 02       		.uleb128 0x2
 2718 0149 18       		.uleb128 0x18
 2719 014a 00       		.byte	0
 2720 014b 00       		.byte	0
 2721 014c 1A       		.uleb128 0x1a
 2722 014d 34       		.uleb128 0x34
 2723 014e 00       		.byte	0
 2724 014f 03       		.uleb128 0x3
 2725 0150 0E       		.uleb128 0xe
 2726 0151 3A       		.uleb128 0x3a
 2727 0152 0B       		.uleb128 0xb
 2728 0153 3B       		.uleb128 0x3b
 2729 0154 05       		.uleb128 0x5
 2730 0155 49       		.uleb128 0x49
 2731 0156 13       		.uleb128 0x13
 2732 0157 02       		.uleb128 0x2
 2733 0158 18       		.uleb128 0x18
 2734 0159 00       		.byte	0
 2735 015a 00       		.byte	0
 2736 015b 1B       		.uleb128 0x1b
 2737 015c 21       		.uleb128 0x21
 2738 015d 00       		.byte	0
 2739 015e 49       		.uleb128 0x49
 2740 015f 13       		.uleb128 0x13
 2741 0160 2F       		.uleb128 0x2f
ARM GAS  C:\Users\jsing\AppData\Local\Temp\ccadTqFE.s 			page 70


 2742 0161 05       		.uleb128 0x5
 2743 0162 00       		.byte	0
 2744 0163 00       		.byte	0
 2745 0164 1C       		.uleb128 0x1c
 2746 0165 2E       		.uleb128 0x2e
 2747 0166 00       		.byte	0
 2748 0167 3F       		.uleb128 0x3f
 2749 0168 19       		.uleb128 0x19
 2750 0169 03       		.uleb128 0x3
 2751 016a 0E       		.uleb128 0xe
 2752 016b 3A       		.uleb128 0x3a
 2753 016c 0B       		.uleb128 0xb
 2754 016d 3B       		.uleb128 0x3b
 2755 016e 05       		.uleb128 0x5
 2756 016f 27       		.uleb128 0x27
 2757 0170 19       		.uleb128 0x19
 2758 0171 11       		.uleb128 0x11
 2759 0172 01       		.uleb128 0x1
 2760 0173 12       		.uleb128 0x12
 2761 0174 06       		.uleb128 0x6
 2762 0175 40       		.uleb128 0x40
 2763 0176 18       		.uleb128 0x18
 2764 0177 9642     		.uleb128 0x2116
 2765 0179 19       		.uleb128 0x19
 2766 017a 00       		.byte	0
 2767 017b 00       		.byte	0
 2768 017c 1D       		.uleb128 0x1d
 2769 017d 2E       		.uleb128 0x2e
 2770 017e 01       		.byte	0x1
 2771 017f 3F       		.uleb128 0x3f
 2772 0180 19       		.uleb128 0x19
 2773 0181 03       		.uleb128 0x3
 2774 0182 0E       		.uleb128 0xe
 2775 0183 3A       		.uleb128 0x3a
 2776 0184 0B       		.uleb128 0xb
 2777 0185 3B       		.uleb128 0x3b
 2778 0186 05       		.uleb128 0x5
 2779 0187 27       		.uleb128 0x27
 2780 0188 19       		.uleb128 0x19
 2781 0189 11       		.uleb128 0x11
 2782 018a 01       		.uleb128 0x1
 2783 018b 12       		.uleb128 0x12
 2784 018c 06       		.uleb128 0x6
 2785 018d 40       		.uleb128 0x40
 2786 018e 18       		.uleb128 0x18
 2787 018f 9742     		.uleb128 0x2117
 2788 0191 19       		.uleb128 0x19
 2789 0192 01       		.uleb128 0x1
 2790 0193 13       		.uleb128 0x13
 2791 0194 00       		.byte	0
 2792 0195 00       		.byte	0
 2793 0196 1E       		.uleb128 0x1e
 2794 0197 34       		.uleb128 0x34
 2795 0198 00       		.byte	0
 2796 0199 03       		.uleb128 0x3
 2797 019a 08       		.uleb128 0x8
 2798 019b 3A       		.uleb128 0x3a
ARM GAS  C:\Users\jsing\AppData\Local\Temp\ccadTqFE.s 			page 71


 2799 019c 0B       		.uleb128 0xb
 2800 019d 3B       		.uleb128 0x3b
 2801 019e 05       		.uleb128 0x5
 2802 019f 49       		.uleb128 0x49
 2803 01a0 13       		.uleb128 0x13
 2804 01a1 02       		.uleb128 0x2
 2805 01a2 18       		.uleb128 0x18
 2806 01a3 00       		.byte	0
 2807 01a4 00       		.byte	0
 2808 01a5 1F       		.uleb128 0x1f
 2809 01a6 26       		.uleb128 0x26
 2810 01a7 00       		.byte	0
 2811 01a8 49       		.uleb128 0x49
 2812 01a9 13       		.uleb128 0x13
 2813 01aa 00       		.byte	0
 2814 01ab 00       		.byte	0
 2815 01ac 20       		.uleb128 0x20
 2816 01ad 2E       		.uleb128 0x2e
 2817 01ae 01       		.byte	0x1
 2818 01af 03       		.uleb128 0x3
 2819 01b0 0E       		.uleb128 0xe
 2820 01b1 3A       		.uleb128 0x3a
 2821 01b2 0B       		.uleb128 0xb
 2822 01b3 3B       		.uleb128 0x3b
 2823 01b4 05       		.uleb128 0x5
 2824 01b5 27       		.uleb128 0x27
 2825 01b6 19       		.uleb128 0x19
 2826 01b7 11       		.uleb128 0x11
 2827 01b8 01       		.uleb128 0x1
 2828 01b9 12       		.uleb128 0x12
 2829 01ba 06       		.uleb128 0x6
 2830 01bb 40       		.uleb128 0x40
 2831 01bc 18       		.uleb128 0x18
 2832 01bd 9742     		.uleb128 0x2117
 2833 01bf 19       		.uleb128 0x19
 2834 01c0 01       		.uleb128 0x1
 2835 01c1 13       		.uleb128 0x13
 2836 01c2 00       		.byte	0
 2837 01c3 00       		.byte	0
 2838 01c4 21       		.uleb128 0x21
 2839 01c5 2E       		.uleb128 0x2e
 2840 01c6 01       		.byte	0x1
 2841 01c7 3F       		.uleb128 0x3f
 2842 01c8 19       		.uleb128 0x19
 2843 01c9 03       		.uleb128 0x3
 2844 01ca 0E       		.uleb128 0xe
 2845 01cb 3A       		.uleb128 0x3a
 2846 01cc 0B       		.uleb128 0xb
 2847 01cd 3B       		.uleb128 0x3b
 2848 01ce 05       		.uleb128 0x5
 2849 01cf 27       		.uleb128 0x27
 2850 01d0 19       		.uleb128 0x19
 2851 01d1 49       		.uleb128 0x49
 2852 01d2 13       		.uleb128 0x13
 2853 01d3 11       		.uleb128 0x11
 2854 01d4 01       		.uleb128 0x1
 2855 01d5 12       		.uleb128 0x12
ARM GAS  C:\Users\jsing\AppData\Local\Temp\ccadTqFE.s 			page 72


 2856 01d6 06       		.uleb128 0x6
 2857 01d7 40       		.uleb128 0x40
 2858 01d8 18       		.uleb128 0x18
 2859 01d9 9742     		.uleb128 0x2117
 2860 01db 19       		.uleb128 0x19
 2861 01dc 01       		.uleb128 0x1
 2862 01dd 13       		.uleb128 0x13
 2863 01de 00       		.byte	0
 2864 01df 00       		.byte	0
 2865 01e0 22       		.uleb128 0x22
 2866 01e1 05       		.uleb128 0x5
 2867 01e2 00       		.byte	0
 2868 01e3 03       		.uleb128 0x3
 2869 01e4 08       		.uleb128 0x8
 2870 01e5 3A       		.uleb128 0x3a
 2871 01e6 0B       		.uleb128 0xb
 2872 01e7 3B       		.uleb128 0x3b
 2873 01e8 05       		.uleb128 0x5
 2874 01e9 49       		.uleb128 0x49
 2875 01ea 13       		.uleb128 0x13
 2876 01eb 02       		.uleb128 0x2
 2877 01ec 18       		.uleb128 0x18
 2878 01ed 00       		.byte	0
 2879 01ee 00       		.byte	0
 2880 01ef 23       		.uleb128 0x23
 2881 01f0 34       		.uleb128 0x34
 2882 01f1 00       		.byte	0
 2883 01f2 03       		.uleb128 0x3
 2884 01f3 0E       		.uleb128 0xe
 2885 01f4 3A       		.uleb128 0x3a
 2886 01f5 0B       		.uleb128 0xb
 2887 01f6 3B       		.uleb128 0x3b
 2888 01f7 0B       		.uleb128 0xb
 2889 01f8 49       		.uleb128 0x49
 2890 01f9 13       		.uleb128 0x13
 2891 01fa 3F       		.uleb128 0x3f
 2892 01fb 19       		.uleb128 0x19
 2893 01fc 02       		.uleb128 0x2
 2894 01fd 18       		.uleb128 0x18
 2895 01fe 00       		.byte	0
 2896 01ff 00       		.byte	0
 2897 0200 24       		.uleb128 0x24
 2898 0201 34       		.uleb128 0x34
 2899 0202 00       		.byte	0
 2900 0203 03       		.uleb128 0x3
 2901 0204 0E       		.uleb128 0xe
 2902 0205 3A       		.uleb128 0x3a
 2903 0206 0B       		.uleb128 0xb
 2904 0207 3B       		.uleb128 0x3b
 2905 0208 05       		.uleb128 0x5
 2906 0209 49       		.uleb128 0x49
 2907 020a 13       		.uleb128 0x13
 2908 020b 3F       		.uleb128 0x3f
 2909 020c 19       		.uleb128 0x19
 2910 020d 3C       		.uleb128 0x3c
 2911 020e 19       		.uleb128 0x19
 2912 020f 00       		.byte	0
ARM GAS  C:\Users\jsing\AppData\Local\Temp\ccadTqFE.s 			page 73


 2913 0210 00       		.byte	0
 2914 0211 25       		.uleb128 0x25
 2915 0212 34       		.uleb128 0x34
 2916 0213 00       		.byte	0
 2917 0214 03       		.uleb128 0x3
 2918 0215 0E       		.uleb128 0xe
 2919 0216 3A       		.uleb128 0x3a
 2920 0217 0B       		.uleb128 0xb
 2921 0218 3B       		.uleb128 0x3b
 2922 0219 0B       		.uleb128 0xb
 2923 021a 49       		.uleb128 0x49
 2924 021b 13       		.uleb128 0x13
 2925 021c 3F       		.uleb128 0x3f
 2926 021d 19       		.uleb128 0x19
 2927 021e 3C       		.uleb128 0x3c
 2928 021f 19       		.uleb128 0x19
 2929 0220 00       		.byte	0
 2930 0221 00       		.byte	0
 2931 0222 00       		.byte	0
 2932              		.section	.debug_aranges,"",%progbits
 2933 0000 74000000 		.4byte	0x74
 2934 0004 0200     		.2byte	0x2
 2935 0006 00000000 		.4byte	.Ldebug_info0
 2936 000a 04       		.byte	0x4
 2937 000b 00       		.byte	0
 2938 000c 0000     		.2byte	0
 2939 000e 0000     		.2byte	0
 2940 0010 00000000 		.4byte	.LFB2
 2941 0014 2C000000 		.4byte	.LFE2-.LFB2
 2942 0018 00000000 		.4byte	.LFB3
 2943 001c 08000000 		.4byte	.LFE3-.LFB3
 2944 0020 00000000 		.4byte	.LFB4
 2945 0024 90000000 		.4byte	.LFE4-.LFB4
 2946 0028 00000000 		.4byte	.LFB5
 2947 002c 1C000000 		.4byte	.LFE5-.LFB5
 2948 0030 00000000 		.4byte	.LFB6
 2949 0034 C4000000 		.4byte	.LFE6-.LFB6
 2950 0038 00000000 		.4byte	.LFB7
 2951 003c 20000000 		.4byte	.LFE7-.LFB7
 2952 0040 00000000 		.4byte	.LFB8
 2953 0044 60000000 		.4byte	.LFE8-.LFB8
 2954 0048 00000000 		.4byte	.LFB9
 2955 004c A0010000 		.4byte	.LFE9-.LFB9
 2956 0050 00000000 		.4byte	.LFB10
 2957 0054 B8000000 		.4byte	.LFE10-.LFB10
 2958 0058 00000000 		.4byte	.LFB11
 2959 005c A4000000 		.4byte	.LFE11-.LFB11
 2960 0060 00000000 		.4byte	.LFB12
 2961 0064 24000000 		.4byte	.LFE12-.LFB12
 2962 0068 00000000 		.4byte	.LFB13
 2963 006c 2E000000 		.4byte	.LFE13-.LFB13
 2964 0070 00000000 		.4byte	0
 2965 0074 00000000 		.4byte	0
 2966              		.section	.debug_ranges,"",%progbits
 2967              	.Ldebug_ranges0:
 2968 0000 00000000 		.4byte	.LFB2
 2969 0004 2C000000 		.4byte	.LFE2
ARM GAS  C:\Users\jsing\AppData\Local\Temp\ccadTqFE.s 			page 74


 2970 0008 00000000 		.4byte	.LFB3
 2971 000c 08000000 		.4byte	.LFE3
 2972 0010 00000000 		.4byte	.LFB4
 2973 0014 90000000 		.4byte	.LFE4
 2974 0018 00000000 		.4byte	.LFB5
 2975 001c 1C000000 		.4byte	.LFE5
 2976 0020 00000000 		.4byte	.LFB6
 2977 0024 C4000000 		.4byte	.LFE6
 2978 0028 00000000 		.4byte	.LFB7
 2979 002c 20000000 		.4byte	.LFE7
 2980 0030 00000000 		.4byte	.LFB8
 2981 0034 60000000 		.4byte	.LFE8
 2982 0038 00000000 		.4byte	.LFB9
 2983 003c A0010000 		.4byte	.LFE9
 2984 0040 00000000 		.4byte	.LFB10
 2985 0044 B8000000 		.4byte	.LFE10
 2986 0048 00000000 		.4byte	.LFB11
 2987 004c A4000000 		.4byte	.LFE11
 2988 0050 00000000 		.4byte	.LFB12
 2989 0054 24000000 		.4byte	.LFE12
 2990 0058 00000000 		.4byte	.LFB13
 2991 005c 2E000000 		.4byte	.LFE13
 2992 0060 00000000 		.4byte	0
 2993 0064 00000000 		.4byte	0
 2994              		.section	.debug_line,"",%progbits
 2995              	.Ldebug_line0:
 2996 0000 51020000 		.section	.debug_str,"MS",%progbits,1
 2996      0200B300 
 2996      00000201 
 2996      FB0E0D00 
 2996      01010101 
 2997              	.LASF66:
 2998 0000 4359424C 		.ascii	"CYBLE_EVT_L2CAP_CBFC_RX_CREDIT_IND\000"
 2998      455F4556 
 2998      545F4C32 
 2998      4341505F 
 2998      43424643 
 2999              	.LASF22:
 3000 0023 4359424C 		.ascii	"CYBLE_EVT_STACK_BUSY_STATUS\000"
 3000      455F4556 
 3000      545F5354 
 3000      41434B5F 
 3000      42555359 
 3001              	.LASF144:
 3002 003f 4359424C 		.ascii	"CYBLE_STATE_STOPPED\000"
 3002      455F5354 
 3002      4154455F 
 3002      53544F50 
 3002      50454400 
 3003              	.LASF65:
 3004 0053 4359424C 		.ascii	"CYBLE_EVT_L2CAP_CBFC_DATA_READ\000"
 3004      455F4556 
 3004      545F4C32 
 3004      4341505F 
 3004      43424643 
 3005              	.LASF179:
 3006 0072 6379426C 		.ascii	"cyBle_discoveryParam\000"
ARM GAS  C:\Users\jsing\AppData\Local\Temp\ccadTqFE.s 			page 75


 3006      655F6469 
 3006      73636F76 
 3006      65727950 
 3006      6172616D 
 3007              	.LASF74:
 3008 0087 4359424C 		.ascii	"CYBLE_ERROR_MEMORY_ALLOCATION_FAILED\000"
 3008      455F4552 
 3008      524F525F 
 3008      4D454D4F 
 3008      52595F41 
 3009              	.LASF123:
 3010 00ac 4359424C 		.ascii	"CYBLE_GAPP_DISC_DATA_T\000"
 3010      455F4741 
 3010      50505F44 
 3010      4953435F 
 3010      44415441 
 3011              	.LASF33:
 3012 00c3 4359424C 		.ascii	"CYBLE_EVT_GAP_CONNECTION_UPDATE_COMPLETE\000"
 3012      455F4556 
 3012      545F4741 
 3012      505F434F 
 3012      4E4E4543 
 3013              	.LASF118:
 3014 00ec 61647643 		.ascii	"advChannelMap\000"
 3014      68616E6E 
 3014      656C4D61 
 3014      7000
 3015              	.LASF64:
 3016 00fa 4359424C 		.ascii	"CYBLE_EVT_L2CAP_CBFC_DISCONN_CNF\000"
 3016      455F4556 
 3016      545F4C32 
 3016      4341505F 
 3016      43424643 
 3017              	.LASF107:
 3018 011b 4359424C 		.ascii	"CYBLE_GAPP_CONNECTABLE_HIGH_DC_DIRECTED_ADV\000"
 3018      455F4741 
 3018      50505F43 
 3018      4F4E4E45 
 3018      43544142 
 3019              	.LASF47:
 3020 0147 4359424C 		.ascii	"CYBLE_EVT_GATTC_READ_MULTI_RSP\000"
 3020      455F4556 
 3020      545F4741 
 3020      5454435F 
 3020      52454144 
 3021              	.LASF52:
 3022 0166 4359424C 		.ascii	"CYBLE_EVT_GATTS_EXEC_WRITE_REQ\000"
 3022      455F4556 
 3022      545F4741 
 3022      5454535F 
 3022      45584543 
 3023              	.LASF153:
 3024 0185 6379426C 		.ascii	"cyBle_stackMemoryRam\000"
 3024      655F7374 
 3024      61636B4D 
 3024      656D6F72 
 3024      7952616D 
ARM GAS  C:\Users\jsing\AppData\Local\Temp\ccadTqFE.s 			page 76


 3025              	.LASF108:
 3026 019a 4359424C 		.ascii	"CYBLE_GAPP_SCANNABLE_UNDIRECTED_ADV\000"
 3026      455F4741 
 3026      50505F53 
 3026      43414E4E 
 3026      41424C45 
 3027              	.LASF170:
 3028 01be 4379426C 		.ascii	"CyBle_Get16ByPtr\000"
 3028      655F4765 
 3028      74313642 
 3028      79507472 
 3028      00
 3029              	.LASF104:
 3030 01cf 74797065 		.ascii	"type\000"
 3030      00
 3031              	.LASF19:
 3032 01d4 4359424C 		.ascii	"CYBLE_EVT_TIMEOUT\000"
 3032      455F4556 
 3032      545F5449 
 3032      4D454F55 
 3032      5400
 3033              	.LASF4:
 3034 01e6 6C6F6E67 		.ascii	"long int\000"
 3034      20696E74 
 3034      00
 3035              	.LASF159:
 3036 01ef 4379426C 		.ascii	"CyBle_GappStopAdvertisement\000"
 3036      655F4761 
 3036      70705374 
 3036      6F704164 
 3036      76657274 
 3037              	.LASF180:
 3038 020b 6379426C 		.ascii	"cyBle_discoveryData\000"
 3038      655F6469 
 3038      73636F76 
 3038      65727944 
 3038      61746100 
 3039              	.LASF84:
 3040 021f 4359424C 		.ascii	"CYBLE_ERROR_L2CAP_PSM_WRONG_ENCODING\000"
 3040      455F4552 
 3040      524F525F 
 3040      4C324341 
 3040      505F5053 
 3041              	.LASF75:
 3042 0244 4359424C 		.ascii	"CYBLE_ERROR_INSUFFICIENT_RESOURCES\000"
 3042      455F4552 
 3042      524F525F 
 3042      494E5355 
 3042      46464943 
 3043              	.LASF21:
 3044 0267 4359424C 		.ascii	"CYBLE_EVT_HCI_STATUS\000"
 3044      455F4556 
 3044      545F4843 
 3044      495F5354 
 3044      41545553 
 3045              	.LASF114:
 3046 027c 61647654 		.ascii	"advType\000"
ARM GAS  C:\Users\jsing\AppData\Local\Temp\ccadTqFE.s 			page 77


 3046      79706500 
 3047              	.LASF34:
 3048 0284 4359424C 		.ascii	"CYBLE_EVT_GAPC_SCAN_START_STOP\000"
 3048      455F4556 
 3048      545F4741 
 3048      50435F53 
 3048      43414E5F 
 3049              	.LASF185:
 3050 02a3 6379426C 		.ascii	"cyBle_busyStatus\000"
 3050      655F6275 
 3050      73795374 
 3050      61747573 
 3050      00
 3051              	.LASF106:
 3052 02b4 4359424C 		.ascii	"CYBLE_GAPP_CONNECTABLE_UNDIRECTED_ADV\000"
 3052      455F4741 
 3052      50505F43 
 3052      4F4E4E45 
 3052      43544142 
 3053              	.LASF105:
 3054 02da 4359424C 		.ascii	"CYBLE_GAP_BD_ADDR_T\000"
 3054      455F4741 
 3054      505F4244 
 3054      5F414444 
 3054      525F5400 
 3055              	.LASF83:
 3056 02ee 4359424C 		.ascii	"CYBLE_ERROR_SEC_FAILED\000"
 3056      455F4552 
 3056      524F525F 
 3056      5345435F 
 3056      4641494C 
 3057              	.LASF32:
 3058 0305 4359424C 		.ascii	"CYBLE_EVT_GAP_ENCRYPT_CHANGE\000"
 3058      455F4556 
 3058      545F4741 
 3058      505F454E 
 3058      43525950 
 3059              	.LASF67:
 3060 0322 4359424C 		.ascii	"CYBLE_EVT_L2CAP_CBFC_TX_CREDIT_IND\000"
 3060      455F4556 
 3060      545F4C32 
 3060      4341505F 
 3060      43424643 
 3061              	.LASF147:
 3062 0345 4359424C 		.ascii	"CYBLE_STATE_ADVERTISING\000"
 3062      455F5354 
 3062      4154455F 
 3062      41445645 
 3062      52544953 
 3063              	.LASF6:
 3064 035d 6C6F6E67 		.ascii	"long long int\000"
 3064      206C6F6E 
 3064      6720696E 
 3064      7400
 3065              	.LASF0:
 3066 036b 7369676E 		.ascii	"signed char\000"
 3066      65642063 
ARM GAS  C:\Users\jsing\AppData\Local\Temp\ccadTqFE.s 			page 78


 3066      68617200 
 3067              	.LASF18:
 3068 0377 4359424C 		.ascii	"CYBLE_EVT_STACK_ON\000"
 3068      455F4556 
 3068      545F5354 
 3068      41434B5F 
 3068      4F4E00
 3069              	.LASF91:
 3070 038a 4359424C 		.ascii	"CYBLE_ERROR_DEVICE_ALREADY_EXISTS\000"
 3070      455F4552 
 3070      524F525F 
 3070      44455649 
 3070      43455F41 
 3071              	.LASF78:
 3072 03ac 4359424C 		.ascii	"CYBLE_ERROR_NO_DEVICE_ENTITY\000"
 3072      455F4552 
 3072      524F525F 
 3072      4E4F5F44 
 3072      45564943 
 3073              	.LASF117:
 3074 03c9 64697265 		.ascii	"directAddr\000"
 3074      63744164 
 3074      647200
 3075              	.LASF24:
 3076 03d4 4359424C 		.ascii	"CYBLE_EVT_GAP_AUTH_REQ\000"
 3076      455F4556 
 3076      545F4741 
 3076      505F4155 
 3076      54485F52 
 3077              	.LASF139:
 3078 03eb 7065726D 		.ascii	"permission\000"
 3078      69737369 
 3078      6F6E00
 3079              	.LASF45:
 3080 03f6 4359424C 		.ascii	"CYBLE_EVT_GATTC_READ_RSP\000"
 3080      455F4556 
 3080      545F4741 
 3080      5454435F 
 3080      52454144 
 3081              	.LASF101:
 3082 040f 4359424C 		.ascii	"CYBLE_ERROR_INVALID_STATE\000"
 3082      455F4552 
 3082      524F525F 
 3082      494E5641 
 3082      4C49445F 
 3083              	.LASF119:
 3084 0429 61647646 		.ascii	"advFilterPolicy\000"
 3084      696C7465 
 3084      72506F6C 
 3084      69637900 
 3085              	.LASF50:
 3086 0439 4359424C 		.ascii	"CYBLE_EVT_GATTS_WRITE_CMD_REQ\000"
 3086      455F4556 
 3086      545F4741 
 3086      5454535F 
 3086      57524954 
 3087              	.LASF95:
ARM GAS  C:\Users\jsing\AppData\Local\Temp\ccadTqFE.s 			page 79


 3088 0457 4359424C 		.ascii	"CYBLE_INCL_DISC_DONE\000"
 3088      455F494E 
 3088      434C5F44 
 3088      4953435F 
 3088      444F4E45 
 3089              	.LASF113:
 3090 046c 61647649 		.ascii	"advIntvMax\000"
 3090      6E74764D 
 3090      617800
 3091              	.LASF148:
 3092 0477 4359424C 		.ascii	"CYBLE_STATE_DISCONNECTED\000"
 3092      455F5354 
 3092      4154455F 
 3092      44495343 
 3092      4F4E4E45 
 3093              	.LASF29:
 3094 0490 4359424C 		.ascii	"CYBLE_EVT_GAPP_ADVERTISEMENT_START_STOP\000"
 3094      455F4556 
 3094      545F4741 
 3094      50505F41 
 3094      44564552 
 3095              	.LASF89:
 3096 04b8 4359424C 		.ascii	"CYBLE_ERROR_L2CAP_PSM_NOT_IN_RANGE\000"
 3096      455F4552 
 3096      524F525F 
 3096      4C324341 
 3096      505F5053 
 3097              	.LASF167:
 3098 04db 4379426C 		.ascii	"CyBle_GapSetLocalName\000"
 3098      655F4761 
 3098      70536574 
 3098      4C6F6361 
 3098      6C4E616D 
 3099              	.LASF9:
 3100 04f1 75696E74 		.ascii	"uint8\000"
 3100      3800
 3101              	.LASF124:
 3102 04f7 7363616E 		.ascii	"scanRspData\000"
 3102      52737044 
 3102      61746100 
 3103              	.LASF103:
 3104 0503 62644164 		.ascii	"bdAddr\000"
 3104      647200
 3105              	.LASF53:
 3106 050a 4359424C 		.ascii	"CYBLE_EVT_GATTC_EXEC_WRITE_RSP\000"
 3106      455F4556 
 3106      545F4741 
 3106      5454435F 
 3106      45584543 
 3107              	.LASF13:
 3108 0529 646F7562 		.ascii	"double\000"
 3108      6C6500
 3109              	.LASF127:
 3110 0530 64697363 		.ascii	"discMode\000"
 3110      4D6F6465 
 3110      00
 3111              	.LASF72:
ARM GAS  C:\Users\jsing\AppData\Local\Temp\ccadTqFE.s 			page 80


 3112 0539 4359424C 		.ascii	"CYBLE_ERROR_INVALID_PARAMETER\000"
 3112      455F4552 
 3112      524F525F 
 3112      494E5641 
 3112      4C49445F 
 3113              	.LASF136:
 3114 0557 4359424C 		.ascii	"CYBLE_GATTS_ATT_VALUE_T\000"
 3114      455F4741 
 3114      5454535F 
 3114      4154545F 
 3114      56414C55 
 3115              	.LASF137:
 3116 056f 61747448 		.ascii	"attHandle\000"
 3116      616E646C 
 3116      6500
 3117              	.LASF11:
 3118 0579 75696E74 		.ascii	"uint32\000"
 3118      333200
 3119              	.LASF161:
 3120 0580 64657374 		.ascii	"destBuffer\000"
 3120      42756666 
 3120      657200
 3121              	.LASF70:
 3122 058b 4359424C 		.ascii	"CYBLE_EVT_MAX\000"
 3122      455F4556 
 3122      545F4D41 
 3122      5800
 3123              	.LASF71:
 3124 0599 4359424C 		.ascii	"CYBLE_ERROR_OK\000"
 3124      455F4552 
 3124      524F525F 
 3124      4F4B00
 3125              	.LASF36:
 3126 05a8 4359424C 		.ascii	"CYBLE_EVT_GATTC_ERROR_RSP\000"
 3126      455F4556 
 3126      545F4741 
 3126      5454435F 
 3126      4552524F 
 3127              	.LASF58:
 3128 05c2 4359424C 		.ascii	"CYBLE_EVT_L2CAP_CONN_PARAM_UPDATE_REQ\000"
 3128      455F4556 
 3128      545F4C32 
 3128      4341505F 
 3128      434F4E4E 
 3129              	.LASF68:
 3130 05e8 4359424C 		.ascii	"CYBLE_EVT_L2CAP_CBFC_DATA_WRITE_IND\000"
 3130      455F4556 
 3130      545F4C32 
 3130      4341505F 
 3130      43424643 
 3131              	.LASF138:
 3132 060c 61747454 		.ascii	"attType\000"
 3132      79706500 
 3133              	.LASF122:
 3134 0614 61647644 		.ascii	"advDataLen\000"
 3134      6174614C 
 3134      656E00
ARM GAS  C:\Users\jsing\AppData\Local\Temp\ccadTqFE.s 			page 81


 3135              	.LASF7:
 3136 061f 6C6F6E67 		.ascii	"long long unsigned int\000"
 3136      206C6F6E 
 3136      6720756E 
 3136      7369676E 
 3136      65642069 
 3137              	.LASF173:
 3138 0636 76616C75 		.ascii	"value\000"
 3138      6500
 3139              	.LASF76:
 3140 063c 4359424C 		.ascii	"CYBLE_ERROR_OOB_NOT_AVAILABLE\000"
 3140      455F4552 
 3140      524F525F 
 3140      4F4F425F 
 3140      4E4F545F 
 3141              	.LASF38:
 3142 065a 4359424C 		.ascii	"CYBLE_EVT_GATT_DISCONNECT_IND\000"
 3142      455F4556 
 3142      545F4741 
 3142      54545F44 
 3142      4953434F 
 3143              	.LASF151:
 3144 0678 4379426C 		.ascii	"CyBle_ServiceInit\000"
 3144      655F5365 
 3144      72766963 
 3144      65496E69 
 3144      7400
 3145              	.LASF85:
 3146 068a 4359424C 		.ascii	"CYBLE_ERROR_L2CAP_PSM_ALREADY_REGISTERED\000"
 3146      455F4552 
 3146      524F525F 
 3146      4C324341 
 3146      505F5053 
 3147              	.LASF5:
 3148 06b3 6C6F6E67 		.ascii	"long unsigned int\000"
 3148      20756E73 
 3148      69676E65 
 3148      6420696E 
 3148      7400
 3149              	.LASF48:
 3150 06c5 4359424C 		.ascii	"CYBLE_EVT_GATTS_WRITE_REQ\000"
 3150      455F4556 
 3150      545F4741 
 3150      5454535F 
 3150      57524954 
 3151              	.LASF40:
 3152 06df 4359424C 		.ascii	"CYBLE_EVT_GATTC_XCHNG_MTU_RSP\000"
 3152      455F4556 
 3152      545F4741 
 3152      5454435F 
 3152      5843484E 
 3153              	.LASF57:
 3154 06fd 4359424C 		.ascii	"CYBLE_EVT_GATTS_DATA_SIGNED_CMD_REQ\000"
 3154      455F4556 
 3154      545F4741 
 3154      5454535F 
 3154      44415441 
ARM GAS  C:\Users\jsing\AppData\Local\Temp\ccadTqFE.s 			page 82


 3155              	.LASF162:
 3156 0721 6E616D65 		.ascii	"name\000"
 3156      00
 3157              	.LASF134:
 3158 0726 61747446 		.ascii	"attFormatValue\000"
 3158      6F726D61 
 3158      7456616C 
 3158      756500
 3159              	.LASF126:
 3160 0735 4359424C 		.ascii	"CYBLE_GAPP_SCAN_RSP_DATA_T\000"
 3160      455F4741 
 3160      50505F53 
 3160      43414E5F 
 3160      5253505F 
 3161              	.LASF88:
 3162 0750 4359424C 		.ascii	"CYBLE_ERROR_L2CAP_CHANNEL_NOT_FOUND\000"
 3162      455F4552 
 3162      524F525F 
 3162      4C324341 
 3162      505F4348 
 3163              	.LASF98:
 3164 0774 4359424C 		.ascii	"CYBLE_ERROR_NTF_DISABLED\000"
 3164      455F4552 
 3164      524F525F 
 3164      4E54465F 
 3164      44495341 
 3165              	.LASF17:
 3166 078d 4359424C 		.ascii	"CYBLE_EVT_HOST_INVALID\000"
 3166      455F4556 
 3166      545F484F 
 3166      53545F49 
 3166      4E56414C 
 3167              	.LASF43:
 3168 07a4 4359424C 		.ascii	"CYBLE_EVT_GATTC_FIND_INFO_RSP\000"
 3168      455F4556 
 3168      545F4741 
 3168      5454435F 
 3168      46494E44 
 3169              	.LASF175:
 3170 07c2 6379426C 		.ascii	"cyBle_initVar\000"
 3170      655F696E 
 3170      69745661 
 3170      7200
 3171              	.LASF25:
 3172 07d0 4359424C 		.ascii	"CYBLE_EVT_GAP_PASSKEY_ENTRY_REQUEST\000"
 3172      455F4556 
 3172      545F4741 
 3172      505F5041 
 3172      53534B45 
 3173              	.LASF30:
 3174 07f4 4359424C 		.ascii	"CYBLE_EVT_GAP_DEVICE_CONNECTED\000"
 3174      455F4556 
 3174      545F4741 
 3174      505F4445 
 3174      56494345 
 3175              	.LASF164:
 3176 0813 61644C65 		.ascii	"adLength\000"
ARM GAS  C:\Users\jsing\AppData\Local\Temp\ccadTqFE.s 			page 83


 3176      6E677468 
 3176      00
 3177              	.LASF172:
 3178 081c 4379426C 		.ascii	"CyBle_Set16ByPtr\000"
 3178      655F5365 
 3178      74313642 
 3178      79507472 
 3178      00
 3179              	.LASF125:
 3180 082d 7363616E 		.ascii	"scanRspDataLen\000"
 3180      52737044 
 3180      6174614C 
 3180      656E00
 3181              	.LASF155:
 3182 083c 4379426C 		.ascii	"CyBle_Start\000"
 3182      655F5374 
 3182      61727400 
 3183              	.LASF169:
 3184 0848 4379426C 		.ascii	"CyBle_GapGetLocalName\000"
 3184      655F4761 
 3184      70476574 
 3184      4C6F6361 
 3184      6C4E616D 
 3185              	.LASF184:
 3186 085e 6379426C 		.ascii	"cyBle_state\000"
 3186      655F7374 
 3186      61746500 
 3187              	.LASF26:
 3188 086a 4359424C 		.ascii	"CYBLE_EVT_GAP_PASSKEY_DISPLAY_REQUEST\000"
 3188      455F4556 
 3188      545F4741 
 3188      505F5041 
 3188      53534B45 
 3189              	.LASF37:
 3190 0890 4359424C 		.ascii	"CYBLE_EVT_GATT_CONNECT_IND\000"
 3190      455F4556 
 3190      545F4741 
 3190      54545F43 
 3190      4F4E4E45 
 3191              	.LASF168:
 3192 08ab 63686172 		.ascii	"charLen\000"
 3192      4C656E00 
 3193              	.LASF60:
 3194 08b3 4359424C 		.ascii	"CYBLE_EVT_L2CAP_COMMAND_REJ\000"
 3194      455F4556 
 3194      545F4C32 
 3194      4341505F 
 3194      434F4D4D 
 3195              	.LASF23:
 3196 08cf 4359424C 		.ascii	"CYBLE_EVT_GAPC_SCAN_PROGRESS_RESULT\000"
 3196      455F4556 
 3196      545F4741 
 3196      50435F53 
 3196      43414E5F 
 3197              	.LASF176:
 3198 08f3 6379426C 		.ascii	"cyBle_eventHandlerFlag\000"
 3198      655F6576 
ARM GAS  C:\Users\jsing\AppData\Local\Temp\ccadTqFE.s 			page 84


 3198      656E7448 
 3198      616E646C 
 3198      6572466C 
 3199              	.LASF97:
 3200 090a 4359424C 		.ascii	"CYBLE_DESCR_DISC_DONE\000"
 3200      455F4445 
 3200      5343525F 
 3200      44495343 
 3200      5F444F4E 
 3201              	.LASF94:
 3202 0920 4359424C 		.ascii	"CYBLE_ERROR_MAX\000"
 3202      455F4552 
 3202      524F525F 
 3202      4D415800 
 3203              	.LASF61:
 3204 0930 4359424C 		.ascii	"CYBLE_EVT_L2CAP_CBFC_CONN_IND\000"
 3204      455F4556 
 3204      545F4C32 
 3204      4341505F 
 3204      43424643 
 3205              	.LASF42:
 3206 094e 4359424C 		.ascii	"CYBLE_EVT_GATTC_READ_BY_TYPE_RSP\000"
 3206      455F4556 
 3206      545F4741 
 3206      5454435F 
 3206      52454144 
 3207              	.LASF182:
 3208 096f 6379426C 		.ascii	"cyBle_discoveryModeInfo\000"
 3208      655F6469 
 3208      73636F76 
 3208      6572794D 
 3208      6F646549 
 3209              	.LASF16:
 3210 0987 73697A65 		.ascii	"sizetype\000"
 3210      74797065 
 3210      00
 3211              	.LASF145:
 3212 0990 4359424C 		.ascii	"CYBLE_STATE_INITIALIZING\000"
 3212      455F5354 
 3212      4154455F 
 3212      494E4954 
 3212      49414C49 
 3213              	.LASF115:
 3214 09a9 6F776E41 		.ascii	"ownAddrType\000"
 3214      64647254 
 3214      79706500 
 3215              	.LASF28:
 3216 09b5 4359424C 		.ascii	"CYBLE_EVT_GAP_AUTH_FAILED\000"
 3216      455F4556 
 3216      545F4741 
 3216      505F4155 
 3216      54485F46 
 3217              	.LASF49:
 3218 09cf 4359424C 		.ascii	"CYBLE_EVT_GATTC_WRITE_RSP\000"
 3218      455F4556 
 3218      545F4741 
 3218      5454435F 
ARM GAS  C:\Users\jsing\AppData\Local\Temp\ccadTqFE.s 			page 85


 3218      57524954 
 3219              	.LASF27:
 3220 09e9 4359424C 		.ascii	"CYBLE_EVT_GAP_AUTH_COMPLETE\000"
 3220      455F4556 
 3220      545F4741 
 3220      505F4155 
 3220      54485F43 
 3221              	.LASF152:
 3222 0a05 61706952 		.ascii	"apiResult\000"
 3222      6573756C 
 3222      7400
 3223              	.LASF102:
 3224 0a0f 4359424C 		.ascii	"CYBLE_API_RESULT_T\000"
 3224      455F4150 
 3224      495F5245 
 3224      53554C54 
 3224      5F5400
 3225              	.LASF154:
 3226 0a22 4379426C 		.ascii	"CyBle_Stop\000"
 3226      655F5374 
 3226      6F7000
 3227              	.LASF54:
 3228 0a2d 4359424C 		.ascii	"CYBLE_EVT_GATTC_HANDLE_VALUE_NTF\000"
 3228      455F4556 
 3228      545F4741 
 3228      5454435F 
 3228      48414E44 
 3229              	.LASF99:
 3230 0a4e 4359424C 		.ascii	"CYBLE_ERROR_IND_DISABLED\000"
 3230      455F4552 
 3230      524F525F 
 3230      494E445F 
 3230      44495341 
 3231              	.LASF160:
 3232 0a67 64657374 		.ascii	"dest\000"
 3232      00
 3233              	.LASF135:
 3234 0a6c 61747456 		.ascii	"attValueUuid\000"
 3234      616C7565 
 3234      55756964 
 3234      00
 3235              	.LASF132:
 3236 0a79 61747447 		.ascii	"attGenericVal\000"
 3236      656E6572 
 3236      69635661 
 3236      6C00
 3237              	.LASF62:
 3238 0a87 4359424C 		.ascii	"CYBLE_EVT_L2CAP_CBFC_CONN_CNF\000"
 3238      455F4556 
 3238      545F4C32 
 3238      4341505F 
 3238      43424643 
 3239              	.LASF41:
 3240 0aa5 4359424C 		.ascii	"CYBLE_EVT_GATTC_READ_BY_GROUP_TYPE_RSP\000"
 3240      455F4556 
 3240      545F4741 
 3240      5454435F 
ARM GAS  C:\Users\jsing\AppData\Local\Temp\ccadTqFE.s 			page 86


 3240      52454144 
 3241              	.LASF12:
 3242 0acc 666C6F61 		.ascii	"float\000"
 3242      7400
 3243              	.LASF187:
 3244 0ad2 474E5520 		.ascii	"GNU C 4.8.4 20140526 (release) [ARM/embedded-4_8-br"
 3244      4320342E 
 3244      382E3420 
 3244      32303134 
 3244      30353236 
 3245 0b05 616E6368 		.ascii	"anch revision 211358] -mcpu=cortex-m0 -mthumb -g -O"
 3245      20726576 
 3245      6973696F 
 3245      6E203231 
 3245      31333538 
 3246 0b38 30202D66 		.ascii	"0 -ffunction-sections\000"
 3246      66756E63 
 3246      74696F6E 
 3246      2D736563 
 3246      74696F6E 
 3247              	.LASF186:
 3248 0b4e 6379426C 		.ascii	"cyBle_advertisingIntervalType\000"
 3248      655F6164 
 3248      76657274 
 3248      6973696E 
 3248      67496E74 
 3249              	.LASF156:
 3250 0b6c 4379426C 		.ascii	"CyBle_GappStartAdvertisement\000"
 3250      655F4761 
 3250      70705374 
 3250      61727441 
 3250      64766572 
 3251              	.LASF116:
 3252 0b89 64697265 		.ascii	"directAddrType\000"
 3252      63744164 
 3252      64725479 
 3252      706500
 3253              	.LASF81:
 3254 0b98 4359424C 		.ascii	"CYBLE_ERROR_TX_POWER_READ\000"
 3254      455F4552 
 3254      524F525F 
 3254      54585F50 
 3254      4F574552 
 3255              	.LASF157:
 3256 0bb2 63616C6C 		.ascii	"callbackFunc\000"
 3256      6261636B 
 3256      46756E63 
 3256      00
 3257              	.LASF141:
 3258 0bbf 61747456 		.ascii	"attValue\000"
 3258      616C7565 
 3258      00
 3259              	.LASF1:
 3260 0bc8 756E7369 		.ascii	"unsigned char\000"
 3260      676E6564 
 3260      20636861 
 3260      7200
ARM GAS  C:\Users\jsing\AppData\Local\Temp\ccadTqFE.s 			page 87


 3261              	.LASF10:
 3262 0bd6 75696E74 		.ascii	"uint16\000"
 3262      313600
 3263              	.LASF100:
 3264 0bdd 4359424C 		.ascii	"CYBLE_ERROR_CHAR_IS_NOT_DISCOVERED\000"
 3264      455F4552 
 3264      524F525F 
 3264      43484152 
 3264      5F49535F 
 3265              	.LASF2:
 3266 0c00 73686F72 		.ascii	"short int\000"
 3266      7420696E 
 3266      7400
 3267              	.LASF55:
 3268 0c0a 4359424C 		.ascii	"CYBLE_EVT_GATTC_HANDLE_VALUE_IND\000"
 3268      455F4556 
 3268      545F4741 
 3268      5454435F 
 3268      48414E44 
 3269              	.LASF171:
 3270 0c2b 4379426C 		.ascii	"CyBle_ChangeAdDeviceAddress\000"
 3270      655F4368 
 3270      616E6765 
 3270      41644465 
 3270      76696365 
 3271              	.LASF163:
 3272 0c47 666C6167 		.ascii	"flag\000"
 3272      00
 3273              	.LASF77:
 3274 0c4c 4359424C 		.ascii	"CYBLE_ERROR_NO_CONNECTION\000"
 3274      455F4552 
 3274      524F525F 
 3274      4E4F5F43 
 3274      4F4E4E45 
 3275              	.LASF51:
 3276 0c66 4359424C 		.ascii	"CYBLE_EVT_GATTS_PREP_WRITE_REQ\000"
 3276      455F4556 
 3276      545F4741 
 3276      5454535F 
 3276      50524550 
 3277              	.LASF112:
 3278 0c85 61647649 		.ascii	"advIntvMin\000"
 3278      6E74764D 
 3278      696E00
 3279              	.LASF110:
 3280 0c90 4359424C 		.ascii	"CYBLE_GAPP_CONNECTABLE_LOW_DC_DIRECTED_ADV\000"
 3280      455F4741 
 3280      50505F43 
 3280      4F4E4E45 
 3280      43544142 
 3281              	.LASF121:
 3282 0cbb 61647644 		.ascii	"advData\000"
 3282      61746100 
 3283              	.LASF174:
 3284 0cc3 4379426C 		.ascii	"CyBle_ApplCallback\000"
 3284      655F4170 
 3284      706C4361 
ARM GAS  C:\Users\jsing\AppData\Local\Temp\ccadTqFE.s 			page 88


 3284      6C6C6261 
 3284      636B00
 3285              	.LASF190:
 3286 0cd6 4379426C 		.ascii	"CyBle_ChangeAdLocalName\000"
 3286      655F4368 
 3286      616E6765 
 3286      41644C6F 
 3286      63616C4E 
 3287              	.LASF56:
 3288 0cee 4359424C 		.ascii	"CYBLE_EVT_GATTS_HANDLE_VALUE_CNF\000"
 3288      455F4556 
 3288      545F4741 
 3288      5454535F 
 3288      48414E44 
 3289              	.LASF79:
 3290 0d0f 4359424C 		.ascii	"CYBLE_ERROR_REPEATED_ATTEMPTS\000"
 3290      455F4552 
 3290      524F525F 
 3290      52455045 
 3290      41544544 
 3291              	.LASF183:
 3292 0d2d 6379426C 		.ascii	"cyBle_gattDB\000"
 3292      655F6761 
 3292      74744442 
 3292      00
 3293              	.LASF188:
 3294 0d3a 2E5C4765 		.ascii	".\\Generated_Source\\PSoC4\\BLE_1.c\000"
 3294      6E657261 
 3294      7465645F 
 3294      536F7572 
 3294      63655C50 
 3295              	.LASF15:
 3296 0d5b 63686172 		.ascii	"char\000"
 3296      00
 3297              	.LASF82:
 3298 0d60 4359424C 		.ascii	"CYBLE_ERROR_BT_ON_NOT_COMPLETED\000"
 3298      455F4552 
 3298      524F525F 
 3298      42545F4F 
 3298      4E5F4E4F 
 3299              	.LASF31:
 3300 0d80 4359424C 		.ascii	"CYBLE_EVT_GAP_DEVICE_DISCONNECTED\000"
 3300      455F4556 
 3300      545F4741 
 3300      505F4445 
 3300      56494345 
 3301              	.LASF158:
 3302 0da2 61647665 		.ascii	"advertisingIntervalType\000"
 3302      72746973 
 3302      696E6749 
 3302      6E746572 
 3302      76616C54 
 3303              	.LASF8:
 3304 0dba 756E7369 		.ascii	"unsigned int\000"
 3304      676E6564 
 3304      20696E74 
 3304      00
ARM GAS  C:\Users\jsing\AppData\Local\Temp\ccadTqFE.s 			page 89


 3305              	.LASF140:
 3306 0dc7 61747445 		.ascii	"attEndHandle\000"
 3306      6E644861 
 3306      6E646C65 
 3306      00
 3307              	.LASF120:
 3308 0dd4 4359424C 		.ascii	"CYBLE_GAPP_DISC_PARAM_T\000"
 3308      455F4741 
 3308      50505F44 
 3308      4953435F 
 3308      50415241 
 3309              	.LASF14:
 3310 0dec 63686172 		.ascii	"char8\000"
 3310      3800
 3311              	.LASF133:
 3312 0df2 4359424C 		.ascii	"CYBLE_GATTS_ATT_GENERIC_VAL_T\000"
 3312      455F4741 
 3312      5454535F 
 3312      4154545F 
 3312      47454E45 
 3313              	.LASF92:
 3314 0e10 4359424C 		.ascii	"CYBLE_ERROR_FLASH_WRITE_NOT_PERMITED\000"
 3314      455F4552 
 3314      524F525F 
 3314      464C4153 
 3314      485F5752 
 3315              	.LASF87:
 3316 0e35 4359424C 		.ascii	"CYBLE_ERROR_L2CAP_CONNECTION_ENTITY_NOT_FOUND\000"
 3316      455F4552 
 3316      524F525F 
 3316      4C324341 
 3316      505F434F 
 3317              	.LASF20:
 3318 0e63 4359424C 		.ascii	"CYBLE_EVT_HARDWARE_ERROR\000"
 3318      455F4556 
 3318      545F4841 
 3318      52445741 
 3318      52455F45 
 3319              	.LASF3:
 3320 0e7c 73686F72 		.ascii	"short unsigned int\000"
 3320      7420756E 
 3320      7369676E 
 3320      65642069 
 3320      6E7400
 3321              	.LASF142:
 3322 0e8f 4359424C 		.ascii	"CYBLE_GATTS_DB_T\000"
 3322      455F4741 
 3322      5454535F 
 3322      44425F54 
 3322      00
 3323              	.LASF131:
 3324 0ea0 6C656E67 		.ascii	"length\000"
 3324      746800
 3325              	.LASF73:
 3326 0ea7 4359424C 		.ascii	"CYBLE_ERROR_INVALID_OPERATION\000"
 3326      455F4552 
 3326      524F525F 
ARM GAS  C:\Users\jsing\AppData\Local\Temp\ccadTqFE.s 			page 90


 3326      494E5641 
 3326      4C49445F 
 3327              	.LASF143:
 3328 0ec5 4359424C 		.ascii	"CYBLE_CALLBACK_T\000"
 3328      455F4341 
 3328      4C4C4241 
 3328      434B5F54 
 3328      00
 3329              	.LASF39:
 3330 0ed6 4359424C 		.ascii	"CYBLE_EVT_GATTS_XCNHG_MTU_REQ\000"
 3330      455F4556 
 3330      545F4741 
 3330      5454535F 
 3330      58434E48 
 3331              	.LASF165:
 3332 0ef4 62797465 		.ascii	"byteCounter\000"
 3332      436F756E 
 3332      74657200 
 3333              	.LASF130:
 3334 0f00 4359424C 		.ascii	"CYBLE_GAPP_DISC_MODE_INFO_T\000"
 3334      455F4741 
 3334      50505F44 
 3334      4953435F 
 3334      4D4F4445 
 3335              	.LASF128:
 3336 0f1c 61647650 		.ascii	"advParam\000"
 3336      6172616D 
 3336      00
 3337              	.LASF111:
 3338 0f25 4359424C 		.ascii	"CYBLE_GAPP_ADV_T\000"
 3338      455F4741 
 3338      50505F41 
 3338      44565F54 
 3338      00
 3339              	.LASF149:
 3340 0f36 4359424C 		.ascii	"CYBLE_STATE_T\000"
 3340      455F5354 
 3340      4154455F 
 3340      5400
 3341              	.LASF109:
 3342 0f44 4359424C 		.ascii	"CYBLE_GAPP_NON_CONNECTABLE_UNDIRECTED_ADV\000"
 3342      455F4741 
 3342      50505F4E 
 3342      4F4E5F43 
 3342      4F4E4E45 
 3343              	.LASF46:
 3344 0f6e 4359424C 		.ascii	"CYBLE_EVT_GATTC_READ_BLOB_RSP\000"
 3344      455F4556 
 3344      545F4741 
 3344      5454435F 
 3344      52454144 
 3345              	.LASF166:
 3346 0f8c 6D61784C 		.ascii	"maxLength\000"
 3346      656E6774 
 3346      6800
 3347              	.LASF177:
 3348 0f96 6379426C 		.ascii	"cyBle_deviceAddress\000"
ARM GAS  C:\Users\jsing\AppData\Local\Temp\ccadTqFE.s 			page 91


 3348      655F6465 
 3348      76696365 
 3348      41646472 
 3348      65737300 
 3349              	.LASF181:
 3350 0faa 6379426C 		.ascii	"cyBle_scanRspData\000"
 3350      655F7363 
 3350      616E5273 
 3350      70446174 
 3350      6100
 3351              	.LASF93:
 3352 0fbc 4359424C 		.ascii	"CYBLE_ERROR_MIC_AUTH_FAILED\000"
 3352      455F4552 
 3352      524F525F 
 3352      4D49435F 
 3352      41555448 
 3353              	.LASF86:
 3354 0fd8 4359424C 		.ascii	"CYBLE_ERROR_L2CAP_PSM_NOT_REGISTERED\000"
 3354      455F4552 
 3354      524F525F 
 3354      4C324341 
 3354      505F5053 
 3355              	.LASF178:
 3356 0ffd 6379426C 		.ascii	"cyBle_sflashDeviceAddress\000"
 3356      655F7366 
 3356      6C617368 
 3356      44657669 
 3356      63654164 
 3357              	.LASF146:
 3358 1017 4359424C 		.ascii	"CYBLE_STATE_CONNECTED\000"
 3358      455F5354 
 3358      4154455F 
 3358      434F4E4E 
 3358      45435445 
 3359              	.LASF44:
 3360 102d 4359424C 		.ascii	"CYBLE_EVT_GATTC_FIND_BY_TYPE_VALUE_RSP\000"
 3360      455F4556 
 3360      545F4741 
 3360      5454435F 
 3360      46494E44 
 3361              	.LASF80:
 3362 1054 4359424C 		.ascii	"CYBLE_ERROR_GAP_ROLE\000"
 3362      455F4552 
 3362      524F525F 
 3362      4741505F 
 3362      524F4C45 
 3363              	.LASF35:
 3364 1069 4359424C 		.ascii	"CYBLE_EVT_GAP_KEYINFO_EXCHNGE_CMPLT\000"
 3364      455F4556 
 3364      545F4741 
 3364      505F4B45 
 3364      59494E46 
 3365              	.LASF63:
 3366 108d 4359424C 		.ascii	"CYBLE_EVT_L2CAP_CBFC_DISCONN_IND\000"
 3366      455F4556 
 3366      545F4C32 
 3366      4341505F 
ARM GAS  C:\Users\jsing\AppData\Local\Temp\ccadTqFE.s 			page 92


 3366      43424643 
 3367              	.LASF96:
 3368 10ae 4359424C 		.ascii	"CYBLE_CHAR_DISC_DONE\000"
 3368      455F4348 
 3368      41525F44 
 3368      4953435F 
 3368      444F4E45 
 3369              	.LASF69:
 3370 10c3 4359424C 		.ascii	"CYBLE_EVT_PENDING_FLASH_WRITE\000"
 3370      455F4556 
 3370      545F5045 
 3370      4E44494E 
 3370      475F464C 
 3371              	.LASF150:
 3372 10e1 4379426C 		.ascii	"CyBle_Init\000"
 3372      655F496E 
 3372      697400
 3373              	.LASF59:
 3374 10ec 4359424C 		.ascii	"CYBLE_EVT_L2CAP_CONN_PARAM_UPDATE_RSP\000"
 3374      455F4556 
 3374      545F4C32 
 3374      4341505F 
 3374      434F4E4E 
 3375              	.LASF189:
 3376 1112 443A5C55 		.ascii	"D:\\Users\\jsing\\Desktop\\BLE Lab 4\\Lab 4 Additio"
 3376      73657273 
 3376      5C6A7369 
 3376      6E675C44 
 3376      65736B74 
 3377 1140 6E616C20 		.ascii	"nal 1\\BLE Lab 4.cydsn\000"
 3377      315C424C 
 3377      45204C61 
 3377      6220342E 
 3377      63796473 
 3378              	.LASF129:
 3379 1156 61647654 		.ascii	"advTo\000"
 3379      6F00
 3380              	.LASF90:
 3381 115c 4359424C 		.ascii	"CYBLE_ERROR_GATT_DB_INVALID_ATTR_HANDLE\000"
 3381      455F4552 
 3381      524F525F 
 3381      47415454 
 3381      5F44425F 
 3382              		.ident	"GCC: (GNU Tools for ARM Embedded Processors) 4.8.4 20140526 (release) [ARM/embedded-4_8-br
