ARM GAS  C:\Users\jsing\AppData\Local\Temp\ccadTqFE.s 			page 1


   1              		.cpu cortex-m0
   2              		.fpu softvfp
   3              		.eabi_attribute 20, 1
   4              		.eabi_attribute 21, 1
   5              		.eabi_attribute 23, 3
   6              		.eabi_attribute 24, 1
   7              		.eabi_attribute 25, 1
   8              		.eabi_attribute 26, 1
   9              		.eabi_attribute 30, 6
  10              		.eabi_attribute 34, 0
  11              		.eabi_attribute 18, 4
  12              		.code	16
  13              		.file	"BLE_1.c"
  14              		.text
  15              	.Ltext0:
  16              		.cfi_sections	.debug_frame
  17              		.global	cyBle_initVar
  18              		.bss
  19              		.type	cyBle_initVar, %object
  20              		.size	cyBle_initVar, 1
  21              	cyBle_initVar:
  22 0000 00       		.space	1
  23              		.global	cyBle_discoveryParam
  24              		.data
  25              		.align	2
  26              		.type	cyBle_discoveryParam, %object
  27              		.size	cyBle_discoveryParam, 16
  28              	cyBle_discoveryParam:
  29 0000 2000     		.short	32
  30 0002 3000     		.short	48
  31 0004 00       		.byte	0
  32 0005 00       		.byte	0
  33 0006 00       		.byte	0
  34 0007 00       		.byte	0
  35 0008 00       		.byte	0
  36 0009 00       		.byte	0
  37 000a 50       		.byte	80
  38 000b A0       		.byte	-96
  39 000c 00       		.byte	0
  40 000d 07       		.byte	7
  41 000e 00       		.byte	0
  42 000f 00       		.space	1
  43              		.global	cyBle_discoveryData
  44              		.align	2
  45              		.type	cyBle_discoveryData, %object
  46              		.size	cyBle_discoveryData, 32
  47              	cyBle_discoveryData:
  48 0010 02       		.byte	2
  49 0011 01       		.byte	1
  50 0012 06       		.byte	6
  51 0013 0E       		.byte	14
  52 0014 09       		.byte	9
  53 0015 42       		.byte	66
  54 0016 4C       		.byte	76
  55 0017 45       		.byte	69
  56 0018 20       		.byte	32
  57 0019 4C       		.byte	76
ARM GAS  C:\Users\jsing\AppData\Local\Temp\ccadTqFE.s 			page 2


  58 001a 61       		.byte	97
  59 001b 62       		.byte	98
  60 001c 20       		.byte	32
  61 001d 34       		.byte	52
  62 001e 20       		.byte	32
  63 001f 4A       		.byte	74
  64 0020 61       		.byte	97
  65 0021 73       		.byte	115
  66 0022 05       		.byte	5
  67 0023 03       		.byte	3
  68 0024 B5       		.byte	-75
  69 0025 CA       		.byte	-54
  70 0026 BB       		.byte	-69
  71 0027 CB       		.byte	-53
  72 0028 00       		.byte	0
  73 0029 00       		.byte	0
  74 002a 00       		.byte	0
  75 002b 00       		.byte	0
  76 002c 00       		.byte	0
  77 002d 00       		.byte	0
  78 002e 00       		.byte	0
  79 002f 18       		.byte	24
  80              		.global	cyBle_scanRspData
  81              		.bss
  82 0001 000000   		.align	2
  83              		.type	cyBle_scanRspData, %object
  84              		.size	cyBle_scanRspData, 32
  85              	cyBle_scanRspData:
  86 0004 00000000 		.space	32
  86      00000000 
  86      00000000 
  86      00000000 
  86      00000000 
  87              		.global	cyBle_discoveryModeInfo
  88              		.data
  89              		.align	2
  90              		.type	cyBle_discoveryModeInfo, %object
  91              		.size	cyBle_discoveryModeInfo, 20
  92              	cyBle_discoveryModeInfo:
  93 0030 02       		.byte	2
  94 0031 000000   		.space	3
  95 0034 00000000 		.word	cyBle_discoveryParam
  96 0038 00000000 		.word	cyBle_discoveryData
  97 003c 00000000 		.word	cyBle_scanRspData
  98 0040 1E00     		.short	30
  99 0042 0000     		.space	2
 100              		.comm	CyBle_ApplCallback,4,4
 101              		.global	cyBle_deviceAddress
 102              		.align	2
 103              		.type	cyBle_deviceAddress, %object
 104              		.size	cyBle_deviceAddress, 7
 105              	cyBle_deviceAddress:
 106 0044 00       		.byte	0
 107 0045 00       		.byte	0
 108 0046 00       		.byte	0
 109 0047 50       		.byte	80
 110 0048 A0       		.byte	-96
ARM GAS  C:\Users\jsing\AppData\Local\Temp\ccadTqFE.s 			page 3


 111 0049 00       		.byte	0
 112 004a 00       		.byte	0
 113              		.global	cyBle_sflashDeviceAddress
 114 004b 00       		.align	2
 115              		.type	cyBle_sflashDeviceAddress, %object
 116              		.size	cyBle_sflashDeviceAddress, 4
 117              	cyBle_sflashDeviceAddress:
 118 004c 00F2FF0F 		.word	268431872
 119              		.section	.text.CyBle_Init,"ax",%progbits
 120              		.align	2
 121              		.global	CyBle_Init
 122              		.code	16
 123              		.thumb_func
 124              		.type	CyBle_Init, %function
 125              	CyBle_Init:
 126              	.LFB2:
 127              		.file 1 ".\\Generated_Source\\PSoC4\\BLE_1.c"
   1:.\Generated_Source\PSoC4/BLE_1.c **** /*******************************************************************************
   2:.\Generated_Source\PSoC4/BLE_1.c **** File Name: CYBLE.c
   3:.\Generated_Source\PSoC4/BLE_1.c **** Version 1.20
   4:.\Generated_Source\PSoC4/BLE_1.c **** 
   5:.\Generated_Source\PSoC4/BLE_1.c **** Description:
   6:.\Generated_Source\PSoC4/BLE_1.c ****  This file contains the source code for the Common APIs of the BLE Component.
   7:.\Generated_Source\PSoC4/BLE_1.c **** 
   8:.\Generated_Source\PSoC4/BLE_1.c **** ********************************************************************************
   9:.\Generated_Source\PSoC4/BLE_1.c **** Copyright 2014-2015, Cypress Semiconductor Corporation.  All rights reserved.
  10:.\Generated_Source\PSoC4/BLE_1.c **** You may use this file only in accordance with the license, terms, conditions,
  11:.\Generated_Source\PSoC4/BLE_1.c **** disclaimers, and limitations in the end user license agreement accompanying
  12:.\Generated_Source\PSoC4/BLE_1.c **** the software package with which this file was provided.
  13:.\Generated_Source\PSoC4/BLE_1.c **** *******************************************************************************/
  14:.\Generated_Source\PSoC4/BLE_1.c **** 
  15:.\Generated_Source\PSoC4/BLE_1.c **** #include "BLE_1_eventHandler.h"
  16:.\Generated_Source\PSoC4/BLE_1.c **** #include "BLE_1_HAL_PVT.h"
  17:.\Generated_Source\PSoC4/BLE_1.c **** 
  18:.\Generated_Source\PSoC4/BLE_1.c **** 
  19:.\Generated_Source\PSoC4/BLE_1.c **** /***************************************
  20:.\Generated_Source\PSoC4/BLE_1.c **** ##Function Prototypes
  21:.\Generated_Source\PSoC4/BLE_1.c **** ***************************************/
  22:.\Generated_Source\PSoC4/BLE_1.c **** 
  23:.\Generated_Source\PSoC4/BLE_1.c **** #if(CYBLE_GATT_ROLE_SERVER)
  24:.\Generated_Source\PSoC4/BLE_1.c ****     #if(CYBLE_GAP_ROLE_PERIPHERAL)
  25:.\Generated_Source\PSoC4/BLE_1.c ****         static void CyBle_ChangeAdLocalName(const char8 name[], uint8 dest);
  26:.\Generated_Source\PSoC4/BLE_1.c ****     #endif /* (CYBLE_GAP_ROLE_PERIPHERAL) */
  27:.\Generated_Source\PSoC4/BLE_1.c **** #endif /* (CYBLE_GATT_ROLE_SERVER) */
  28:.\Generated_Source\PSoC4/BLE_1.c ****     
  29:.\Generated_Source\PSoC4/BLE_1.c **** 
  30:.\Generated_Source\PSoC4/BLE_1.c **** /***************************************
  31:.\Generated_Source\PSoC4/BLE_1.c **** ##Global Variables
  32:.\Generated_Source\PSoC4/BLE_1.c **** ***************************************/
  33:.\Generated_Source\PSoC4/BLE_1.c **** 
  34:.\Generated_Source\PSoC4/BLE_1.c **** /* Indicates whether the BLE has been initialized. The variable is initialized to
  35:.\Generated_Source\PSoC4/BLE_1.c ****    0 and set to 1 the first time CyBle_Start() is called. This allows the component
  36:.\Generated_Source\PSoC4/BLE_1.c ****    to restart without reinitialization after the first call to the CyBle_Start() 
  37:.\Generated_Source\PSoC4/BLE_1.c ****    routine. If reinitialization of the component is required, the variable should 
  38:.\Generated_Source\PSoC4/BLE_1.c ****    be set to 0 before the CyBle_Start() routine is called. Alternatively, the BLE
  39:.\Generated_Source\PSoC4/BLE_1.c ****    can be reinitialized by calling the CyBle_Init() function.
  40:.\Generated_Source\PSoC4/BLE_1.c **** */
ARM GAS  C:\Users\jsing\AppData\Local\Temp\ccadTqFE.s 			page 4


  41:.\Generated_Source\PSoC4/BLE_1.c **** uint8  cyBle_initVar = 0u;
  42:.\Generated_Source\PSoC4/BLE_1.c **** 
  43:.\Generated_Source\PSoC4/BLE_1.c **** #if(CYBLE_GAP_ROLE_PERIPHERAL || CYBLE_GAP_ROLE_BROADCASTER)
  44:.\Generated_Source\PSoC4/BLE_1.c **** 
  45:.\Generated_Source\PSoC4/BLE_1.c **** CYBLE_GAPP_DISC_PARAM_T cyBle_discoveryParam =
  46:.\Generated_Source\PSoC4/BLE_1.c **** {
  47:.\Generated_Source\PSoC4/BLE_1.c ****     0x0020u,    /* uint16 advertising_interval_min */
  48:.\Generated_Source\PSoC4/BLE_1.c ****     0x0030u,    /* uint16 advertising_interval_max */
  49:.\Generated_Source\PSoC4/BLE_1.c ****     CYBLE_GAPP_CONNECTABLE_UNDIRECTED_ADV, /* uint8 advertising_type */
  50:.\Generated_Source\PSoC4/BLE_1.c ****     0x00u,      /* uint8 own_addr_type */
  51:.\Generated_Source\PSoC4/BLE_1.c ****     0x00u,      /* uint8 direct_addr_type */
  52:.\Generated_Source\PSoC4/BLE_1.c ****     {0x00u, 0x00u, 0x00u, 0x50u, 0xA0u, 0x00u}, /* uint8* direct_addr */
  53:.\Generated_Source\PSoC4/BLE_1.c ****     0x07u,      /* uint8 advertising_channel_map */
  54:.\Generated_Source\PSoC4/BLE_1.c ****     0x00u,      /* uint8 advertising_filter_policy */
  55:.\Generated_Source\PSoC4/BLE_1.c **** };
  56:.\Generated_Source\PSoC4/BLE_1.c **** 
  57:.\Generated_Source\PSoC4/BLE_1.c **** CYBLE_GAPP_DISC_DATA_T cyBle_discoveryData =
  58:.\Generated_Source\PSoC4/BLE_1.c **** {
  59:.\Generated_Source\PSoC4/BLE_1.c ****     { 0x02u, 0x01u, 0x06u, 0x0Eu, 0x09u, 0x42u, 0x4Cu,
  60:.\Generated_Source\PSoC4/BLE_1.c ****     0x45u, 0x20u, 0x4Cu, 0x61u, 0x62u, 0x20u, 0x34u, 0x20u,
  61:.\Generated_Source\PSoC4/BLE_1.c ****     0x4Au, 0x61u, 0x73u, 0x05u, 0x03u, 0xB5u, 0xCAu, 0xBBu,
  62:.\Generated_Source\PSoC4/BLE_1.c ****     0xCBu, 0x00u, 0x00u, 0x00u, 0x00u, 0x00u, 0x00u, 0x00u }, /* uint8 advertising_data[CYBLE_MAX_A
  63:.\Generated_Source\PSoC4/BLE_1.c ****     0x18u,      /* uint8 adv_data_length */
  64:.\Generated_Source\PSoC4/BLE_1.c **** };
  65:.\Generated_Source\PSoC4/BLE_1.c **** 
  66:.\Generated_Source\PSoC4/BLE_1.c **** CYBLE_GAPP_SCAN_RSP_DATA_T cyBle_scanRspData =
  67:.\Generated_Source\PSoC4/BLE_1.c **** {
  68:.\Generated_Source\PSoC4/BLE_1.c ****     { 0x00u, 0x00u, 0x00u, 0x00u, 0x00u, 0x00u, 0x00u,
  69:.\Generated_Source\PSoC4/BLE_1.c ****     0x00u, 0x00u, 0x00u, 0x00u, 0x00u, 0x00u, 0x00u, 0x00u,
  70:.\Generated_Source\PSoC4/BLE_1.c ****     0x00u, 0x00u, 0x00u, 0x00u, 0x00u, 0x00u, 0x00u, 0x00u,
  71:.\Generated_Source\PSoC4/BLE_1.c ****     0x00u, 0x00u, 0x00u, 0x00u, 0x00u, 0x00u, 0x00u, 0x00u }, /* uint8 scan_rsp_data[CYBLE_MAX_SCAN
  72:.\Generated_Source\PSoC4/BLE_1.c ****     0x00u,      /* uint8 scan_rsp_data_length */
  73:.\Generated_Source\PSoC4/BLE_1.c **** };
  74:.\Generated_Source\PSoC4/BLE_1.c **** 
  75:.\Generated_Source\PSoC4/BLE_1.c **** /* This variable of type CYBLE_GAPP_DISC_MODE_INFO_T is present only when 
  76:.\Generated_Source\PSoC4/BLE_1.c ****    the BLE component is configured for Peripheral GAP role or Central and 
  77:.\Generated_Source\PSoC4/BLE_1.c ****    Peripheral GAP role. It contains the Advertisement settings and also the 
  78:.\Generated_Source\PSoC4/BLE_1.c ****    Advertisement and Scan response data parameters entered in the customizer.
  79:.\Generated_Source\PSoC4/BLE_1.c ****    This variable can be used by advanced users to change Advertisement settings,
  80:.\Generated_Source\PSoC4/BLE_1.c ****    Advertisement or Scan response data in runtime. 
  81:.\Generated_Source\PSoC4/BLE_1.c **** */
  82:.\Generated_Source\PSoC4/BLE_1.c **** CYBLE_GAPP_DISC_MODE_INFO_T cyBle_discoveryModeInfo =
  83:.\Generated_Source\PSoC4/BLE_1.c **** {
  84:.\Generated_Source\PSoC4/BLE_1.c ****     0x02u,      /* uint8 discMode */
  85:.\Generated_Source\PSoC4/BLE_1.c ****     &cyBle_discoveryParam,
  86:.\Generated_Source\PSoC4/BLE_1.c ****     &cyBle_discoveryData,
  87:.\Generated_Source\PSoC4/BLE_1.c ****     &cyBle_scanRspData,
  88:.\Generated_Source\PSoC4/BLE_1.c ****     0x001Eu,    /* uint16 advTo */
  89:.\Generated_Source\PSoC4/BLE_1.c **** };
  90:.\Generated_Source\PSoC4/BLE_1.c **** 
  91:.\Generated_Source\PSoC4/BLE_1.c **** 
  92:.\Generated_Source\PSoC4/BLE_1.c **** #endif /* CYBLE_GAP_ROLE_PERIPHERAL || CYBLE_GAP_ROLE_BROADCASTER */
  93:.\Generated_Source\PSoC4/BLE_1.c **** 
  94:.\Generated_Source\PSoC4/BLE_1.c **** #if(CYBLE_GAP_ROLE_CENTRAL)
  95:.\Generated_Source\PSoC4/BLE_1.c ****     
  96:.\Generated_Source\PSoC4/BLE_1.c **** CYBLE_GAPC_CONN_PARAM_T cyBle_connectionParameters;
  97:.\Generated_Source\PSoC4/BLE_1.c **** 
ARM GAS  C:\Users\jsing\AppData\Local\Temp\ccadTqFE.s 			page 5


  98:.\Generated_Source\PSoC4/BLE_1.c **** /* Connecting timeout is set to 30 seconds in CyBle_Init function. 
  99:.\Generated_Source\PSoC4/BLE_1.c ****    Not zero value starts timer in CyBle_GapcConnectDevice API.
 100:.\Generated_Source\PSoC4/BLE_1.c **** */
 101:.\Generated_Source\PSoC4/BLE_1.c **** uint16 cyBle_connectingTimeout;
 102:.\Generated_Source\PSoC4/BLE_1.c ****     
 103:.\Generated_Source\PSoC4/BLE_1.c **** #endif /* CYBLE_GAP_ROLE_CENTRAL */
 104:.\Generated_Source\PSoC4/BLE_1.c **** 
 105:.\Generated_Source\PSoC4/BLE_1.c **** #if(CYBLE_GAP_ROLE_CENTRAL || CYBLE_GAP_ROLE_OBSERVER)
 106:.\Generated_Source\PSoC4/BLE_1.c ****     
 107:.\Generated_Source\PSoC4/BLE_1.c **** 
 108:.\Generated_Source\PSoC4/BLE_1.c ****     
 109:.\Generated_Source\PSoC4/BLE_1.c **** #endif /* CYBLE_GAP_ROLE_CENTRAL || CYBLE_GAP_ROLE_OBSERVER */
 110:.\Generated_Source\PSoC4/BLE_1.c **** 
 111:.\Generated_Source\PSoC4/BLE_1.c **** #if((CYBLE_GAP_ROLE_PERIPHERAL || CYBLE_GAP_ROLE_CENTRAL) && (CYBLE_BONDING_REQUIREMENT == CYBLE_BO
 112:.\Generated_Source\PSoC4/BLE_1.c **** 
 113:.\Generated_Source\PSoC4/BLE_1.c **** uint8 cyBle_pendingFlashWrite;
 114:.\Generated_Source\PSoC4/BLE_1.c ****     
 115:.\Generated_Source\PSoC4/BLE_1.c **** #endif  /* (CYBLE_BONDING_REQUIREMENT == CYBLE_BONDING_YES) */
 116:.\Generated_Source\PSoC4/BLE_1.c **** 
 117:.\Generated_Source\PSoC4/BLE_1.c **** CYBLE_CALLBACK_T CyBle_ApplCallback;
 118:.\Generated_Source\PSoC4/BLE_1.c **** CYBLE_GAP_BD_ADDR_T cyBle_deviceAddress = {{0x00u, 0x00u, 0x00u, 0x50u, 0xA0u, 0x00u}, 0x00u };
 119:.\Generated_Source\PSoC4/BLE_1.c **** CYBLE_GAP_BD_ADDR_T * cyBle_sflashDeviceAddress = CYBLE_SFLASH_DEVICE_ADDRESS_PTR;
 120:.\Generated_Source\PSoC4/BLE_1.c **** 
 121:.\Generated_Source\PSoC4/BLE_1.c **** 
 122:.\Generated_Source\PSoC4/BLE_1.c **** /******************************************************************************
 123:.\Generated_Source\PSoC4/BLE_1.c **** ##Function Name: CyBle_Init
 124:.\Generated_Source\PSoC4/BLE_1.c **** *******************************************************************************
 125:.\Generated_Source\PSoC4/BLE_1.c ****  Summary:
 126:.\Generated_Source\PSoC4/BLE_1.c ****   Initializes the component with the parameters set in the customizer.
 127:.\Generated_Source\PSoC4/BLE_1.c **** 
 128:.\Generated_Source\PSoC4/BLE_1.c ****  Parameters:
 129:.\Generated_Source\PSoC4/BLE_1.c ****   None
 130:.\Generated_Source\PSoC4/BLE_1.c **** 
 131:.\Generated_Source\PSoC4/BLE_1.c ****  Return:
 132:.\Generated_Source\PSoC4/BLE_1.c ****   None
 133:.\Generated_Source\PSoC4/BLE_1.c **** 
 134:.\Generated_Source\PSoC4/BLE_1.c **** ******************************************************************************/
 135:.\Generated_Source\PSoC4/BLE_1.c **** void CyBle_Init(void)
 136:.\Generated_Source\PSoC4/BLE_1.c **** {
 128              		.loc 1 136 0
 129              		.cfi_startproc
 130 0000 80B5     		push	{r7, lr}
 131              		.cfi_def_cfa_offset 8
 132              		.cfi_offset 7, -8
 133              		.cfi_offset 14, -4
 134 0002 00AF     		add	r7, sp, #0
 135              		.cfi_def_cfa_register 7
 137:.\Generated_Source\PSoC4/BLE_1.c ****     cyBle_eventHandlerFlag = 0u;
 136              		.loc 1 137 0
 137 0004 064B     		ldr	r3, .L2
 138 0006 0022     		mov	r2, #0
 139 0008 1A70     		strb	r2, [r3]
 138:.\Generated_Source\PSoC4/BLE_1.c ****     cyBle_busyStatus = CYBLE_STACK_STATE_FREE;
 140              		.loc 1 138 0
 141 000a 064B     		ldr	r3, .L2+4
 142 000c 0022     		mov	r2, #0
 143 000e 1A70     		strb	r2, [r3]
ARM GAS  C:\Users\jsing\AppData\Local\Temp\ccadTqFE.s 			page 6


 139:.\Generated_Source\PSoC4/BLE_1.c ****     
 140:.\Generated_Source\PSoC4/BLE_1.c ****     #if(CYBLE_GAP_ROLE_PERIPHERAL || CYBLE_GAP_ROLE_BROADCASTER) 
 141:.\Generated_Source\PSoC4/BLE_1.c ****         cyBle_advertisingIntervalType = CYBLE_ADVERTISING_FAST; 
 144              		.loc 1 141 0
 145 0010 054B     		ldr	r3, .L2+8
 146 0012 0022     		mov	r2, #0
 147 0014 1A70     		strb	r2, [r3]
 142:.\Generated_Source\PSoC4/BLE_1.c ****     #endif /* (CYBLE_GAP_ROLE_PERIPHERAL || CYBLE_GAP_ROLE_BROADCASTER)  */
 143:.\Generated_Source\PSoC4/BLE_1.c ****     #if(CYBLE_GAP_ROLE_CENTRAL || CYBLE_GAP_ROLE_OBSERVER)
 144:.\Generated_Source\PSoC4/BLE_1.c ****         cyBle_scanningIntervalType = CYBLE_SCANNING_FAST; 
 145:.\Generated_Source\PSoC4/BLE_1.c ****     #endif /* (CYBLE_GAP_ROLE_CENTRAL || CYBLE_GAP_ROLE_OBSERVER) */
 146:.\Generated_Source\PSoC4/BLE_1.c ****         
 147:.\Generated_Source\PSoC4/BLE_1.c ****     /* Init default connection parameters. 
 148:.\Generated_Source\PSoC4/BLE_1.c ****        Application may change it before initiating a connection */
 149:.\Generated_Source\PSoC4/BLE_1.c ****     #if(CYBLE_GAP_ROLE_CENTRAL)
 150:.\Generated_Source\PSoC4/BLE_1.c ****         cyBle_connectionParameters.scanIntv = cyBle_discoveryInfo.scanIntv;
 151:.\Generated_Source\PSoC4/BLE_1.c ****         cyBle_connectionParameters.scanWindow = cyBle_discoveryInfo.scanWindow;
 152:.\Generated_Source\PSoC4/BLE_1.c ****         cyBle_connectionParameters.ownAddrType = cyBle_discoveryInfo.ownAddrType;
 153:.\Generated_Source\PSoC4/BLE_1.c ****         cyBle_connectionParameters.initiatorFilterPolicy = cyBle_discoveryInfo.scanFilterPolicy;
 154:.\Generated_Source\PSoC4/BLE_1.c ****         cyBle_connectionParameters.connIntvMin = CYBLE_GAPC_CONNECTION_INTERVAL_MIN;
 155:.\Generated_Source\PSoC4/BLE_1.c ****         cyBle_connectionParameters.connIntvMax = CYBLE_GAPC_CONNECTION_INTERVAL_MAX;
 156:.\Generated_Source\PSoC4/BLE_1.c ****         cyBle_connectionParameters.connLatency = CYBLE_GAPC_CONNECTION_SLAVE_LATENCY;
 157:.\Generated_Source\PSoC4/BLE_1.c ****         cyBle_connectionParameters.supervisionTO = CYBLE_GAPC_CONNECTION_TIME_OUT;
 158:.\Generated_Source\PSoC4/BLE_1.c ****         cyBle_connectionParameters.minCeLength = 0x0000u;
 159:.\Generated_Source\PSoC4/BLE_1.c ****         cyBle_connectionParameters.maxCeLength = 0xFFFFu;
 160:.\Generated_Source\PSoC4/BLE_1.c ****         
 161:.\Generated_Source\PSoC4/BLE_1.c ****         cyBle_connectingTimeout = CYBLE_GAPC_CONNECTING_TIMEOUT;
 162:.\Generated_Source\PSoC4/BLE_1.c ****     #endif /* CYBLE_GAP_ROLE_CENTRAL */
 163:.\Generated_Source\PSoC4/BLE_1.c **** 
 164:.\Generated_Source\PSoC4/BLE_1.c ****     CyBle_ServiceInit();
 148              		.loc 1 164 0
 149 0016 FFF7FEFF 		bl	CyBle_ServiceInit
 165:.\Generated_Source\PSoC4/BLE_1.c **** 
 166:.\Generated_Source\PSoC4/BLE_1.c **** #if((CYBLE_GAP_ROLE_PERIPHERAL || CYBLE_GAP_ROLE_CENTRAL) && (CYBLE_BONDING_REQUIREMENT == CYBLE_BO
 167:.\Generated_Source\PSoC4/BLE_1.c ****     cyBle_pendingFlashWrite = 0u;
 168:.\Generated_Source\PSoC4/BLE_1.c **** #endif  /* (CYBLE_BONDING_REQUIREMENT == CYBLE_BONDING_YES) */
 169:.\Generated_Source\PSoC4/BLE_1.c **** 
 170:.\Generated_Source\PSoC4/BLE_1.c **** }
 150              		.loc 1 170 0
 151 001a BD46     		mov	sp, r7
 152              		@ sp needed
 153 001c 80BD     		pop	{r7, pc}
 154              	.L3:
 155 001e C046     		.align	2
 156              	.L2:
 157 0020 00000000 		.word	cyBle_eventHandlerFlag
 158 0024 00000000 		.word	cyBle_busyStatus
 159 0028 00000000 		.word	cyBle_advertisingIntervalType
 160              		.cfi_endproc
 161              	.LFE2:
 162              		.size	CyBle_Init, .-CyBle_Init
 163              		.section	.text.CyBle_ServiceInit,"ax",%progbits
 164              		.align	2
 165              		.global	CyBle_ServiceInit
 166              		.code	16
 167              		.thumb_func
 168              		.type	CyBle_ServiceInit, %function
ARM GAS  C:\Users\jsing\AppData\Local\Temp\ccadTqFE.s 			page 7


 169              	CyBle_ServiceInit:
 170              	.LFB3:
 171:.\Generated_Source\PSoC4/BLE_1.c **** 
 172:.\Generated_Source\PSoC4/BLE_1.c **** 
 173:.\Generated_Source\PSoC4/BLE_1.c **** /******************************************************************************
 174:.\Generated_Source\PSoC4/BLE_1.c **** ##Function Name: CyBle_ServiceInit
 175:.\Generated_Source\PSoC4/BLE_1.c **** *******************************************************************************
 176:.\Generated_Source\PSoC4/BLE_1.c **** 
 177:.\Generated_Source\PSoC4/BLE_1.c **** Summary:
 178:.\Generated_Source\PSoC4/BLE_1.c ****  Initializes all included services.
 179:.\Generated_Source\PSoC4/BLE_1.c **** 
 180:.\Generated_Source\PSoC4/BLE_1.c **** Parameters:
 181:.\Generated_Source\PSoC4/BLE_1.c ****  None
 182:.\Generated_Source\PSoC4/BLE_1.c **** 
 183:.\Generated_Source\PSoC4/BLE_1.c **** Return:
 184:.\Generated_Source\PSoC4/BLE_1.c ****  None
 185:.\Generated_Source\PSoC4/BLE_1.c **** 
 186:.\Generated_Source\PSoC4/BLE_1.c **** ******************************************************************************/
 187:.\Generated_Source\PSoC4/BLE_1.c **** void CyBle_ServiceInit(void)
 188:.\Generated_Source\PSoC4/BLE_1.c **** {
 171              		.loc 1 188 0
 172              		.cfi_startproc
 173 0000 80B5     		push	{r7, lr}
 174              		.cfi_def_cfa_offset 8
 175              		.cfi_offset 7, -8
 176              		.cfi_offset 14, -4
 177 0002 00AF     		add	r7, sp, #0
 178              		.cfi_def_cfa_register 7
 189:.\Generated_Source\PSoC4/BLE_1.c ****     #if(CYBLE_GATT_ROLE_CLIENT)
 190:.\Generated_Source\PSoC4/BLE_1.c ****         (void)memset(&cyBle_gapc, 0, sizeof(cyBle_gapc));
 191:.\Generated_Source\PSoC4/BLE_1.c ****         (void)memset(&cyBle_gattc, 0, sizeof(cyBle_gattc));
 192:.\Generated_Source\PSoC4/BLE_1.c ****     #endif /* CYBLE_GATT_ROLE_CLIENT */
 193:.\Generated_Source\PSoC4/BLE_1.c ****     
 194:.\Generated_Source\PSoC4/BLE_1.c ****     #ifdef CYBLE_ANS
 195:.\Generated_Source\PSoC4/BLE_1.c ****         CyBle_AnsInit();
 196:.\Generated_Source\PSoC4/BLE_1.c ****     #endif /* CYBLE_ANS */
 197:.\Generated_Source\PSoC4/BLE_1.c ****     
 198:.\Generated_Source\PSoC4/BLE_1.c ****     #ifdef CYBLE_BAS
 199:.\Generated_Source\PSoC4/BLE_1.c ****         CyBle_BasInit();
 200:.\Generated_Source\PSoC4/BLE_1.c ****     #endif /* CYBLE_BAS */
 201:.\Generated_Source\PSoC4/BLE_1.c ****     
 202:.\Generated_Source\PSoC4/BLE_1.c ****     #ifdef CYBLE_BLS
 203:.\Generated_Source\PSoC4/BLE_1.c ****         CyBle_BlsInit();
 204:.\Generated_Source\PSoC4/BLE_1.c ****     #endif /* CYBLE_BLS */
 205:.\Generated_Source\PSoC4/BLE_1.c ****     
 206:.\Generated_Source\PSoC4/BLE_1.c ****     #ifdef CYBLE_CGMS
 207:.\Generated_Source\PSoC4/BLE_1.c ****         CyBle_CgmsInit();
 208:.\Generated_Source\PSoC4/BLE_1.c ****     #endif /* CYBLE_CGMS */
 209:.\Generated_Source\PSoC4/BLE_1.c **** 
 210:.\Generated_Source\PSoC4/BLE_1.c ****     #ifdef CYBLE_CPS
 211:.\Generated_Source\PSoC4/BLE_1.c ****         CyBle_CpsInit();
 212:.\Generated_Source\PSoC4/BLE_1.c ****     #endif /* CYBLE_CPS */
 213:.\Generated_Source\PSoC4/BLE_1.c **** 
 214:.\Generated_Source\PSoC4/BLE_1.c ****     #ifdef CYBLE_CSCS
 215:.\Generated_Source\PSoC4/BLE_1.c ****         CyBle_CscsInit();
 216:.\Generated_Source\PSoC4/BLE_1.c ****     #endif /* CYBLE_CSCS */
 217:.\Generated_Source\PSoC4/BLE_1.c ****     
ARM GAS  C:\Users\jsing\AppData\Local\Temp\ccadTqFE.s 			page 8


 218:.\Generated_Source\PSoC4/BLE_1.c ****     #ifdef CYBLE_CTS
 219:.\Generated_Source\PSoC4/BLE_1.c ****         CyBle_CtsInit();
 220:.\Generated_Source\PSoC4/BLE_1.c ****     #endif /* CYBLE_CTS */
 221:.\Generated_Source\PSoC4/BLE_1.c **** 
 222:.\Generated_Source\PSoC4/BLE_1.c ****     #ifdef CYBLE_DIS
 223:.\Generated_Source\PSoC4/BLE_1.c ****         CyBle_DisInit();
 224:.\Generated_Source\PSoC4/BLE_1.c ****     #endif /* CYBLE_DIS */
 225:.\Generated_Source\PSoC4/BLE_1.c **** 
 226:.\Generated_Source\PSoC4/BLE_1.c ****     #ifdef CYBLE_GLS
 227:.\Generated_Source\PSoC4/BLE_1.c ****         CyBle_GlsInit();
 228:.\Generated_Source\PSoC4/BLE_1.c ****     #endif /* CYBLE_GLS */
 229:.\Generated_Source\PSoC4/BLE_1.c ****     
 230:.\Generated_Source\PSoC4/BLE_1.c ****     #ifdef CYBLE_HIDS
 231:.\Generated_Source\PSoC4/BLE_1.c ****         CyBle_HidsInit();
 232:.\Generated_Source\PSoC4/BLE_1.c ****     #endif /* CYBLE_HIDS */
 233:.\Generated_Source\PSoC4/BLE_1.c **** 
 234:.\Generated_Source\PSoC4/BLE_1.c ****     #ifdef CYBLE_HRS
 235:.\Generated_Source\PSoC4/BLE_1.c ****         CyBle_HrsInit();
 236:.\Generated_Source\PSoC4/BLE_1.c ****     #endif /* CYBLE_HRS */
 237:.\Generated_Source\PSoC4/BLE_1.c ****     
 238:.\Generated_Source\PSoC4/BLE_1.c ****     #ifdef CYBLE_HTS
 239:.\Generated_Source\PSoC4/BLE_1.c ****         CyBle_HtsInit();
 240:.\Generated_Source\PSoC4/BLE_1.c ****     #endif /* CYBLE_RSCS */
 241:.\Generated_Source\PSoC4/BLE_1.c **** 
 242:.\Generated_Source\PSoC4/BLE_1.c ****     #ifdef CYBLE_IAS
 243:.\Generated_Source\PSoC4/BLE_1.c ****         CyBle_IasInit();
 244:.\Generated_Source\PSoC4/BLE_1.c ****     #endif /* CYBLE_IAS */
 245:.\Generated_Source\PSoC4/BLE_1.c **** 
 246:.\Generated_Source\PSoC4/BLE_1.c ****     #ifdef CYBLE_LLS
 247:.\Generated_Source\PSoC4/BLE_1.c ****         CyBle_LlsInit();
 248:.\Generated_Source\PSoC4/BLE_1.c ****     #endif /* CYBLE_LLS */
 249:.\Generated_Source\PSoC4/BLE_1.c **** 
 250:.\Generated_Source\PSoC4/BLE_1.c ****     #ifdef CYBLE_RTUS
 251:.\Generated_Source\PSoC4/BLE_1.c ****         CyBle_RtusInit();
 252:.\Generated_Source\PSoC4/BLE_1.c ****     #endif /* CYBLE_RTUS */
 253:.\Generated_Source\PSoC4/BLE_1.c **** 
 254:.\Generated_Source\PSoC4/BLE_1.c ****     #ifdef CYBLE_LNS
 255:.\Generated_Source\PSoC4/BLE_1.c ****         CyBle_LnsInit();
 256:.\Generated_Source\PSoC4/BLE_1.c ****     #endif /* CYBLE_LNS */
 257:.\Generated_Source\PSoC4/BLE_1.c ****     
 258:.\Generated_Source\PSoC4/BLE_1.c ****     #ifdef CYBLE_PASS
 259:.\Generated_Source\PSoC4/BLE_1.c ****         CyBle_PassInit();
 260:.\Generated_Source\PSoC4/BLE_1.c ****     #endif /* CYBLE_PASS */
 261:.\Generated_Source\PSoC4/BLE_1.c ****     
 262:.\Generated_Source\PSoC4/BLE_1.c ****     #ifdef CYBLE_RSCS
 263:.\Generated_Source\PSoC4/BLE_1.c ****         CyBle_RscsInit();
 264:.\Generated_Source\PSoC4/BLE_1.c ****     #endif /* CYBLE_RSCS */
 265:.\Generated_Source\PSoC4/BLE_1.c **** 
 266:.\Generated_Source\PSoC4/BLE_1.c ****     #ifdef CYBLE_SCPS
 267:.\Generated_Source\PSoC4/BLE_1.c ****         CyBle_ScpsInit();
 268:.\Generated_Source\PSoC4/BLE_1.c ****     #endif /* CYBLE_SCPS */
 269:.\Generated_Source\PSoC4/BLE_1.c ****     
 270:.\Generated_Source\PSoC4/BLE_1.c ****     #ifdef CYBLE_TPS
 271:.\Generated_Source\PSoC4/BLE_1.c ****         CyBle_TpsInit();
 272:.\Generated_Source\PSoC4/BLE_1.c ****     #endif /* CYBLE_TPS */
 273:.\Generated_Source\PSoC4/BLE_1.c ****     
 274:.\Generated_Source\PSoC4/BLE_1.c ****     #ifdef CYBLE_UDS
ARM GAS  C:\Users\jsing\AppData\Local\Temp\ccadTqFE.s 			page 9


 275:.\Generated_Source\PSoC4/BLE_1.c ****         CyBle_UdsInit();
 276:.\Generated_Source\PSoC4/BLE_1.c ****     #endif /* CYBLE_UDS */
 277:.\Generated_Source\PSoC4/BLE_1.c **** }
 179              		.loc 1 277 0
 180 0004 BD46     		mov	sp, r7
 181              		@ sp needed
 182 0006 80BD     		pop	{r7, pc}
 183              		.cfi_endproc
 184              	.LFE3:
 185              		.size	CyBle_ServiceInit, .-CyBle_ServiceInit
 186              		.section	.text.CyBle_Start,"ax",%progbits
 187              		.align	2
 188              		.global	CyBle_Start
 189              		.code	16
 190              		.thumb_func
 191              		.type	CyBle_Start, %function
 192              	CyBle_Start:
 193              	.LFB4:
 278:.\Generated_Source\PSoC4/BLE_1.c **** 
 279:.\Generated_Source\PSoC4/BLE_1.c **** 
 280:.\Generated_Source\PSoC4/BLE_1.c **** /******************************************************************************
 281:.\Generated_Source\PSoC4/BLE_1.c **** ##Function Name: CyBle_Start
 282:.\Generated_Source\PSoC4/BLE_1.c **** *******************************************************************************
 283:.\Generated_Source\PSoC4/BLE_1.c **** 
 284:.\Generated_Source\PSoC4/BLE_1.c **** Summary:
 285:.\Generated_Source\PSoC4/BLE_1.c ****  This function initializes the BLE Stack, which consists of the BLE Stack 
 286:.\Generated_Source\PSoC4/BLE_1.c ****  Manager, BLE Controller, and BLE Host modules. It takes care of initializing
 287:.\Generated_Source\PSoC4/BLE_1.c ****  the Profile layer, schedulers, Timer and other platform related
 288:.\Generated_Source\PSoC4/BLE_1.c ****  resources required for the BLE component. It also registers the callback 
 289:.\Generated_Source\PSoC4/BLE_1.c ****  function for BLE events that will be registered in the BLE stack.
 290:.\Generated_Source\PSoC4/BLE_1.c **** 
 291:.\Generated_Source\PSoC4/BLE_1.c ****  Note that this function does not reset the BLE Stack.
 292:.\Generated_Source\PSoC4/BLE_1.c **** 
 293:.\Generated_Source\PSoC4/BLE_1.c ****  For HCI-Mode of operation, this function will not initialize the BLE Host 
 294:.\Generated_Source\PSoC4/BLE_1.c ****  module.
 295:.\Generated_Source\PSoC4/BLE_1.c **** 
 296:.\Generated_Source\PSoC4/BLE_1.c ****  Calling this function results in the generation of CYBLE_EVT_STACK_ON event
 297:.\Generated_Source\PSoC4/BLE_1.c ****  on successful initialization of the BLE Stack.
 298:.\Generated_Source\PSoC4/BLE_1.c **** 
 299:.\Generated_Source\PSoC4/BLE_1.c **** Parameters:
 300:.\Generated_Source\PSoC4/BLE_1.c ****  callbackFunc: Event callback function to receive events from BLE stack.
 301:.\Generated_Source\PSoC4/BLE_1.c ****   CYBLE_CALLBACK_T is a function pointer type.
 302:.\Generated_Source\PSoC4/BLE_1.c **** 
 303:.\Generated_Source\PSoC4/BLE_1.c **** Return:
 304:.\Generated_Source\PSoC4/BLE_1.c ****  CYBLE_API_RESULT_T : Return value indicates if the function succeeded or 
 305:.\Generated_Source\PSoC4/BLE_1.c ****  failed. Following are the possible error codes.
 306:.\Generated_Source\PSoC4/BLE_1.c ****  <table>
 307:.\Generated_Source\PSoC4/BLE_1.c ****   Errors codes                        Description
 308:.\Generated_Source\PSoC4/BLE_1.c ****   ------------                        -----------------
 309:.\Generated_Source\PSoC4/BLE_1.c ****   CYBLE_ERROR_OK                      On successful operation.
 310:.\Generated_Source\PSoC4/BLE_1.c ****   CYBLE_ERROR_INVALID_PARAMETER       On passing a NULL pointer to the 
 311:.\Generated_Source\PSoC4/BLE_1.c ****                                        function when the BLE stack is not 
 312:.\Generated_Source\PSoC4/BLE_1.c ****                                        built in HCI mode.
 313:.\Generated_Source\PSoC4/BLE_1.c ****                                        CYBLE_ERROR_INVALID_PARAMETER
 314:.\Generated_Source\PSoC4/BLE_1.c ****                                        is never returned in HCI mode.
 315:.\Generated_Source\PSoC4/BLE_1.c ****   CYBLE_ERROR_REPEATED_ATTEMPTS       On invoking this function more
 316:.\Generated_Source\PSoC4/BLE_1.c ****                                        than once without calling
ARM GAS  C:\Users\jsing\AppData\Local\Temp\ccadTqFE.s 			page 10


 317:.\Generated_Source\PSoC4/BLE_1.c ****                                        CyBle_Shutdown() function 
 318:.\Generated_Source\PSoC4/BLE_1.c ****                                        between calls to this function.
 319:.\Generated_Source\PSoC4/BLE_1.c ****  </table>
 320:.\Generated_Source\PSoC4/BLE_1.c **** 
 321:.\Generated_Source\PSoC4/BLE_1.c **** ******************************************************************************/
 322:.\Generated_Source\PSoC4/BLE_1.c **** CYBLE_API_RESULT_T CyBle_Start(CYBLE_CALLBACK_T callbackFunc)
 323:.\Generated_Source\PSoC4/BLE_1.c **** {
 194              		.loc 1 323 0
 195              		.cfi_startproc
 196 0000 90B5     		push	{r4, r7, lr}
 197              		.cfi_def_cfa_offset 12
 198              		.cfi_offset 4, -12
 199              		.cfi_offset 7, -8
 200              		.cfi_offset 14, -4
 201 0002 85B0     		sub	sp, sp, #20
 202              		.cfi_def_cfa_offset 32
 203 0004 00AF     		add	r7, sp, #0
 204              		.cfi_def_cfa_register 7
 205 0006 7860     		str	r0, [r7, #4]
 324:.\Generated_Source\PSoC4/BLE_1.c ****     CYBLE_API_RESULT_T apiResult = CYBLE_ERROR_INVALID_PARAMETER;
 206              		.loc 1 324 0
 207 0008 3B1C     		mov	r3, r7
 208 000a 0E33     		add	r3, r3, #14
 209 000c 0122     		mov	r2, #1
 210 000e 1A80     		strh	r2, [r3]
 325:.\Generated_Source\PSoC4/BLE_1.c ****     
 326:.\Generated_Source\PSoC4/BLE_1.c ****     /* Allocate RAM memory for stack */
 327:.\Generated_Source\PSoC4/BLE_1.c ****     CYBLE_CYALIGNED static uint8 cyBle_stackMemoryRam[CYBLE_STACK_RAM_SIZE];
 328:.\Generated_Source\PSoC4/BLE_1.c ****     
 329:.\Generated_Source\PSoC4/BLE_1.c ****     /* If not initialized then initialize all the required hardware and software */
 330:.\Generated_Source\PSoC4/BLE_1.c ****     if(cyBle_initVar == 0u)
 211              		.loc 1 330 0
 212 0010 194B     		ldr	r3, .L9
 213 0012 1B78     		ldrb	r3, [r3]
 214 0014 002B     		cmp	r3, #0
 215 0016 04D1     		bne	.L6
 331:.\Generated_Source\PSoC4/BLE_1.c ****     {
 332:.\Generated_Source\PSoC4/BLE_1.c ****         CyBle_Init();
 216              		.loc 1 332 0
 217 0018 FFF7FEFF 		bl	CyBle_Init
 333:.\Generated_Source\PSoC4/BLE_1.c ****         cyBle_initVar = 1u;
 218              		.loc 1 333 0
 219 001c 164B     		ldr	r3, .L9
 220 001e 0122     		mov	r2, #1
 221 0020 1A70     		strb	r2, [r3]
 222              	.L6:
 334:.\Generated_Source\PSoC4/BLE_1.c ****     }
 335:.\Generated_Source\PSoC4/BLE_1.c ****     
 336:.\Generated_Source\PSoC4/BLE_1.c ****     if(NULL != callbackFunc)
 223              		.loc 1 336 0
 224 0022 7B68     		ldr	r3, [r7, #4]
 225 0024 002B     		cmp	r3, #0
 226 0026 1FD0     		beq	.L7
 337:.\Generated_Source\PSoC4/BLE_1.c ****     {
 338:.\Generated_Source\PSoC4/BLE_1.c ****         CyBle_ApplCallback = callbackFunc;
 227              		.loc 1 338 0
 228 0028 144B     		ldr	r3, .L9+4
ARM GAS  C:\Users\jsing\AppData\Local\Temp\ccadTqFE.s 			page 11


 229 002a 7A68     		ldr	r2, [r7, #4]
 230 002c 1A60     		str	r2, [r3]
 339:.\Generated_Source\PSoC4/BLE_1.c **** 
 340:.\Generated_Source\PSoC4/BLE_1.c ****         apiResult = CyBle_StackInit(&CyBle_EventHandler, cyBle_stackMemoryRam, CYBLE_GATT_MTU);
 231              		.loc 1 340 0
 232 002e 3C1C     		mov	r4, r7
 233 0030 0E34     		add	r4, r4, #14
 234 0032 134A     		ldr	r2, .L9+8
 235 0034 134B     		ldr	r3, .L9+12
 236 0036 101C     		mov	r0, r2
 237 0038 191C     		mov	r1, r3
 238 003a 1722     		mov	r2, #23
 239 003c FFF7FEFF 		bl	CyBle_StackInit
 240 0040 031C     		mov	r3, r0
 241 0042 2380     		strh	r3, [r4]
 341:.\Generated_Source\PSoC4/BLE_1.c **** 
 342:.\Generated_Source\PSoC4/BLE_1.c ****         if(apiResult == CYBLE_ERROR_OK)
 242              		.loc 1 342 0
 243 0044 3B1C     		mov	r3, r7
 244 0046 0E33     		add	r3, r3, #14
 245 0048 1B88     		ldrh	r3, [r3]
 246 004a 002B     		cmp	r3, #0
 247 004c 0CD1     		bne	.L7
 343:.\Generated_Source\PSoC4/BLE_1.c ****         {
 344:.\Generated_Source\PSoC4/BLE_1.c ****             CyBle_SetState(CYBLE_STATE_INITIALIZING);
 248              		.loc 1 344 0
 249 004e 0E4B     		ldr	r3, .L9+16
 250 0050 0122     		mov	r2, #1
 251 0052 1A70     		strb	r2, [r3]
 345:.\Generated_Source\PSoC4/BLE_1.c ****             
 346:.\Generated_Source\PSoC4/BLE_1.c ****         #if (CYBLE_GATT_ROLE_CLIENT)
 347:.\Generated_Source\PSoC4/BLE_1.c ****             CyBle_SetClientState(CYBLE_CLIENT_STATE_DISCONNECTED);
 348:.\Generated_Source\PSoC4/BLE_1.c ****         #endif /* CYBLE_GATT_ROLE_CLIENT */
 349:.\Generated_Source\PSoC4/BLE_1.c ****             
 350:.\Generated_Source\PSoC4/BLE_1.c ****         #if(CYBLE_GATT_ROLE_SERVER)
 351:.\Generated_Source\PSoC4/BLE_1.c ****             apiResult = CyBle_GattsDbRegister(cyBle_gattDB, CYBLE_GATT_DB_INDEX_COUNT, CYBLE_GATT_D
 252              		.loc 1 351 0
 253 0054 3C1C     		mov	r4, r7
 254 0056 0E34     		add	r4, r4, #14
 255 0058 0C4B     		ldr	r3, .L9+20
 256 005a 181C     		mov	r0, r3
 257 005c 1421     		mov	r1, #20
 258 005e 0F22     		mov	r2, #15
 259 0060 FFF7FEFF 		bl	CyBle_GattsDbRegister
 260 0064 031C     		mov	r3, r0
 261 0066 2380     		strh	r3, [r4]
 262              	.L7:
 352:.\Generated_Source\PSoC4/BLE_1.c ****         #endif /* CYBLE_GATT_ROLE_SERVER */
 353:.\Generated_Source\PSoC4/BLE_1.c ****         }
 354:.\Generated_Source\PSoC4/BLE_1.c ****     }
 355:.\Generated_Source\PSoC4/BLE_1.c **** 
 356:.\Generated_Source\PSoC4/BLE_1.c ****     return (apiResult);
 263              		.loc 1 356 0
 264 0068 3B1C     		mov	r3, r7
 265 006a 0E33     		add	r3, r3, #14
 266 006c 1B88     		ldrh	r3, [r3]
 357:.\Generated_Source\PSoC4/BLE_1.c **** }
ARM GAS  C:\Users\jsing\AppData\Local\Temp\ccadTqFE.s 			page 12


 267              		.loc 1 357 0
 268 006e 181C     		mov	r0, r3
 269 0070 BD46     		mov	sp, r7
 270 0072 05B0     		add	sp, sp, #20
 271              		@ sp needed
 272 0074 90BD     		pop	{r4, r7, pc}
 273              	.L10:
 274 0076 C046     		.align	2
 275              	.L9:
 276 0078 00000000 		.word	cyBle_initVar
 277 007c 00000000 		.word	CyBle_ApplCallback
 278 0080 00000000 		.word	CyBle_EventHandler
 279 0084 28000000 		.word	cyBle_stackMemoryRam.5994
 280 0088 00000000 		.word	cyBle_state
 281 008c 00000000 		.word	cyBle_gattDB
 282              		.cfi_endproc
 283              	.LFE4:
 284              		.size	CyBle_Start, .-CyBle_Start
 285              		.section	.text.CyBle_Stop,"ax",%progbits
 286              		.align	2
 287              		.global	CyBle_Stop
 288              		.code	16
 289              		.thumb_func
 290              		.type	CyBle_Stop, %function
 291              	CyBle_Stop:
 292              	.LFB5:
 358:.\Generated_Source\PSoC4/BLE_1.c **** 
 359:.\Generated_Source\PSoC4/BLE_1.c **** 
 360:.\Generated_Source\PSoC4/BLE_1.c **** /******************************************************************************
 361:.\Generated_Source\PSoC4/BLE_1.c **** ##Function Name: CyBle_Stop
 362:.\Generated_Source\PSoC4/BLE_1.c **** *******************************************************************************
 363:.\Generated_Source\PSoC4/BLE_1.c **** 
 364:.\Generated_Source\PSoC4/BLE_1.c **** Summary:
 365:.\Generated_Source\PSoC4/BLE_1.c ****  This function stops any ongoing operation in the BLE Stack and forces the 
 366:.\Generated_Source\PSoC4/BLE_1.c ****  BLE Stack to shut down. The only function that can be called after calling
 367:.\Generated_Source\PSoC4/BLE_1.c ****  this function is CyBle_Start(). 
 368:.\Generated_Source\PSoC4/BLE_1.c **** 
 369:.\Generated_Source\PSoC4/BLE_1.c **** Parameters:
 370:.\Generated_Source\PSoC4/BLE_1.c ****  None
 371:.\Generated_Source\PSoC4/BLE_1.c **** 
 372:.\Generated_Source\PSoC4/BLE_1.c **** Return:
 373:.\Generated_Source\PSoC4/BLE_1.c ****  None
 374:.\Generated_Source\PSoC4/BLE_1.c **** 
 375:.\Generated_Source\PSoC4/BLE_1.c **** ******************************************************************************/
 376:.\Generated_Source\PSoC4/BLE_1.c **** void CyBle_Stop(void)
 377:.\Generated_Source\PSoC4/BLE_1.c **** {
 293              		.loc 1 377 0
 294              		.cfi_startproc
 295 0000 80B5     		push	{r7, lr}
 296              		.cfi_def_cfa_offset 8
 297              		.cfi_offset 7, -8
 298              		.cfi_offset 14, -4
 299 0002 00AF     		add	r7, sp, #0
 300              		.cfi_def_cfa_register 7
 378:.\Generated_Source\PSoC4/BLE_1.c ****     CyBle_Shutdown(); /* stop all ongoing activities */
 301              		.loc 1 378 0
 302 0004 FFF7FEFF 		bl	CyBle_Shutdown
ARM GAS  C:\Users\jsing\AppData\Local\Temp\ccadTqFE.s 			page 13


 379:.\Generated_Source\PSoC4/BLE_1.c ****     CyBle_ProcessEvents(); /* process all pending events */
 303              		.loc 1 379 0
 304 0008 FFF7FEFF 		bl	CyBle_ProcessEvents
 380:.\Generated_Source\PSoC4/BLE_1.c ****     CyBle_SetState(CYBLE_STATE_STOPPED);
 305              		.loc 1 380 0
 306 000c 024B     		ldr	r3, .L12
 307 000e 0022     		mov	r2, #0
 308 0010 1A70     		strb	r2, [r3]
 381:.\Generated_Source\PSoC4/BLE_1.c **** }
 309              		.loc 1 381 0
 310 0012 BD46     		mov	sp, r7
 311              		@ sp needed
 312 0014 80BD     		pop	{r7, pc}
 313              	.L13:
 314 0016 C046     		.align	2
 315              	.L12:
 316 0018 00000000 		.word	cyBle_state
 317              		.cfi_endproc
 318              	.LFE5:
 319              		.size	CyBle_Stop, .-CyBle_Stop
 320              		.section	.text.CyBle_GappStartAdvertisement,"ax",%progbits
 321              		.align	2
 322              		.global	CyBle_GappStartAdvertisement
 323              		.code	16
 324              		.thumb_func
 325              		.type	CyBle_GappStartAdvertisement, %function
 326              	CyBle_GappStartAdvertisement:
 327              	.LFB6:
 382:.\Generated_Source\PSoC4/BLE_1.c **** 
 383:.\Generated_Source\PSoC4/BLE_1.c **** 
 384:.\Generated_Source\PSoC4/BLE_1.c **** #if((CYBLE_GAP_ROLE_PERIPHERAL || CYBLE_GAP_ROLE_CENTRAL) && (CYBLE_BONDING_REQUIREMENT == CYBLE_BO
 385:.\Generated_Source\PSoC4/BLE_1.c **** 
 386:.\Generated_Source\PSoC4/BLE_1.c ****     
 387:.\Generated_Source\PSoC4/BLE_1.c **** /******************************************************************************
 388:.\Generated_Source\PSoC4/BLE_1.c **** ##Function Name: CyBle_StoreBondingData
 389:.\Generated_Source\PSoC4/BLE_1.c **** *******************************************************************************
 390:.\Generated_Source\PSoC4/BLE_1.c **** 
 391:.\Generated_Source\PSoC4/BLE_1.c **** Summary:
 392:.\Generated_Source\PSoC4/BLE_1.c ****  This function writes the new bonding data from RAM to the dedicated Flash 
 393:.\Generated_Source\PSoC4/BLE_1.c ****  location as defined by the component. It performs data comparing between RAM
 394:.\Generated_Source\PSoC4/BLE_1.c ****  and Flash before writing to Flash. If there is no change between RAM and Flash
 395:.\Generated_Source\PSoC4/BLE_1.c ****  data, then no write is performed. It writes only one flash row in one call.
 396:.\Generated_Source\PSoC4/BLE_1.c ****  Application should keep calling this function till API return CYBLE_ERROR_OK. 
 397:.\Generated_Source\PSoC4/BLE_1.c ****  This function is available only when Bonding requirement is selected in
 398:.\Generated_Source\PSoC4/BLE_1.c ****  Security settings.    
 399:.\Generated_Source\PSoC4/BLE_1.c ****     
 400:.\Generated_Source\PSoC4/BLE_1.c **** Parameters:
 401:.\Generated_Source\PSoC4/BLE_1.c ****  isForceWrite:  If value is set to 0, then stack will check if flash write 
 402:.\Generated_Source\PSoC4/BLE_1.c ****                 is permissible. 
 403:.\Generated_Source\PSoC4/BLE_1.c ****  
 404:.\Generated_Source\PSoC4/BLE_1.c **** Return:
 405:.\Generated_Source\PSoC4/BLE_1.c ****  Return value is of type CYBLE_API_RESULT_T.
 406:.\Generated_Source\PSoC4/BLE_1.c ****  * CYBLE_ERROR_OK - On successful operation
 407:.\Generated_Source\PSoC4/BLE_1.c ****  * CYBLE_ERROR_FLASH_WRITE_NOT_PERMITED - Flash Write is not complete
 408:.\Generated_Source\PSoC4/BLE_1.c ****    
 409:.\Generated_Source\PSoC4/BLE_1.c ****  Side Effects:
 410:.\Generated_Source\PSoC4/BLE_1.c ****   This API will automatically modify the clock settings for the device.
ARM GAS  C:\Users\jsing\AppData\Local\Temp\ccadTqFE.s 			page 14


 411:.\Generated_Source\PSoC4/BLE_1.c ****   Writing to flash requires changes to be done to the IMO (set to 48 MHz)
 412:.\Generated_Source\PSoC4/BLE_1.c ****   and HFCLK (source set to IMO) settings. The configuration is restored before
 413:.\Generated_Source\PSoC4/BLE_1.c ****   returning. This will impact the operation of most of the hardware in the
 414:.\Generated_Source\PSoC4/BLE_1.c ****   device.
 415:.\Generated_Source\PSoC4/BLE_1.c **** 
 416:.\Generated_Source\PSoC4/BLE_1.c **** ******************************************************************************/
 417:.\Generated_Source\PSoC4/BLE_1.c **** CYBLE_API_RESULT_T CyBle_StoreBondingData(uint8 isForceWrite)
 418:.\Generated_Source\PSoC4/BLE_1.c **** {
 419:.\Generated_Source\PSoC4/BLE_1.c ****     CYBLE_API_RESULT_T apiResult = CYBLE_ERROR_OK;
 420:.\Generated_Source\PSoC4/BLE_1.c ****     
 421:.\Generated_Source\PSoC4/BLE_1.c ****     /* Store Stack data */
 422:.\Generated_Source\PSoC4/BLE_1.c ****     if((cyBle_pendingFlashWrite & CYBLE_PENDING_STACK_FLASH_WRITE_BIT) != 0u)
 423:.\Generated_Source\PSoC4/BLE_1.c ****     {
 424:.\Generated_Source\PSoC4/BLE_1.c ****         apiResult = CyBle_StoreStackData(isForceWrite);
 425:.\Generated_Source\PSoC4/BLE_1.c ****         if(apiResult == CYBLE_ERROR_OK)
 426:.\Generated_Source\PSoC4/BLE_1.c ****         {
 427:.\Generated_Source\PSoC4/BLE_1.c ****             cyBle_pendingFlashWrite &= (uint8)~CYBLE_PENDING_STACK_FLASH_WRITE_BIT;
 428:.\Generated_Source\PSoC4/BLE_1.c ****             /* Change apiResult if there are more pending data to store */
 429:.\Generated_Source\PSoC4/BLE_1.c ****             if((cyBle_pendingFlashWrite & CYBLE_PENDING_CCCD_FLASH_WRITE_BIT) != 0u)
 430:.\Generated_Source\PSoC4/BLE_1.c ****             {
 431:.\Generated_Source\PSoC4/BLE_1.c ****                 apiResult = CYBLE_ERROR_FLASH_WRITE_NOT_PERMITED;
 432:.\Generated_Source\PSoC4/BLE_1.c ****             }
 433:.\Generated_Source\PSoC4/BLE_1.c ****         }
 434:.\Generated_Source\PSoC4/BLE_1.c ****     }
 435:.\Generated_Source\PSoC4/BLE_1.c **** #if(CYBLE_GATT_DB_CCCD_COUNT != 0u)
 436:.\Generated_Source\PSoC4/BLE_1.c ****     /* Store CCCD values */
 437:.\Generated_Source\PSoC4/BLE_1.c ****     if( ((apiResult == CYBLE_ERROR_OK) || (isForceWrite != 0u)) && 
 438:.\Generated_Source\PSoC4/BLE_1.c ****         ((cyBle_pendingFlashWrite & CYBLE_PENDING_CCCD_FLASH_WRITE_BIT) != 0u) &&
 439:.\Generated_Source\PSoC4/BLE_1.c ****         (cyBle_connHandle.bdHandle <= CYBLE_GAP_MAX_BONDED_DEVICE))
 440:.\Generated_Source\PSoC4/BLE_1.c ****     {
 441:.\Generated_Source\PSoC4/BLE_1.c ****         apiResult = CyBle_StoreAppData(cyBle_attValuesCCCD, cyBle_attValuesCCCDFlashMemory[cyBle_co
 442:.\Generated_Source\PSoC4/BLE_1.c ****                                        CYBLE_GATT_DB_CCCD_COUNT, isForceWrite);
 443:.\Generated_Source\PSoC4/BLE_1.c ****         if(apiResult == CYBLE_ERROR_OK)
 444:.\Generated_Source\PSoC4/BLE_1.c ****         {
 445:.\Generated_Source\PSoC4/BLE_1.c ****             cyBle_pendingFlashWrite &= (uint8)~CYBLE_PENDING_CCCD_FLASH_WRITE_BIT;
 446:.\Generated_Source\PSoC4/BLE_1.c ****         }
 447:.\Generated_Source\PSoC4/BLE_1.c ****     }
 448:.\Generated_Source\PSoC4/BLE_1.c **** #endif /* CYBLE_GATT_DB_CCCD_COUNT != 0u */
 449:.\Generated_Source\PSoC4/BLE_1.c ****     return(apiResult);
 450:.\Generated_Source\PSoC4/BLE_1.c **** }
 451:.\Generated_Source\PSoC4/BLE_1.c **** 
 452:.\Generated_Source\PSoC4/BLE_1.c **** 
 453:.\Generated_Source\PSoC4/BLE_1.c **** #endif /* (CYBLE_GAP_ROLE_PERIPHERAL || CYBLE_GAP_ROLE_CENTRAL) && (CYBLE_BONDING_REQUIREMENT == CY
 454:.\Generated_Source\PSoC4/BLE_1.c **** 
 455:.\Generated_Source\PSoC4/BLE_1.c **** 
 456:.\Generated_Source\PSoC4/BLE_1.c **** #if(CYBLE_GAP_ROLE_PERIPHERAL || CYBLE_GAP_ROLE_BROADCASTER)
 457:.\Generated_Source\PSoC4/BLE_1.c **** 
 458:.\Generated_Source\PSoC4/BLE_1.c ****     /******************************************************************************
 459:.\Generated_Source\PSoC4/BLE_1.c ****     ##Function Name: CyBle_GappStartAdvertisement
 460:.\Generated_Source\PSoC4/BLE_1.c ****     *******************************************************************************
 461:.\Generated_Source\PSoC4/BLE_1.c ****     
 462:.\Generated_Source\PSoC4/BLE_1.c ****     Summary:
 463:.\Generated_Source\PSoC4/BLE_1.c ****      This function is used to start the advertisement using the advertisement data 
 464:.\Generated_Source\PSoC4/BLE_1.c ****      set in the component customizer's GUI. After invoking this API, the device 
 465:.\Generated_Source\PSoC4/BLE_1.c ****      will be available for connection by the devices configured for GAP central 
 466:.\Generated_Source\PSoC4/BLE_1.c ****      role. It is only included if the device is configured for GAP Peripheral or 
 467:.\Generated_Source\PSoC4/BLE_1.c ****      GAP Peripheral + Central role.
ARM GAS  C:\Users\jsing\AppData\Local\Temp\ccadTqFE.s 			page 15


 468:.\Generated_Source\PSoC4/BLE_1.c ****      
 469:.\Generated_Source\PSoC4/BLE_1.c ****      On start of advertisement, GAP Peripheral receives the
 470:.\Generated_Source\PSoC4/BLE_1.c ****      CYBLE_EVT_GAPP_ADVERTISEMENT_START_STOP event. The following events are 
 471:.\Generated_Source\PSoC4/BLE_1.c ****      possible on invoking this function:
 472:.\Generated_Source\PSoC4/BLE_1.c ****      
 473:.\Generated_Source\PSoC4/BLE_1.c ****      * CYBLE_EVT_GAP_DEVICE_CONNECTED: If the device connects to remote GAP 
 474:.\Generated_Source\PSoC4/BLE_1.c ****                                          Central device
 475:.\Generated_Source\PSoC4/BLE_1.c ****      * CYBLE_EVT_TIMEOUT: If no device in GAP Central mode connects to this 
 476:.\Generated_Source\PSoC4/BLE_1.c ****                           device within the specified timeout limit. Stack 
 477:.\Generated_Source\PSoC4/BLE_1.c ****                           automatically initiate stop advertising when Slow 
 478:.\Generated_Source\PSoC4/BLE_1.c ****                           advertising was initiated, or starts Slow advertising
 479:.\Generated_Source\PSoC4/BLE_1.c ****                           after Fast advertising timeout occur.
 480:.\Generated_Source\PSoC4/BLE_1.c ****      * CYBLE_EVT_GAPP_ADVERTISEMENT_START_STOP: If device started or stopped
 481:.\Generated_Source\PSoC4/BLE_1.c ****                                                   advertising. Use CyBle_GetState()
 482:.\Generated_Source\PSoC4/BLE_1.c ****                                                   to determine the state. Sequential 
 483:.\Generated_Source\PSoC4/BLE_1.c ****                                                   advertising could be started when
 484:.\Generated_Source\PSoC4/BLE_1.c ****                                                   CYBLE_STATE_DISCONNECTED state is
 485:.\Generated_Source\PSoC4/BLE_1.c ****                                                   returned.
 486:.\Generated_Source\PSoC4/BLE_1.c **** 
 487:.\Generated_Source\PSoC4/BLE_1.c ****     Parameters:
 488:.\Generated_Source\PSoC4/BLE_1.c ****      uint8 advertisingIntervalType: Fast or slow advertising interval with timings
 489:.\Generated_Source\PSoC4/BLE_1.c ****                                     entered in Advertising settings section of the
 490:.\Generated_Source\PSoC4/BLE_1.c ****                                     customizer.
 491:.\Generated_Source\PSoC4/BLE_1.c ****      * CYBLE_ADVERTISING_FAST   0x00u
 492:.\Generated_Source\PSoC4/BLE_1.c ****      * CYBLE_ADVERTISING_SLOW   0x01u
 493:.\Generated_Source\PSoC4/BLE_1.c ****      * CYBLE_ADVERTISING_CUSTOM 0x02u
 494:.\Generated_Source\PSoC4/BLE_1.c ****     
 495:.\Generated_Source\PSoC4/BLE_1.c ****     Return:
 496:.\Generated_Source\PSoC4/BLE_1.c ****      CYBLE_API_RESULT_T : Return value indicates if the function succeeded or
 497:.\Generated_Source\PSoC4/BLE_1.c ****      failed. Following are the possible error codes.
 498:.\Generated_Source\PSoC4/BLE_1.c ****      <table>
 499:.\Generated_Source\PSoC4/BLE_1.c ****       Errors codes                        Description
 500:.\Generated_Source\PSoC4/BLE_1.c ****       ------------                        -----------
 501:.\Generated_Source\PSoC4/BLE_1.c ****       CYBLE_ERROR_OK                      On successful operation.
 502:.\Generated_Source\PSoC4/BLE_1.c ****       CYBLE_ERROR_INVALID_PARAMETER       On passing an invalid parameter.
 503:.\Generated_Source\PSoC4/BLE_1.c ****      </table>
 504:.\Generated_Source\PSoC4/BLE_1.c ****     
 505:.\Generated_Source\PSoC4/BLE_1.c ****     ******************************************************************************/
 506:.\Generated_Source\PSoC4/BLE_1.c ****     CYBLE_API_RESULT_T CyBle_GappStartAdvertisement(uint8 advertisingIntervalType)
 507:.\Generated_Source\PSoC4/BLE_1.c ****     {
 328              		.loc 1 507 0
 329              		.cfi_startproc
 330 0000 90B5     		push	{r4, r7, lr}
 331              		.cfi_def_cfa_offset 12
 332              		.cfi_offset 4, -12
 333              		.cfi_offset 7, -8
 334              		.cfi_offset 14, -4
 335 0002 85B0     		sub	sp, sp, #20
 336              		.cfi_def_cfa_offset 32
 337 0004 00AF     		add	r7, sp, #0
 338              		.cfi_def_cfa_register 7
 339 0006 021C     		mov	r2, r0
 340 0008 FB1D     		add	r3, r7, #7
 341 000a 1A70     		strb	r2, [r3]
 508:.\Generated_Source\PSoC4/BLE_1.c ****         CYBLE_API_RESULT_T apiResult;
 509:.\Generated_Source\PSoC4/BLE_1.c ****         
 510:.\Generated_Source\PSoC4/BLE_1.c ****         if((CYBLE_STATE_DISCONNECTED == CyBle_GetState()) && ((cyBle_eventHandlerFlag & CYBLE_START
ARM GAS  C:\Users\jsing\AppData\Local\Temp\ccadTqFE.s 			page 16


 342              		.loc 1 510 0
 343 000c 294B     		ldr	r3, .L21
 344 000e 1B78     		ldrb	r3, [r3]
 345 0010 042B     		cmp	r3, #4
 346 0012 42D1     		bne	.L15
 347              		.loc 1 510 0 is_stmt 0 discriminator 1
 348 0014 284B     		ldr	r3, .L21+4
 349 0016 1B78     		ldrb	r3, [r3]
 350 0018 DBB2     		uxtb	r3, r3
 351 001a 1A1C     		mov	r2, r3
 352 001c 0423     		mov	r3, #4
 353 001e 1340     		and	r3, r2
 354 0020 3BD1     		bne	.L15
 511:.\Generated_Source\PSoC4/BLE_1.c ****         {   
 512:.\Generated_Source\PSoC4/BLE_1.c ****             if(advertisingIntervalType == CYBLE_ADVERTISING_FAST)
 355              		.loc 1 512 0 is_stmt 1
 356 0022 FB1D     		add	r3, r7, #7
 357 0024 1B78     		ldrb	r3, [r3]
 358 0026 002B     		cmp	r3, #0
 359 0028 0BD1     		bne	.L16
 513:.\Generated_Source\PSoC4/BLE_1.c ****             {
 514:.\Generated_Source\PSoC4/BLE_1.c ****                 cyBle_discoveryModeInfo.advTo = CYBLE_FAST_ADV_TIMEOUT;
 360              		.loc 1 514 0
 361 002a 244B     		ldr	r3, .L21+8
 362 002c 1E22     		mov	r2, #30
 363 002e 1A82     		strh	r2, [r3, #16]
 515:.\Generated_Source\PSoC4/BLE_1.c ****                 cyBle_discoveryModeInfo.advParam->advIntvMin = CYBLE_FAST_ADV_INT_MIN;
 364              		.loc 1 515 0
 365 0030 224B     		ldr	r3, .L21+8
 366 0032 5B68     		ldr	r3, [r3, #4]
 367 0034 2022     		mov	r2, #32
 368 0036 1A80     		strh	r2, [r3]
 516:.\Generated_Source\PSoC4/BLE_1.c ****                 cyBle_discoveryModeInfo.advParam->advIntvMax = CYBLE_FAST_ADV_INT_MAX;
 369              		.loc 1 516 0
 370 0038 204B     		ldr	r3, .L21+8
 371 003a 5B68     		ldr	r3, [r3, #4]
 372 003c 3022     		mov	r2, #48
 373 003e 5A80     		strh	r2, [r3, #2]
 374 0040 10E0     		b	.L17
 375              	.L16:
 517:.\Generated_Source\PSoC4/BLE_1.c ****             }
 518:.\Generated_Source\PSoC4/BLE_1.c ****             else if(advertisingIntervalType == CYBLE_ADVERTISING_SLOW)
 376              		.loc 1 518 0
 377 0042 FB1D     		add	r3, r7, #7
 378 0044 1B78     		ldrb	r3, [r3]
 379 0046 012B     		cmp	r3, #1
 380 0048 0CD1     		bne	.L17
 519:.\Generated_Source\PSoC4/BLE_1.c ****             {
 520:.\Generated_Source\PSoC4/BLE_1.c ****                 cyBle_discoveryModeInfo.advTo = CYBLE_SLOW_ADV_TIMEOUT;
 381              		.loc 1 520 0
 382 004a 1C4B     		ldr	r3, .L21+8
 383 004c 9622     		mov	r2, #150
 384 004e 1A82     		strh	r2, [r3, #16]
 521:.\Generated_Source\PSoC4/BLE_1.c ****                 cyBle_discoveryModeInfo.advParam->advIntvMin = CYBLE_SLOW_ADV_INT_MIN;
 385              		.loc 1 521 0
 386 0050 1A4B     		ldr	r3, .L21+8
 387 0052 5B68     		ldr	r3, [r3, #4]
ARM GAS  C:\Users\jsing\AppData\Local\Temp\ccadTqFE.s 			page 17


 388 0054 C822     		mov	r2, #200
 389 0056 D200     		lsl	r2, r2, #3
 390 0058 1A80     		strh	r2, [r3]
 522:.\Generated_Source\PSoC4/BLE_1.c ****                 cyBle_discoveryModeInfo.advParam->advIntvMax = CYBLE_SLOW_ADV_INT_MAX;
 391              		.loc 1 522 0
 392 005a 184B     		ldr	r3, .L21+8
 393 005c 5B68     		ldr	r3, [r3, #4]
 394 005e 8022     		mov	r2, #128
 395 0060 D201     		lsl	r2, r2, #7
 396 0062 5A80     		strh	r2, [r3, #2]
 397              	.L17:
 523:.\Generated_Source\PSoC4/BLE_1.c ****             }       
 524:.\Generated_Source\PSoC4/BLE_1.c ****             else /* Do not update advertising intervals */
 525:.\Generated_Source\PSoC4/BLE_1.c ****             {
 526:.\Generated_Source\PSoC4/BLE_1.c ****             }
 527:.\Generated_Source\PSoC4/BLE_1.c ****             cyBle_advertisingIntervalType = advertisingIntervalType;
 398              		.loc 1 527 0
 399 0064 164B     		ldr	r3, .L21+12
 400 0066 FA1D     		add	r2, r7, #7
 401 0068 1278     		ldrb	r2, [r2]
 402 006a 1A70     		strb	r2, [r3]
 528:.\Generated_Source\PSoC4/BLE_1.c ****             apiResult = CyBle_GappEnterDiscoveryMode(&cyBle_discoveryModeInfo);
 403              		.loc 1 528 0
 404 006c 3C1C     		mov	r4, r7
 405 006e 0E34     		add	r4, r4, #14
 406 0070 124B     		ldr	r3, .L21+8
 407 0072 181C     		mov	r0, r3
 408 0074 FFF7FEFF 		bl	CyBle_GappEnterDiscoveryMode
 409 0078 031C     		mov	r3, r0
 410 007a 2380     		strh	r3, [r4]
 529:.\Generated_Source\PSoC4/BLE_1.c ****         
 530:.\Generated_Source\PSoC4/BLE_1.c ****             if(CYBLE_ERROR_OK == apiResult)
 411              		.loc 1 530 0
 412 007c 3B1C     		mov	r3, r7
 413 007e 0E33     		add	r3, r3, #14
 414 0080 1B88     		ldrh	r3, [r3]
 415 0082 002B     		cmp	r3, #0
 416 0084 08D1     		bne	.L18
 531:.\Generated_Source\PSoC4/BLE_1.c ****             {
 532:.\Generated_Source\PSoC4/BLE_1.c ****                 cyBle_eventHandlerFlag |= CYBLE_START_FLAG;
 417              		.loc 1 532 0
 418 0086 0C4B     		ldr	r3, .L21+4
 419 0088 1B78     		ldrb	r3, [r3]
 420 008a DBB2     		uxtb	r3, r3
 421 008c 0422     		mov	r2, #4
 422 008e 1343     		orr	r3, r2
 423 0090 DAB2     		uxtb	r2, r3
 424 0092 094B     		ldr	r3, .L21+4
 425 0094 1A70     		strb	r2, [r3]
 530:.\Generated_Source\PSoC4/BLE_1.c ****             if(CYBLE_ERROR_OK == apiResult)
 426              		.loc 1 530 0
 427 0096 05E0     		b	.L19
 428              	.L18:
 530:.\Generated_Source\PSoC4/BLE_1.c ****             if(CYBLE_ERROR_OK == apiResult)
 429              		.loc 1 530 0 is_stmt 0 discriminator 1
 430 0098 04E0     		b	.L19
 431              	.L15:
ARM GAS  C:\Users\jsing\AppData\Local\Temp\ccadTqFE.s 			page 18


 533:.\Generated_Source\PSoC4/BLE_1.c ****             }
 534:.\Generated_Source\PSoC4/BLE_1.c ****         }
 535:.\Generated_Source\PSoC4/BLE_1.c ****         else
 536:.\Generated_Source\PSoC4/BLE_1.c ****         {
 537:.\Generated_Source\PSoC4/BLE_1.c ****             apiResult = CYBLE_ERROR_INVALID_STATE;
 432              		.loc 1 537 0 is_stmt 1
 433 009a 3B1C     		mov	r3, r7
 434 009c 0E33     		add	r3, r3, #14
 435 009e 8322     		mov	r2, #131
 436 00a0 5200     		lsl	r2, r2, #1
 437 00a2 1A80     		strh	r2, [r3]
 438              	.L19:
 538:.\Generated_Source\PSoC4/BLE_1.c ****         }
 539:.\Generated_Source\PSoC4/BLE_1.c **** 
 540:.\Generated_Source\PSoC4/BLE_1.c ****         return (apiResult);
 439              		.loc 1 540 0
 440 00a4 3B1C     		mov	r3, r7
 441 00a6 0E33     		add	r3, r3, #14
 442 00a8 1B88     		ldrh	r3, [r3]
 541:.\Generated_Source\PSoC4/BLE_1.c ****     }
 443              		.loc 1 541 0
 444 00aa 181C     		mov	r0, r3
 445 00ac BD46     		mov	sp, r7
 446 00ae 05B0     		add	sp, sp, #20
 447              		@ sp needed
 448 00b0 90BD     		pop	{r4, r7, pc}
 449              	.L22:
 450 00b2 C046     		.align	2
 451              	.L21:
 452 00b4 00000000 		.word	cyBle_state
 453 00b8 00000000 		.word	cyBle_eventHandlerFlag
 454 00bc 00000000 		.word	cyBle_discoveryModeInfo
 455 00c0 00000000 		.word	cyBle_advertisingIntervalType
 456              		.cfi_endproc
 457              	.LFE6:
 458              		.size	CyBle_GappStartAdvertisement, .-CyBle_GappStartAdvertisement
 459              		.section	.text.CyBle_GappStopAdvertisement,"ax",%progbits
 460              		.align	2
 461              		.global	CyBle_GappStopAdvertisement
 462              		.code	16
 463              		.thumb_func
 464              		.type	CyBle_GappStopAdvertisement, %function
 465              	CyBle_GappStopAdvertisement:
 466              	.LFB7:
 542:.\Generated_Source\PSoC4/BLE_1.c **** 
 543:.\Generated_Source\PSoC4/BLE_1.c ****     
 544:.\Generated_Source\PSoC4/BLE_1.c ****     /******************************************************************************
 545:.\Generated_Source\PSoC4/BLE_1.c ****     ##Function Name: CyBle_GappStopAdvertisement
 546:.\Generated_Source\PSoC4/BLE_1.c ****     *******************************************************************************
 547:.\Generated_Source\PSoC4/BLE_1.c ****     
 548:.\Generated_Source\PSoC4/BLE_1.c ****      Summary:
 549:.\Generated_Source\PSoC4/BLE_1.c ****       This function can be used to exit from discovery mode. After the execution 
 550:.\Generated_Source\PSoC4/BLE_1.c ****       of this function, there will no longer be any advertisements. On stopping 
 551:.\Generated_Source\PSoC4/BLE_1.c ****       advertising, GAP Peripheral receives CYBLE_EVT_GAPP_ADVERTISEMENT_START_STOP
 552:.\Generated_Source\PSoC4/BLE_1.c ****       event. It is expected that the application layer tracks the function call 
 553:.\Generated_Source\PSoC4/BLE_1.c ****       performed before occurrence of this event as this event can occur on making 
 554:.\Generated_Source\PSoC4/BLE_1.c ****       a call to Cy_BleGappStartAdvertisement(), CyBle_GappEnterDiscoveryMode(), 
ARM GAS  C:\Users\jsing\AppData\Local\Temp\ccadTqFE.s 			page 19


 555:.\Generated_Source\PSoC4/BLE_1.c ****       or CyBle_GappStartAdvertisement() functions as well.
 556:.\Generated_Source\PSoC4/BLE_1.c ****       
 557:.\Generated_Source\PSoC4/BLE_1.c ****       The following event occurs on invoking this function:
 558:.\Generated_Source\PSoC4/BLE_1.c ****       * CYBLE_EVT_GAPP_ADVERTISEMENT_START_STOP
 559:.\Generated_Source\PSoC4/BLE_1.c ****     
 560:.\Generated_Source\PSoC4/BLE_1.c ****      Parameters:
 561:.\Generated_Source\PSoC4/BLE_1.c ****       None
 562:.\Generated_Source\PSoC4/BLE_1.c ****     
 563:.\Generated_Source\PSoC4/BLE_1.c ****      Return:
 564:.\Generated_Source\PSoC4/BLE_1.c ****       None
 565:.\Generated_Source\PSoC4/BLE_1.c ****     
 566:.\Generated_Source\PSoC4/BLE_1.c ****     ******************************************************************************/
 567:.\Generated_Source\PSoC4/BLE_1.c ****     void CyBle_GappStopAdvertisement(void)
 568:.\Generated_Source\PSoC4/BLE_1.c ****     {
 467              		.loc 1 568 0
 468              		.cfi_startproc
 469 0000 80B5     		push	{r7, lr}
 470              		.cfi_def_cfa_offset 8
 471              		.cfi_offset 7, -8
 472              		.cfi_offset 14, -4
 473 0002 00AF     		add	r7, sp, #0
 474              		.cfi_def_cfa_register 7
 569:.\Generated_Source\PSoC4/BLE_1.c ****         CyBle_GappExitDiscoveryMode();
 475              		.loc 1 569 0
 476 0004 FFF7FEFF 		bl	CyBle_GappExitDiscoveryMode
 570:.\Generated_Source\PSoC4/BLE_1.c ****         cyBle_eventHandlerFlag |= CYBLE_STOP_FLAG;
 477              		.loc 1 570 0
 478 0008 044B     		ldr	r3, .L24
 479 000a 1B78     		ldrb	r3, [r3]
 480 000c DBB2     		uxtb	r3, r3
 481 000e 0822     		mov	r2, #8
 482 0010 1343     		orr	r3, r2
 483 0012 DAB2     		uxtb	r2, r3
 484 0014 014B     		ldr	r3, .L24
 485 0016 1A70     		strb	r2, [r3]
 571:.\Generated_Source\PSoC4/BLE_1.c ****     }
 486              		.loc 1 571 0
 487 0018 BD46     		mov	sp, r7
 488              		@ sp needed
 489 001a 80BD     		pop	{r7, pc}
 490              	.L25:
 491              		.align	2
 492              	.L24:
 493 001c 00000000 		.word	cyBle_eventHandlerFlag
 494              		.cfi_endproc
 495              	.LFE7:
 496              		.size	CyBle_GappStopAdvertisement, .-CyBle_GappStopAdvertisement
 497              		.section	.text.CyBle_ChangeAdDeviceAddress,"ax",%progbits
 498              		.align	2
 499              		.global	CyBle_ChangeAdDeviceAddress
 500              		.code	16
 501              		.thumb_func
 502              		.type	CyBle_ChangeAdDeviceAddress, %function
 503              	CyBle_ChangeAdDeviceAddress:
 504              	.LFB8:
 572:.\Generated_Source\PSoC4/BLE_1.c ****     
 573:.\Generated_Source\PSoC4/BLE_1.c ****     
ARM GAS  C:\Users\jsing\AppData\Local\Temp\ccadTqFE.s 			page 20


 574:.\Generated_Source\PSoC4/BLE_1.c ****     /******************************************************************************
 575:.\Generated_Source\PSoC4/BLE_1.c ****     ##Function Name: CyBle_ChangeAdDeviceAddress
 576:.\Generated_Source\PSoC4/BLE_1.c ****     *******************************************************************************
 577:.\Generated_Source\PSoC4/BLE_1.c **** 
 578:.\Generated_Source\PSoC4/BLE_1.c ****     Summary:
 579:.\Generated_Source\PSoC4/BLE_1.c ****      This API is used to set the Bluetooth device address into the advertisement 
 580:.\Generated_Source\PSoC4/BLE_1.c ****      or scan response data structure.
 581:.\Generated_Source\PSoC4/BLE_1.c **** 
 582:.\Generated_Source\PSoC4/BLE_1.c ****     Parameters:
 583:.\Generated_Source\PSoC4/BLE_1.c ****      bdAddr: Bluetooth Device address. The variable is of type CYBLE_GAP_BD_ADDR_T
 584:.\Generated_Source\PSoC4/BLE_1.c ****      uint8 dest: 0 - avrevtisement structure, not zero value selects scan response
 585:.\Generated_Source\PSoC4/BLE_1.c ****                  structure.
 586:.\Generated_Source\PSoC4/BLE_1.c **** 
 587:.\Generated_Source\PSoC4/BLE_1.c ****     Return:
 588:.\Generated_Source\PSoC4/BLE_1.c ****      None
 589:.\Generated_Source\PSoC4/BLE_1.c ****  
 590:.\Generated_Source\PSoC4/BLE_1.c ****     ******************************************************************************/
 591:.\Generated_Source\PSoC4/BLE_1.c ****     void CyBle_ChangeAdDeviceAddress(const CYBLE_GAP_BD_ADDR_T* bdAddr, uint8 dest)
 592:.\Generated_Source\PSoC4/BLE_1.c ****     {
 505              		.loc 1 592 0
 506              		.cfi_startproc
 507 0000 80B5     		push	{r7, lr}
 508              		.cfi_def_cfa_offset 8
 509              		.cfi_offset 7, -8
 510              		.cfi_offset 14, -4
 511 0002 84B0     		sub	sp, sp, #16
 512              		.cfi_def_cfa_offset 24
 513 0004 00AF     		add	r7, sp, #0
 514              		.cfi_def_cfa_register 7
 515 0006 7860     		str	r0, [r7, #4]
 516 0008 0A1C     		mov	r2, r1
 517 000a FB1C     		add	r3, r7, #3
 518 000c 1A70     		strb	r2, [r3]
 593:.\Generated_Source\PSoC4/BLE_1.c ****         uint8 i;
 594:.\Generated_Source\PSoC4/BLE_1.c ****         uint8 *destBuffer = NULL;
 519              		.loc 1 594 0
 520 000e 0023     		mov	r3, #0
 521 0010 BB60     		str	r3, [r7, #8]
 595:.\Generated_Source\PSoC4/BLE_1.c ****         
 596:.\Generated_Source\PSoC4/BLE_1.c ****         if(dest == 0u)      /* Destination - advertising structure */
 597:.\Generated_Source\PSoC4/BLE_1.c ****         {
 598:.\Generated_Source\PSoC4/BLE_1.c ****             #ifdef CYBLE_ADV_PKT_INDEX_BLUETOOTH_DEVICE_ADDRESS
 599:.\Generated_Source\PSoC4/BLE_1.c ****                 destBuffer = &cyBle_discoveryData.advData[CYBLE_ADV_PKT_INDEX_BLUETOOTH_DEVICE_ADDR
 600:.\Generated_Source\PSoC4/BLE_1.c ****             #endif /* CYBLE_ADV_PKT_INDEX_BLUETOOTH_DEVICE_ADDRESS */
 601:.\Generated_Source\PSoC4/BLE_1.c ****         }
 602:.\Generated_Source\PSoC4/BLE_1.c ****         else                /* Destination - scan response structure */
 603:.\Generated_Source\PSoC4/BLE_1.c ****         {
 604:.\Generated_Source\PSoC4/BLE_1.c ****             #ifdef CYBLE_SCN_PKT_INDEX_BLUETOOTH_DEVICE_ADDRESS
 605:.\Generated_Source\PSoC4/BLE_1.c ****                 destBuffer = &cyBle_scanRspData.scanRspData[CYBLE_SCN_PKT_INDEX_BLUETOOTH_DEVICE_AD
 606:.\Generated_Source\PSoC4/BLE_1.c ****             #endif /* CYBLE_SCN_PKT_INDEX_BLUETOOTH_DEVICE_ADDRESS */    
 607:.\Generated_Source\PSoC4/BLE_1.c ****         }
 608:.\Generated_Source\PSoC4/BLE_1.c ****         
 609:.\Generated_Source\PSoC4/BLE_1.c ****         if(destBuffer != NULL)
 522              		.loc 1 609 0
 523 0012 BB68     		ldr	r3, [r7, #8]
 524 0014 002B     		cmp	r3, #0
 525 0016 20D0     		beq	.L26
ARM GAS  C:\Users\jsing\AppData\Local\Temp\ccadTqFE.s 			page 21


 610:.\Generated_Source\PSoC4/BLE_1.c ****         {
 611:.\Generated_Source\PSoC4/BLE_1.c ****             /* Update Device Address type */
 612:.\Generated_Source\PSoC4/BLE_1.c ****             destBuffer[0u] = bdAddr->type;
 526              		.loc 1 612 0
 527 0018 7B68     		ldr	r3, [r7, #4]
 528 001a 9A79     		ldrb	r2, [r3, #6]
 529 001c BB68     		ldr	r3, [r7, #8]
 530 001e 1A70     		strb	r2, [r3]
 613:.\Generated_Source\PSoC4/BLE_1.c ****             
 614:.\Generated_Source\PSoC4/BLE_1.c ****             for(i = 0; i < CYBLE_GAP_BD_ADDR_SIZE; i++)
 531              		.loc 1 614 0
 532 0020 3B1C     		mov	r3, r7
 533 0022 0F33     		add	r3, r3, #15
 534 0024 0022     		mov	r2, #0
 535 0026 1A70     		strb	r2, [r3]
 536 0028 12E0     		b	.L28
 537              	.L29:
 615:.\Generated_Source\PSoC4/BLE_1.c ****             {
 616:.\Generated_Source\PSoC4/BLE_1.c ****                 destBuffer[i + 1u] = bdAddr->bdAddr[i];
 538              		.loc 1 616 0 discriminator 2
 539 002a 3B1C     		mov	r3, r7
 540 002c 0F33     		add	r3, r3, #15
 541 002e 1B78     		ldrb	r3, [r3]
 542 0030 0133     		add	r3, r3, #1
 543 0032 BA68     		ldr	r2, [r7, #8]
 544 0034 D318     		add	r3, r2, r3
 545 0036 3A1C     		mov	r2, r7
 546 0038 0F32     		add	r2, r2, #15
 547 003a 1278     		ldrb	r2, [r2]
 548 003c 7968     		ldr	r1, [r7, #4]
 549 003e 8A5C     		ldrb	r2, [r1, r2]
 550 0040 1A70     		strb	r2, [r3]
 614:.\Generated_Source\PSoC4/BLE_1.c ****             for(i = 0; i < CYBLE_GAP_BD_ADDR_SIZE; i++)
 551              		.loc 1 614 0 discriminator 2
 552 0042 3B1C     		mov	r3, r7
 553 0044 0F33     		add	r3, r3, #15
 554 0046 1A78     		ldrb	r2, [r3]
 555 0048 3B1C     		mov	r3, r7
 556 004a 0F33     		add	r3, r3, #15
 557 004c 0132     		add	r2, r2, #1
 558 004e 1A70     		strb	r2, [r3]
 559              	.L28:
 614:.\Generated_Source\PSoC4/BLE_1.c ****             for(i = 0; i < CYBLE_GAP_BD_ADDR_SIZE; i++)
 560              		.loc 1 614 0 is_stmt 0 discriminator 1
 561 0050 3B1C     		mov	r3, r7
 562 0052 0F33     		add	r3, r3, #15
 563 0054 1B78     		ldrb	r3, [r3]
 564 0056 052B     		cmp	r3, #5
 565 0058 E7D9     		bls	.L29
 566              	.L26:
 617:.\Generated_Source\PSoC4/BLE_1.c ****             }
 618:.\Generated_Source\PSoC4/BLE_1.c ****         }
 619:.\Generated_Source\PSoC4/BLE_1.c ****     }
 567              		.loc 1 619 0 is_stmt 1
 568 005a BD46     		mov	sp, r7
 569 005c 04B0     		add	sp, sp, #16
 570              		@ sp needed
ARM GAS  C:\Users\jsing\AppData\Local\Temp\ccadTqFE.s 			page 22


 571 005e 80BD     		pop	{r7, pc}
 572              		.cfi_endproc
 573              	.LFE8:
 574              		.size	CyBle_ChangeAdDeviceAddress, .-CyBle_ChangeAdDeviceAddress
 575              		.section	.text.CyBle_ChangeAdLocalName,"ax",%progbits
 576              		.align	2
 577              		.code	16
 578              		.thumb_func
 579              		.type	CyBle_ChangeAdLocalName, %function
 580              	CyBle_ChangeAdLocalName:
 581              	.LFB9:
 620:.\Generated_Source\PSoC4/BLE_1.c ****   
 621:.\Generated_Source\PSoC4/BLE_1.c **** #endif /* CYBLE_GAP_ROLE_PERIPHERAL || CYBLE_GAP_ROLE_BROADCASTER */
 622:.\Generated_Source\PSoC4/BLE_1.c **** 
 623:.\Generated_Source\PSoC4/BLE_1.c **** 
 624:.\Generated_Source\PSoC4/BLE_1.c **** #if(CYBLE_GAP_ROLE_CENTRAL || CYBLE_GAP_ROLE_OBSERVER)
 625:.\Generated_Source\PSoC4/BLE_1.c **** 
 626:.\Generated_Source\PSoC4/BLE_1.c ****     /******************************************************************************
 627:.\Generated_Source\PSoC4/BLE_1.c ****     ##Function Name: CyBle_GapcStartScan
 628:.\Generated_Source\PSoC4/BLE_1.c ****     *******************************************************************************
 629:.\Generated_Source\PSoC4/BLE_1.c ****     
 630:.\Generated_Source\PSoC4/BLE_1.c ****      Summary:
 631:.\Generated_Source\PSoC4/BLE_1.c ****       This function is used for discovering GAP peripheral devices that are 
 632:.\Generated_Source\PSoC4/BLE_1.c ****       available for connection. It performs the scanning routine using the 
 633:.\Generated_Source\PSoC4/BLE_1.c ****       parameters entered in the component's customizer.
 634:.\Generated_Source\PSoC4/BLE_1.c ****       
 635:.\Generated_Source\PSoC4/BLE_1.c ****       As soon as the discovery operation starts, CYBLE_EVT_GAPC_SCAN_START_STOP 
 636:.\Generated_Source\PSoC4/BLE_1.c ****       event is generated. The CYBLE_EVT_GAPC_SCAN_PROGRESS_RESULT event is 
 637:.\Generated_Source\PSoC4/BLE_1.c ****       generated when a GAP peripheral device is located. There are three discovery
 638:.\Generated_Source\PSoC4/BLE_1.c ****       procedures can be selected in the customizer's GUI:
 639:.\Generated_Source\PSoC4/BLE_1.c ****       
 640:.\Generated_Source\PSoC4/BLE_1.c ****       * Observation procedure: A device performing the observer role receives only
 641:.\Generated_Source\PSoC4/BLE_1.c ****                                advertisement data from devices irrespective of 
 642:.\Generated_Source\PSoC4/BLE_1.c ****                                their discoverable mode settings. Advertisement 
 643:.\Generated_Source\PSoC4/BLE_1.c ****                                data received is provided by the event,      
 644:.\Generated_Source\PSoC4/BLE_1.c ****                                CYBLE_EVT_GAPC_SCAN_PROGRESS_RESULT. This procedure
 645:.\Generated_Source\PSoC4/BLE_1.c ****                                requires the scanType sub parameter to be passive
 646:.\Generated_Source\PSoC4/BLE_1.c ****                                scanning. 
 647:.\Generated_Source\PSoC4/BLE_1.c ****       
 648:.\Generated_Source\PSoC4/BLE_1.c ****       * Limited Discovery procedure: A device performing the limited discovery
 649:.\Generated_Source\PSoC4/BLE_1.c ****                                      procedure receives advertisement data and 
 650:.\Generated_Source\PSoC4/BLE_1.c ****                                      scan# response data from devices in the 
 651:.\Generated_Source\PSoC4/BLE_1.c ****                                      limited discoverable mode only. Received data
 652:.\Generated_Source\PSoC4/BLE_1.c ****                                      is provided by the event, 
 653:.\Generated_Source\PSoC4/BLE_1.c ****                                      CYBLE_EVT_GAPC_SCAN_PROGRESS_RESULT. This 
 654:.\Generated_Source\PSoC4/BLE_1.c ****                                      procedure requires the scanType sub-parameter 
 655:.\Generated_Source\PSoC4/BLE_1.c ****                                      to be active scanning.
 656:.\Generated_Source\PSoC4/BLE_1.c ****       
 657:.\Generated_Source\PSoC4/BLE_1.c ****       * General Discovery procedure: A device performing the general discovery 
 658:.\Generated_Source\PSoC4/BLE_1.c ****                                      procedure receives the advertisement data and
 659:.\Generated_Source\PSoC4/BLE_1.c ****                                      scan response data from devices in both 
 660:.\Generated_Source\PSoC4/BLE_1.c ****                                      limited discoverable mode and the general 
 661:.\Generated_Source\PSoC4/BLE_1.c ****                                      discoverable mode. Received data is provided
 662:.\Generated_Source\PSoC4/BLE_1.c ****                                      by the event,
 663:.\Generated_Source\PSoC4/BLE_1.c ****                                      CYBLE_EVT_GAPC_SCAN_PROGRESS_RESULT. This 
 664:.\Generated_Source\PSoC4/BLE_1.c ****                                      procedure requires the scanType sub-parameter
 665:.\Generated_Source\PSoC4/BLE_1.c ****                                      to be active scanning.
ARM GAS  C:\Users\jsing\AppData\Local\Temp\ccadTqFE.s 			page 23


 666:.\Generated_Source\PSoC4/BLE_1.c ****       
 667:.\Generated_Source\PSoC4/BLE_1.c ****       Every Advertisement / Scan response packet received results in a new event, 
 668:.\Generated_Source\PSoC4/BLE_1.c ****       CYBLE_EVT_GAPC_SCAN_PROGRESS_RESULT.
 669:.\Generated_Source\PSoC4/BLE_1.c ****       If 'scanTo' sub-parameter is a non-zero value, then upon commencement of 
 670:.\Generated_Source\PSoC4/BLE_1.c ****       discovery procedure and elapsed time = 'scanTo', CYBLE_EVT_TIMEOUT event
 671:.\Generated_Source\PSoC4/BLE_1.c ****       is generated with the event parameter indicating CYBLE_GAP_SCAN_TO.
 672:.\Generated_Source\PSoC4/BLE_1.c ****       Possible generated events are:
 673:.\Generated_Source\PSoC4/BLE_1.c ****       * CYBLE_EVT_GAPC_SCAN_START_STOP: If a device started or stopped scanning. 
 674:.\Generated_Source\PSoC4/BLE_1.c ****                                         Use CyBle_GetState() to determine the 
 675:.\Generated_Source\PSoC4/BLE_1.c ****                                         state. Sequential scanning could be 
 676:.\Generated_Source\PSoC4/BLE_1.c ****                                         started when CYBLE_STATE_DISCONNECTED 
 677:.\Generated_Source\PSoC4/BLE_1.c ****                                         state is returned. 
 678:.\Generated_Source\PSoC4/BLE_1.c ****       * CYBLE_EVT_GAPC_SCAN_PROGRESS_RESULT 
 679:.\Generated_Source\PSoC4/BLE_1.c ****       * CYBLE_EVT_TIMEOUT (CYBLE_GAP_SCAN_TO)
 680:.\Generated_Source\PSoC4/BLE_1.c ****     
 681:.\Generated_Source\PSoC4/BLE_1.c ****      Parameters:
 682:.\Generated_Source\PSoC4/BLE_1.c ****       uint8 scanningIntervalType:  Fast or slow scanning interval with
 683:.\Generated_Source\PSoC4/BLE_1.c ****           timings entered in Scan settings section of the customiser.
 684:.\Generated_Source\PSoC4/BLE_1.c ****     	  * CYBLE_SCANNING_FAST   0x00u
 685:.\Generated_Source\PSoC4/BLE_1.c ****     	  * CYBLE_SCANNING_SLOW   0x01u
 686:.\Generated_Source\PSoC4/BLE_1.c ****     	  * CYBLE_SCANNING_CUSTOM 0x02u
 687:.\Generated_Source\PSoC4/BLE_1.c ****     
 688:.\Generated_Source\PSoC4/BLE_1.c ****     Return:
 689:.\Generated_Source\PSoC4/BLE_1.c ****      CYBLE_API_RESULT_T : Return value indicates if the function succeeded or
 690:.\Generated_Source\PSoC4/BLE_1.c ****      failed. Following are the possible error codes.
 691:.\Generated_Source\PSoC4/BLE_1.c ****      <table>
 692:.\Generated_Source\PSoC4/BLE_1.c ****       Errors codes                        Values  Description
 693:.\Generated_Source\PSoC4/BLE_1.c ****       ------------                        ------  -----------
 694:.\Generated_Source\PSoC4/BLE_1.c ****       CYBLE_ERROR_OK                      0x0000  On successful operation.
 695:.\Generated_Source\PSoC4/BLE_1.c ****       CYBLE_ERROR_STACK_INTERNAL          0x0003  An error occurred in the 
 696:.\Generated_Source\PSoC4/BLE_1.c ****                                                    BLE stack.
 697:.\Generated_Source\PSoC4/BLE_1.c ****      </table>
 698:.\Generated_Source\PSoC4/BLE_1.c ****      
 699:.\Generated_Source\PSoC4/BLE_1.c ****     ******************************************************************************/
 700:.\Generated_Source\PSoC4/BLE_1.c ****     CYBLE_API_RESULT_T CyBle_GapcStartScan(uint8 scanningIntervalType)
 701:.\Generated_Source\PSoC4/BLE_1.c ****     {
 702:.\Generated_Source\PSoC4/BLE_1.c ****         CYBLE_API_RESULT_T apiResult;
 703:.\Generated_Source\PSoC4/BLE_1.c **** 
 704:.\Generated_Source\PSoC4/BLE_1.c ****         if(scanningIntervalType == CYBLE_SCANNING_FAST)
 705:.\Generated_Source\PSoC4/BLE_1.c ****         {
 706:.\Generated_Source\PSoC4/BLE_1.c ****             cyBle_discoveryInfo.scanTo = CYBLE_FAST_SCAN_TIMEOUT;
 707:.\Generated_Source\PSoC4/BLE_1.c ****             cyBle_discoveryInfo.scanIntv = CYBLE_FAST_SCAN_INTERVAL;
 708:.\Generated_Source\PSoC4/BLE_1.c ****             cyBle_discoveryInfo.scanWindow = CYBLE_FAST_SCAN_WINDOW;
 709:.\Generated_Source\PSoC4/BLE_1.c ****         }
 710:.\Generated_Source\PSoC4/BLE_1.c ****         else if(scanningIntervalType == CYBLE_SCANNING_SLOW)
 711:.\Generated_Source\PSoC4/BLE_1.c ****         {
 712:.\Generated_Source\PSoC4/BLE_1.c ****             cyBle_discoveryInfo.scanTo = CYBLE_SLOW_SCAN_TIMEOUT;
 713:.\Generated_Source\PSoC4/BLE_1.c ****             cyBle_discoveryInfo.scanIntv = CYBLE_SLOW_SCAN_INTERVAL;
 714:.\Generated_Source\PSoC4/BLE_1.c ****             cyBle_discoveryInfo.scanWindow = CYBLE_SLOW_SCAN_WINDOW;
 715:.\Generated_Source\PSoC4/BLE_1.c ****         }       
 716:.\Generated_Source\PSoC4/BLE_1.c ****         else /* Do not update scanning intervals */
 717:.\Generated_Source\PSoC4/BLE_1.c ****         {
 718:.\Generated_Source\PSoC4/BLE_1.c ****         }
 719:.\Generated_Source\PSoC4/BLE_1.c ****         
 720:.\Generated_Source\PSoC4/BLE_1.c ****         cyBle_scanningIntervalType = scanningIntervalType;
 721:.\Generated_Source\PSoC4/BLE_1.c ****         apiResult = CyBle_GapcStartDiscovery(&cyBle_discoveryInfo);
 722:.\Generated_Source\PSoC4/BLE_1.c ****     
ARM GAS  C:\Users\jsing\AppData\Local\Temp\ccadTqFE.s 			page 24


 723:.\Generated_Source\PSoC4/BLE_1.c ****         if(CYBLE_ERROR_OK == apiResult)
 724:.\Generated_Source\PSoC4/BLE_1.c ****         {
 725:.\Generated_Source\PSoC4/BLE_1.c ****             cyBle_eventHandlerFlag |= CYBLE_START_FLAG;
 726:.\Generated_Source\PSoC4/BLE_1.c ****         }
 727:.\Generated_Source\PSoC4/BLE_1.c ****        
 728:.\Generated_Source\PSoC4/BLE_1.c ****         return (apiResult);
 729:.\Generated_Source\PSoC4/BLE_1.c ****     }
 730:.\Generated_Source\PSoC4/BLE_1.c ****     
 731:.\Generated_Source\PSoC4/BLE_1.c ****     
 732:.\Generated_Source\PSoC4/BLE_1.c ****     /******************************************************************************
 733:.\Generated_Source\PSoC4/BLE_1.c ****     ##Function Name: CyBle_GapcStopScan
 734:.\Generated_Source\PSoC4/BLE_1.c ****     *******************************************************************************
 735:.\Generated_Source\PSoC4/BLE_1.c ****     
 736:.\Generated_Source\PSoC4/BLE_1.c ****      Summary:
 737:.\Generated_Source\PSoC4/BLE_1.c ****       This function used to stop the discovery of devices. On stopping discovery
 738:.\Generated_Source\PSoC4/BLE_1.c ****       operation, CYBLE_EVT_GAPC_SCAN_START_STOP event is generated. Application
 739:.\Generated_Source\PSoC4/BLE_1.c ****       layer needs to keep track of the function call made before receiving this
 740:.\Generated_Source\PSoC4/BLE_1.c ****       event to associate this event with either the start or stop discovery
 741:.\Generated_Source\PSoC4/BLE_1.c ****       function.
 742:.\Generated_Source\PSoC4/BLE_1.c ****     
 743:.\Generated_Source\PSoC4/BLE_1.c ****       Possible events generated are:
 744:.\Generated_Source\PSoC4/BLE_1.c ****        * CYBLE_EVT_GAPC_SCAN_START_STOP
 745:.\Generated_Source\PSoC4/BLE_1.c ****     
 746:.\Generated_Source\PSoC4/BLE_1.c ****      Parameters:
 747:.\Generated_Source\PSoC4/BLE_1.c ****       None
 748:.\Generated_Source\PSoC4/BLE_1.c ****     
 749:.\Generated_Source\PSoC4/BLE_1.c ****      Return:
 750:.\Generated_Source\PSoC4/BLE_1.c ****       None
 751:.\Generated_Source\PSoC4/BLE_1.c ****     
 752:.\Generated_Source\PSoC4/BLE_1.c ****     ******************************************************************************/
 753:.\Generated_Source\PSoC4/BLE_1.c ****     void CyBle_GapcStopScan(void)
 754:.\Generated_Source\PSoC4/BLE_1.c ****     {
 755:.\Generated_Source\PSoC4/BLE_1.c ****         CyBle_GapcStopDiscovery();
 756:.\Generated_Source\PSoC4/BLE_1.c ****         
 757:.\Generated_Source\PSoC4/BLE_1.c ****         cyBle_eventHandlerFlag |= CYBLE_STOP_FLAG;
 758:.\Generated_Source\PSoC4/BLE_1.c ****     }
 759:.\Generated_Source\PSoC4/BLE_1.c **** 
 760:.\Generated_Source\PSoC4/BLE_1.c ****     
 761:.\Generated_Source\PSoC4/BLE_1.c **** #endif /* CYBLE_GAP_ROLE_CENTRAL || CYBLE_GAP_ROLE_OBSERVER */
 762:.\Generated_Source\PSoC4/BLE_1.c **** 
 763:.\Generated_Source\PSoC4/BLE_1.c **** 
 764:.\Generated_Source\PSoC4/BLE_1.c **** #if(CYBLE_GAP_ROLE_CENTRAL)
 765:.\Generated_Source\PSoC4/BLE_1.c **** 
 766:.\Generated_Source\PSoC4/BLE_1.c ****     /******************************************************************************
 767:.\Generated_Source\PSoC4/BLE_1.c ****     ##Function Name: CyBle_GapcConnectDevice
 768:.\Generated_Source\PSoC4/BLE_1.c ****     *******************************************************************************
 769:.\Generated_Source\PSoC4/BLE_1.c ****     
 770:.\Generated_Source\PSoC4/BLE_1.c ****     Summary:
 771:.\Generated_Source\PSoC4/BLE_1.c ****      This function is used to send a connection request to the remote device with
 772:.\Generated_Source\PSoC4/BLE_1.c ****      the connection parameters set in the component customizer. This function needs
 773:.\Generated_Source\PSoC4/BLE_1.c ****      to be called only once after the target device is discovered by 
 774:.\Generated_Source\PSoC4/BLE_1.c ****      CyBle_GapcStartScan() and further scanning has stopped. Scanning is 
 775:.\Generated_Source\PSoC4/BLE_1.c ****      successfully stopped on invoking CyBle_GapcStopScan() and then receiving the
 776:.\Generated_Source\PSoC4/BLE_1.c ****      event CYBLE_EVT_GAPC_SCAN_START_STOP with sub-parameter 'success' = 0x01u.
 777:.\Generated_Source\PSoC4/BLE_1.c ****      
 778:.\Generated_Source\PSoC4/BLE_1.c ****      On successful connection, the following events are generated at the GAP 
 779:.\Generated_Source\PSoC4/BLE_1.c ****      Central device (as well as the GAP Peripheral device), in the following order.
ARM GAS  C:\Users\jsing\AppData\Local\Temp\ccadTqFE.s 			page 25


 780:.\Generated_Source\PSoC4/BLE_1.c ****      * CYBLE_EVT_GATT_CONNECT_IND
 781:.\Generated_Source\PSoC4/BLE_1.c ****      * CYBLE_EVT_GAP_DEVICE_CONNECTED
 782:.\Generated_Source\PSoC4/BLE_1.c ****  
 783:.\Generated_Source\PSoC4/BLE_1.c ****      A procedure is considered to have timed out if a connection response packet is 
 784:.\Generated_Source\PSoC4/BLE_1.c ****      not received within time set by cyBle_connectingTimeout global variable
 785:.\Generated_Source\PSoC4/BLE_1.c ****      (30 seconds by default). CYBLE_EVT_TIMEOUT event with CYBLE_GENERIC_TO parameter
 786:.\Generated_Source\PSoC4/BLE_1.c ****      will indicate about connection procedure timeout. Connection will automatically
 787:.\Generated_Source\PSoC4/BLE_1.c ****      be cancelled and state will be changed to CYBLE_STATE_DISCONNECTED.
 788:.\Generated_Source\PSoC4/BLE_1.c ****     
 789:.\Generated_Source\PSoC4/BLE_1.c ****     Parameters:
 790:.\Generated_Source\PSoC4/BLE_1.c ****      const CYBLE_GAP_BD_ADDR_T address: The device address of the remote device to 
 791:.\Generated_Source\PSoC4/BLE_1.c ****                                         connect to. 
 792:.\Generated_Source\PSoC4/BLE_1.c ****      timeout: Timeout for which timer to be started in seconds.
 793:.\Generated_Source\PSoC4/BLE_1.c ****  
 794:.\Generated_Source\PSoC4/BLE_1.c ****     Return:
 795:.\Generated_Source\PSoC4/BLE_1.c ****      CYBLE_API_RESULT_T : Return value indicates if the function succeeded or 
 796:.\Generated_Source\PSoC4/BLE_1.c ****      failed. Following are the possible error codes.
 797:.\Generated_Source\PSoC4/BLE_1.c ****      <table>
 798:.\Generated_Source\PSoC4/BLE_1.c ****       Errors codes                        Description
 799:.\Generated_Source\PSoC4/BLE_1.c ****       ------------                        -----------
 800:.\Generated_Source\PSoC4/BLE_1.c ****       CYBLE_ERROR_OK                      On successful operation.
 801:.\Generated_Source\PSoC4/BLE_1.c ****       CYBLE_ERROR_STACK_INTERNAL          On error occurred in the 
 802:.\Generated_Source\PSoC4/BLE_1.c ****                                            BLE stack.
 803:.\Generated_Source\PSoC4/BLE_1.c ****       CYBLE_ERROR_INVALID_PARAMETER       On specifying NULL as input
 804:.\Generated_Source\PSoC4/BLE_1.c ****                                            parameter for 'scanInfo' or if
 805:.\Generated_Source\PSoC4/BLE_1.c ****                                            any element with in 'scanInfo'
 806:.\Generated_Source\PSoC4/BLE_1.c ****                                            has an invalid value.
 807:.\Generated_Source\PSoC4/BLE_1.c ****      </table>
 808:.\Generated_Source\PSoC4/BLE_1.c ****  
 809:.\Generated_Source\PSoC4/BLE_1.c ****     ******************************************************************************/
 810:.\Generated_Source\PSoC4/BLE_1.c ****     CYBLE_API_RESULT_T CyBle_GapcConnectDevice(const CYBLE_GAP_BD_ADDR_T * address)
 811:.\Generated_Source\PSoC4/BLE_1.c ****     {
 812:.\Generated_Source\PSoC4/BLE_1.c ****         CYBLE_API_RESULT_T apiResult;
 813:.\Generated_Source\PSoC4/BLE_1.c ****         uint8 i;
 814:.\Generated_Source\PSoC4/BLE_1.c **** 
 815:.\Generated_Source\PSoC4/BLE_1.c ****         if(CYBLE_STATE_DISCONNECTED != CyBle_GetState())
 816:.\Generated_Source\PSoC4/BLE_1.c ****         {
 817:.\Generated_Source\PSoC4/BLE_1.c ****             apiResult = CYBLE_ERROR_INVALID_STATE;
 818:.\Generated_Source\PSoC4/BLE_1.c ****         }
 819:.\Generated_Source\PSoC4/BLE_1.c ****         else if(address == NULL)
 820:.\Generated_Source\PSoC4/BLE_1.c ****         {
 821:.\Generated_Source\PSoC4/BLE_1.c ****             apiResult = CYBLE_ERROR_INVALID_PARAMETER;
 822:.\Generated_Source\PSoC4/BLE_1.c ****         }
 823:.\Generated_Source\PSoC4/BLE_1.c ****         else
 824:.\Generated_Source\PSoC4/BLE_1.c ****         {
 825:.\Generated_Source\PSoC4/BLE_1.c ****             for(i = 0u; i < CYBLE_GAP_BD_ADDR_SIZE; i++)
 826:.\Generated_Source\PSoC4/BLE_1.c ****             {
 827:.\Generated_Source\PSoC4/BLE_1.c ****                 cyBle_connectionParameters.peerBdAddr[i] = address->bdAddr[i];
 828:.\Generated_Source\PSoC4/BLE_1.c ****             }
 829:.\Generated_Source\PSoC4/BLE_1.c ****             cyBle_connectionParameters.peerAddrType = address -> type;
 830:.\Generated_Source\PSoC4/BLE_1.c ****             apiResult = CyBle_GapcInitConnection(&cyBle_connectionParameters);
 831:.\Generated_Source\PSoC4/BLE_1.c ****             
 832:.\Generated_Source\PSoC4/BLE_1.c ****             if(CYBLE_ERROR_OK == apiResult)
 833:.\Generated_Source\PSoC4/BLE_1.c ****             {
 834:.\Generated_Source\PSoC4/BLE_1.c ****                 CyBle_SetState(CYBLE_STATE_CONNECTING);
 835:.\Generated_Source\PSoC4/BLE_1.c ****                 if(cyBle_connectingTimeout != 0u)
 836:.\Generated_Source\PSoC4/BLE_1.c ****                 {
ARM GAS  C:\Users\jsing\AppData\Local\Temp\ccadTqFE.s 			page 26


 837:.\Generated_Source\PSoC4/BLE_1.c ****                     (void)CyBle_StartTimer(cyBle_connectingTimeout);
 838:.\Generated_Source\PSoC4/BLE_1.c ****                 }
 839:.\Generated_Source\PSoC4/BLE_1.c ****             }
 840:.\Generated_Source\PSoC4/BLE_1.c ****         }
 841:.\Generated_Source\PSoC4/BLE_1.c ****         return (apiResult);
 842:.\Generated_Source\PSoC4/BLE_1.c ****     }
 843:.\Generated_Source\PSoC4/BLE_1.c ****     
 844:.\Generated_Source\PSoC4/BLE_1.c **** 
 845:.\Generated_Source\PSoC4/BLE_1.c ****     /******************************************************************************
 846:.\Generated_Source\PSoC4/BLE_1.c ****     ##Function Name: CyBle_GapcCancelDeviceConnection
 847:.\Generated_Source\PSoC4/BLE_1.c ****     *******************************************************************************
 848:.\Generated_Source\PSoC4/BLE_1.c ****     
 849:.\Generated_Source\PSoC4/BLE_1.c ****     Summary:
 850:.\Generated_Source\PSoC4/BLE_1.c ****      This function cancels a previously initiated connection with the remote 
 851:.\Generated_Source\PSoC4/BLE_1.c ****      device. It is a blocking function. No event is generated on calling this 
 852:.\Generated_Source\PSoC4/BLE_1.c ****      function. If the devices are already connected then this function should not
 853:.\Generated_Source\PSoC4/BLE_1.c ****      be used. If you intend to disconnect from an existing connection, the function
 854:.\Generated_Source\PSoC4/BLE_1.c ****      CyBle_GapDisconnect() should be used.
 855:.\Generated_Source\PSoC4/BLE_1.c **** 
 856:.\Generated_Source\PSoC4/BLE_1.c ****     Parameters:
 857:.\Generated_Source\PSoC4/BLE_1.c ****      None
 858:.\Generated_Source\PSoC4/BLE_1.c **** 
 859:.\Generated_Source\PSoC4/BLE_1.c ****     Return:
 860:.\Generated_Source\PSoC4/BLE_1.c ****      CYBLE_API_RESULT_T : Return value indicates if the function succeeded or 
 861:.\Generated_Source\PSoC4/BLE_1.c ****      failed. Following are the possible error codes.
 862:.\Generated_Source\PSoC4/BLE_1.c ****      <table>
 863:.\Generated_Source\PSoC4/BLE_1.c ****       Errors codes                        Description
 864:.\Generated_Source\PSoC4/BLE_1.c ****       ------------                        -----------
 865:.\Generated_Source\PSoC4/BLE_1.c ****       CYBLE_ERROR_OK                      On successful operation.
 866:.\Generated_Source\PSoC4/BLE_1.c ****       CYBLE_ERROR_STACK_INTERNAL          An error occurred in the 
 867:.\Generated_Source\PSoC4/BLE_1.c ****                                            BLE stack.
 868:.\Generated_Source\PSoC4/BLE_1.c ****       CYBLE_ERROR_INVALID_OPERATION       Device is already connected.
 869:.\Generated_Source\PSoC4/BLE_1.c ****      </table>
 870:.\Generated_Source\PSoC4/BLE_1.c ****  
 871:.\Generated_Source\PSoC4/BLE_1.c ****     ******************************************************************************/
 872:.\Generated_Source\PSoC4/BLE_1.c ****     CYBLE_API_RESULT_T CyBle_GapcCancelDeviceConnection(void)
 873:.\Generated_Source\PSoC4/BLE_1.c ****     {
 874:.\Generated_Source\PSoC4/BLE_1.c ****         CYBLE_API_RESULT_T apiResult;
 875:.\Generated_Source\PSoC4/BLE_1.c ****         
 876:.\Generated_Source\PSoC4/BLE_1.c ****         apiResult = CyBle_GapcCancelConnection();
 877:.\Generated_Source\PSoC4/BLE_1.c ****             
 878:.\Generated_Source\PSoC4/BLE_1.c ****         if(cyBle_connectingTimeout != 0u)
 879:.\Generated_Source\PSoC4/BLE_1.c ****         {
 880:.\Generated_Source\PSoC4/BLE_1.c ****             (void)CyBle_StopTimer();
 881:.\Generated_Source\PSoC4/BLE_1.c ****         }
 882:.\Generated_Source\PSoC4/BLE_1.c **** 
 883:.\Generated_Source\PSoC4/BLE_1.c ****         if(CYBLE_ERROR_OK == apiResult)
 884:.\Generated_Source\PSoC4/BLE_1.c ****         {
 885:.\Generated_Source\PSoC4/BLE_1.c ****             CyBle_SetState(CYBLE_STATE_DISCONNECTED);
 886:.\Generated_Source\PSoC4/BLE_1.c ****         }
 887:.\Generated_Source\PSoC4/BLE_1.c ****         return (apiResult);
 888:.\Generated_Source\PSoC4/BLE_1.c ****     }    
 889:.\Generated_Source\PSoC4/BLE_1.c **** 
 890:.\Generated_Source\PSoC4/BLE_1.c ****     
 891:.\Generated_Source\PSoC4/BLE_1.c **** #endif /* CYBLE_GAP_ROLE_CENTRAL */
 892:.\Generated_Source\PSoC4/BLE_1.c **** 
 893:.\Generated_Source\PSoC4/BLE_1.c **** 
ARM GAS  C:\Users\jsing\AppData\Local\Temp\ccadTqFE.s 			page 27


 894:.\Generated_Source\PSoC4/BLE_1.c **** #if(CYBLE_GATT_ROLE_SERVER)
 895:.\Generated_Source\PSoC4/BLE_1.c **** 
 896:.\Generated_Source\PSoC4/BLE_1.c **** #if(CYBLE_GAP_ROLE_PERIPHERAL)
 897:.\Generated_Source\PSoC4/BLE_1.c **** 
 898:.\Generated_Source\PSoC4/BLE_1.c ****         /******************************************************************************
 899:.\Generated_Source\PSoC4/BLE_1.c ****         ##Function Name: CyBle_ChangeAdLocalName
 900:.\Generated_Source\PSoC4/BLE_1.c ****         *******************************************************************************
 901:.\Generated_Source\PSoC4/BLE_1.c ****         Summary:
 902:.\Generated_Source\PSoC4/BLE_1.c ****          This API is used to set the local device name in the advertisement or scan 
 903:.\Generated_Source\PSoC4/BLE_1.c ****          response data structure.
 904:.\Generated_Source\PSoC4/BLE_1.c **** 
 905:.\Generated_Source\PSoC4/BLE_1.c ****         Parameters:
 906:.\Generated_Source\PSoC4/BLE_1.c ****          char8 name: The local device name string to be set in advertisement data 
 907:.\Generated_Source\PSoC4/BLE_1.c ****                    structure.
 908:.\Generated_Source\PSoC4/BLE_1.c ****          uint8 dest: 0 - avrevtisement structure, not zero value selects scan response
 909:.\Generated_Source\PSoC4/BLE_1.c ****                      structure.
 910:.\Generated_Source\PSoC4/BLE_1.c **** 
 911:.\Generated_Source\PSoC4/BLE_1.c ****         Return:
 912:.\Generated_Source\PSoC4/BLE_1.c ****          None
 913:.\Generated_Source\PSoC4/BLE_1.c ****      
 914:.\Generated_Source\PSoC4/BLE_1.c ****         ******************************************************************************/
 915:.\Generated_Source\PSoC4/BLE_1.c ****         static void CyBle_ChangeAdLocalName(const char8 name[], uint8 dest)
 916:.\Generated_Source\PSoC4/BLE_1.c ****         {
 582              		.loc 1 916 0
 583              		.cfi_startproc
 584 0000 80B5     		push	{r7, lr}
 585              		.cfi_def_cfa_offset 8
 586              		.cfi_offset 7, -8
 587              		.cfi_offset 14, -4
 588 0002 86B0     		sub	sp, sp, #24
 589              		.cfi_def_cfa_offset 32
 590 0004 00AF     		add	r7, sp, #0
 591              		.cfi_def_cfa_register 7
 592 0006 7860     		str	r0, [r7, #4]
 593 0008 0A1C     		mov	r2, r1
 594 000a FB1C     		add	r3, r7, #3
 595 000c 1A70     		strb	r2, [r3]
 917:.\Generated_Source\PSoC4/BLE_1.c ****             uint8 i;
 918:.\Generated_Source\PSoC4/BLE_1.c ****             uint8 flag = 0u;
 596              		.loc 1 918 0
 597 000e 3B1C     		mov	r3, r7
 598 0010 1633     		add	r3, r3, #22
 599 0012 0022     		mov	r2, #0
 600 0014 1A70     		strb	r2, [r3]
 919:.\Generated_Source\PSoC4/BLE_1.c ****             uint8 adLength = 0u;
 601              		.loc 1 919 0
 602 0016 3B1C     		mov	r3, r7
 603 0018 1533     		add	r3, r3, #21
 604 001a 0022     		mov	r2, #0
 605 001c 1A70     		strb	r2, [r3]
 920:.\Generated_Source\PSoC4/BLE_1.c ****             uint8 byteCounter = 0u;
 606              		.loc 1 920 0
 607 001e 3B1C     		mov	r3, r7
 608 0020 1433     		add	r3, r3, #20
 609 0022 0022     		mov	r2, #0
 610 0024 1A70     		strb	r2, [r3]
 921:.\Generated_Source\PSoC4/BLE_1.c ****             uint8 *destBuffer;
ARM GAS  C:\Users\jsing\AppData\Local\Temp\ccadTqFE.s 			page 28


 922:.\Generated_Source\PSoC4/BLE_1.c ****             uint8 maxLength;
 923:.\Generated_Source\PSoC4/BLE_1.c ****             
 924:.\Generated_Source\PSoC4/BLE_1.c ****             if(dest == 0u)      /* Destination - advertising structure */
 611              		.loc 1 924 0
 612 0026 FB1C     		add	r3, r7, #3
 613 0028 1B78     		ldrb	r3, [r3]
 614 002a 002B     		cmp	r3, #0
 615 002c 07D1     		bne	.L31
 925:.\Generated_Source\PSoC4/BLE_1.c ****             {
 926:.\Generated_Source\PSoC4/BLE_1.c ****                 destBuffer = cyBle_discoveryData.advData;
 616              		.loc 1 926 0
 617 002e 5A4B     		ldr	r3, .L46
 618 0030 3B61     		str	r3, [r7, #16]
 927:.\Generated_Source\PSoC4/BLE_1.c ****                 maxLength = cyBle_discoveryData.advDataLen;
 619              		.loc 1 927 0
 620 0032 3B1C     		mov	r3, r7
 621 0034 0F33     		add	r3, r3, #15
 622 0036 584A     		ldr	r2, .L46
 623 0038 D27F     		ldrb	r2, [r2, #31]
 624 003a 1A70     		strb	r2, [r3]
 928:.\Generated_Source\PSoC4/BLE_1.c ****             }
 929:.\Generated_Source\PSoC4/BLE_1.c ****             else                /* Destination - scan response structure */
 930:.\Generated_Source\PSoC4/BLE_1.c ****             {
 931:.\Generated_Source\PSoC4/BLE_1.c ****                 destBuffer = cyBle_scanRspData.scanRspData;
 932:.\Generated_Source\PSoC4/BLE_1.c ****                 maxLength = cyBle_scanRspData.scanRspDataLen;
 933:.\Generated_Source\PSoC4/BLE_1.c ****             }
 934:.\Generated_Source\PSoC4/BLE_1.c ****             
 935:.\Generated_Source\PSoC4/BLE_1.c ****             while((byteCounter < maxLength) && (0u == flag))
 625              		.loc 1 935 0
 626 003c 3DE0     		b	.L33
 627              	.L31:
 931:.\Generated_Source\PSoC4/BLE_1.c ****                 destBuffer = cyBle_scanRspData.scanRspData;
 628              		.loc 1 931 0
 629 003e 574B     		ldr	r3, .L46+4
 630 0040 3B61     		str	r3, [r7, #16]
 932:.\Generated_Source\PSoC4/BLE_1.c ****                 maxLength = cyBle_scanRspData.scanRspDataLen;
 631              		.loc 1 932 0
 632 0042 3B1C     		mov	r3, r7
 633 0044 0F33     		add	r3, r3, #15
 634 0046 554A     		ldr	r2, .L46+4
 635 0048 D27F     		ldrb	r2, [r2, #31]
 636 004a 1A70     		strb	r2, [r3]
 637              		.loc 1 935 0
 638 004c 35E0     		b	.L33
 639              	.L39:
 936:.\Generated_Source\PSoC4/BLE_1.c ****             {
 937:.\Generated_Source\PSoC4/BLE_1.c ****                 adLength = destBuffer[byteCounter];
 640              		.loc 1 937 0
 641 004e 3B1C     		mov	r3, r7
 642 0050 1433     		add	r3, r3, #20
 643 0052 1B78     		ldrb	r3, [r3]
 644 0054 3A69     		ldr	r2, [r7, #16]
 645 0056 D218     		add	r2, r2, r3
 646 0058 3B1C     		mov	r3, r7
 647 005a 1533     		add	r3, r3, #21
 648 005c 1278     		ldrb	r2, [r2]
 649 005e 1A70     		strb	r2, [r3]
ARM GAS  C:\Users\jsing\AppData\Local\Temp\ccadTqFE.s 			page 29


 938:.\Generated_Source\PSoC4/BLE_1.c ****                 
 939:.\Generated_Source\PSoC4/BLE_1.c ****                 if(0u != adLength)
 650              		.loc 1 939 0
 651 0060 3B1C     		mov	r3, r7
 652 0062 1533     		add	r3, r3, #21
 653 0064 1B78     		ldrb	r3, [r3]
 654 0066 002B     		cmp	r3, #0
 655 0068 26D0     		beq	.L34
 940:.\Generated_Source\PSoC4/BLE_1.c ****                 {
 941:.\Generated_Source\PSoC4/BLE_1.c ****                     /* Increment byte counter so it can point to AD type */
 942:.\Generated_Source\PSoC4/BLE_1.c ****                     byteCounter++;
 656              		.loc 1 942 0
 657 006a 3B1C     		mov	r3, r7
 658 006c 1433     		add	r3, r3, #20
 659 006e 1A78     		ldrb	r2, [r3]
 660 0070 3B1C     		mov	r3, r7
 661 0072 1433     		add	r3, r3, #20
 662 0074 0132     		add	r2, r2, #1
 663 0076 1A70     		strb	r2, [r3]
 943:.\Generated_Source\PSoC4/BLE_1.c ****                     
 944:.\Generated_Source\PSoC4/BLE_1.c ****                     if((CYBLE_SHORT_LOCAL_NAME == destBuffer[byteCounter]) || 
 664              		.loc 1 944 0
 665 0078 3B1C     		mov	r3, r7
 666 007a 1433     		add	r3, r3, #20
 667 007c 1B78     		ldrb	r3, [r3]
 668 007e 3A69     		ldr	r2, [r7, #16]
 669 0080 D318     		add	r3, r2, r3
 670 0082 1B78     		ldrb	r3, [r3]
 671 0084 082B     		cmp	r3, #8
 672 0086 07D0     		beq	.L35
 945:.\Generated_Source\PSoC4/BLE_1.c ****                         (CYBLE_COMPLETE_LOCAL_NAME == destBuffer[byteCounter]))
 673              		.loc 1 945 0 discriminator 1
 674 0088 3B1C     		mov	r3, r7
 675 008a 1433     		add	r3, r3, #20
 676 008c 1B78     		ldrb	r3, [r3]
 677 008e 3A69     		ldr	r2, [r7, #16]
 678 0090 D318     		add	r3, r2, r3
 679 0092 1B78     		ldrb	r3, [r3]
 944:.\Generated_Source\PSoC4/BLE_1.c ****                     if((CYBLE_SHORT_LOCAL_NAME == destBuffer[byteCounter]) || 
 680              		.loc 1 944 0 discriminator 1
 681 0094 092B     		cmp	r3, #9
 682 0096 04D1     		bne	.L36
 683              	.L35:
 946:.\Generated_Source\PSoC4/BLE_1.c ****                     {
 947:.\Generated_Source\PSoC4/BLE_1.c ****                         /* Start of the Local Name AD type was fount. Set flag and exit the loop. *
 948:.\Generated_Source\PSoC4/BLE_1.c ****                         flag = 1u;
 684              		.loc 1 948 0
 685 0098 3B1C     		mov	r3, r7
 686 009a 1633     		add	r3, r3, #22
 687 009c 0122     		mov	r2, #1
 688 009e 1A70     		strb	r2, [r3]
 689 00a0 0BE0     		b	.L33
 690              	.L36:
 949:.\Generated_Source\PSoC4/BLE_1.c ****                     }
 950:.\Generated_Source\PSoC4/BLE_1.c ****                     else
 951:.\Generated_Source\PSoC4/BLE_1.c ****                     {
 952:.\Generated_Source\PSoC4/BLE_1.c ****                         byteCounter += adLength;
ARM GAS  C:\Users\jsing\AppData\Local\Temp\ccadTqFE.s 			page 30


 691              		.loc 1 952 0
 692 00a2 3B1C     		mov	r3, r7
 693 00a4 1433     		add	r3, r3, #20
 694 00a6 391C     		mov	r1, r7
 695 00a8 1431     		add	r1, r1, #20
 696 00aa 3A1C     		mov	r2, r7
 697 00ac 1532     		add	r2, r2, #21
 698 00ae 0978     		ldrb	r1, [r1]
 699 00b0 1278     		ldrb	r2, [r2]
 700 00b2 8A18     		add	r2, r1, r2
 701 00b4 1A70     		strb	r2, [r3]
 702 00b6 00E0     		b	.L33
 703              	.L34:
 953:.\Generated_Source\PSoC4/BLE_1.c ****                     }
 954:.\Generated_Source\PSoC4/BLE_1.c ****                 }
 955:.\Generated_Source\PSoC4/BLE_1.c ****                 else
 956:.\Generated_Source\PSoC4/BLE_1.c ****                 {
 957:.\Generated_Source\PSoC4/BLE_1.c ****                     /* The end of advertisement data structure was encountered though exit the 
 958:.\Generated_Source\PSoC4/BLE_1.c ****                       loop. */
 959:.\Generated_Source\PSoC4/BLE_1.c ****                     break;
 704              		.loc 1 959 0
 705 00b8 0CE0     		b	.L38
 706              	.L33:
 935:.\Generated_Source\PSoC4/BLE_1.c ****             while((byteCounter < maxLength) && (0u == flag))
 707              		.loc 1 935 0 discriminator 1
 708 00ba 3A1C     		mov	r2, r7
 709 00bc 1432     		add	r2, r2, #20
 710 00be 3B1C     		mov	r3, r7
 711 00c0 0F33     		add	r3, r3, #15
 712 00c2 1278     		ldrb	r2, [r2]
 713 00c4 1B78     		ldrb	r3, [r3]
 714 00c6 9A42     		cmp	r2, r3
 715 00c8 04D2     		bcs	.L38
 935:.\Generated_Source\PSoC4/BLE_1.c ****             while((byteCounter < maxLength) && (0u == flag))
 716              		.loc 1 935 0 is_stmt 0 discriminator 2
 717 00ca 3B1C     		mov	r3, r7
 718 00cc 1633     		add	r3, r3, #22
 719 00ce 1B78     		ldrb	r3, [r3]
 720 00d0 002B     		cmp	r3, #0
 721 00d2 BCD0     		beq	.L39
 722              	.L38:
 960:.\Generated_Source\PSoC4/BLE_1.c ****                 }
 961:.\Generated_Source\PSoC4/BLE_1.c ****             }
 962:.\Generated_Source\PSoC4/BLE_1.c ****             
 963:.\Generated_Source\PSoC4/BLE_1.c ****             if(0u != flag)
 723              		.loc 1 963 0 is_stmt 1
 724 00d4 3B1C     		mov	r3, r7
 725 00d6 1633     		add	r3, r3, #22
 726 00d8 1B78     		ldrb	r3, [r3]
 727 00da 002B     		cmp	r3, #0
 728 00dc 59D0     		beq	.L30
 964:.\Generated_Source\PSoC4/BLE_1.c ****             {
 965:.\Generated_Source\PSoC4/BLE_1.c ****                 /* Reuse "adLength" to hold location of the last character of local name in 
 966:.\Generated_Source\PSoC4/BLE_1.c ****                    AD structure. */
 967:.\Generated_Source\PSoC4/BLE_1.c ****                 adLength += byteCounter;
 729              		.loc 1 967 0
 730 00de 3B1C     		mov	r3, r7
ARM GAS  C:\Users\jsing\AppData\Local\Temp\ccadTqFE.s 			page 31


 731 00e0 1533     		add	r3, r3, #21
 732 00e2 391C     		mov	r1, r7
 733 00e4 1531     		add	r1, r1, #21
 734 00e6 3A1C     		mov	r2, r7
 735 00e8 1432     		add	r2, r2, #20
 736 00ea 0978     		ldrb	r1, [r1]
 737 00ec 1278     		ldrb	r2, [r2]
 738 00ee 8A18     		add	r2, r1, r2
 739 00f0 1A70     		strb	r2, [r3]
 968:.\Generated_Source\PSoC4/BLE_1.c ****                 
 969:.\Generated_Source\PSoC4/BLE_1.c ****                 /* Increment byte counter to point to start of the local Name string */
 970:.\Generated_Source\PSoC4/BLE_1.c ****                 byteCounter++;
 740              		.loc 1 970 0
 741 00f2 3B1C     		mov	r3, r7
 742 00f4 1433     		add	r3, r3, #20
 743 00f6 1A78     		ldrb	r2, [r3]
 744 00f8 3B1C     		mov	r3, r7
 745 00fa 1433     		add	r3, r3, #20
 746 00fc 0132     		add	r2, r2, #1
 747 00fe 1A70     		strb	r2, [r3]
 971:.\Generated_Source\PSoC4/BLE_1.c ****                 
 972:.\Generated_Source\PSoC4/BLE_1.c ****                 for(i = byteCounter; ((i < (adLength)) && (CYBLE_NULL_CHARCTER != name[i - byteCoun
 748              		.loc 1 972 0
 749 0100 3B1C     		mov	r3, r7
 750 0102 1733     		add	r3, r3, #23
 751 0104 3A1C     		mov	r2, r7
 752 0106 1432     		add	r2, r2, #20
 753 0108 1278     		ldrb	r2, [r2]
 754 010a 1A70     		strb	r2, [r3]
 755 010c 16E0     		b	.L41
 756              	.L43:
 973:.\Generated_Source\PSoC4/BLE_1.c ****                 {
 974:.\Generated_Source\PSoC4/BLE_1.c ****                     destBuffer[i] = (uint8)name[i - byteCounter];
 757              		.loc 1 974 0 discriminator 1
 758 010e 3B1C     		mov	r3, r7
 759 0110 1733     		add	r3, r3, #23
 760 0112 1B78     		ldrb	r3, [r3]
 761 0114 3A69     		ldr	r2, [r7, #16]
 762 0116 D318     		add	r3, r2, r3
 763 0118 3A1C     		mov	r2, r7
 764 011a 1732     		add	r2, r2, #23
 765 011c 1178     		ldrb	r1, [r2]
 766 011e 3A1C     		mov	r2, r7
 767 0120 1432     		add	r2, r2, #20
 768 0122 1278     		ldrb	r2, [r2]
 769 0124 8A1A     		sub	r2, r1, r2
 770 0126 7968     		ldr	r1, [r7, #4]
 771 0128 8A18     		add	r2, r1, r2
 772 012a 1278     		ldrb	r2, [r2]
 773 012c 1A70     		strb	r2, [r3]
 972:.\Generated_Source\PSoC4/BLE_1.c ****                 for(i = byteCounter; ((i < (adLength)) && (CYBLE_NULL_CHARCTER != name[i - byteCoun
 774              		.loc 1 972 0 discriminator 1
 775 012e 3B1C     		mov	r3, r7
 776 0130 1733     		add	r3, r3, #23
 777 0132 1A78     		ldrb	r2, [r3]
 778 0134 3B1C     		mov	r3, r7
 779 0136 1733     		add	r3, r3, #23
ARM GAS  C:\Users\jsing\AppData\Local\Temp\ccadTqFE.s 			page 32


 780 0138 0132     		add	r2, r2, #1
 781 013a 1A70     		strb	r2, [r3]
 782              	.L41:
 783 013c 3A1C     		mov	r2, r7
 784 013e 1732     		add	r2, r2, #23
 785 0140 3B1C     		mov	r3, r7
 786 0142 1533     		add	r3, r3, #21
 787 0144 1278     		ldrb	r2, [r2]
 788 0146 1B78     		ldrb	r3, [r3]
 789 0148 9A42     		cmp	r2, r3
 790 014a 0BD2     		bcs	.L42
 972:.\Generated_Source\PSoC4/BLE_1.c ****                 for(i = byteCounter; ((i < (adLength)) && (CYBLE_NULL_CHARCTER != name[i - byteCoun
 791              		.loc 1 972 0 is_stmt 0 discriminator 2
 792 014c 3B1C     		mov	r3, r7
 793 014e 1733     		add	r3, r3, #23
 794 0150 1A78     		ldrb	r2, [r3]
 795 0152 3B1C     		mov	r3, r7
 796 0154 1433     		add	r3, r3, #20
 797 0156 1B78     		ldrb	r3, [r3]
 798 0158 D31A     		sub	r3, r2, r3
 799 015a 7A68     		ldr	r2, [r7, #4]
 800 015c D318     		add	r3, r2, r3
 801 015e 1B78     		ldrb	r3, [r3]
 802 0160 002B     		cmp	r3, #0
 803 0162 D4D1     		bne	.L43
 804              	.L42:
 975:.\Generated_Source\PSoC4/BLE_1.c ****                 }
 976:.\Generated_Source\PSoC4/BLE_1.c ****                 
 977:.\Generated_Source\PSoC4/BLE_1.c ****                 /* This loop handles the case when new local name is shorted than old one.
 978:.\Generated_Source\PSoC4/BLE_1.c ****                    In this case all remaining characters should be null characters. */
 979:.\Generated_Source\PSoC4/BLE_1.c ****                 while(adLength > i)
 805              		.loc 1 979 0 is_stmt 1
 806 0164 0DE0     		b	.L44
 807              	.L45:
 980:.\Generated_Source\PSoC4/BLE_1.c ****                 {
 981:.\Generated_Source\PSoC4/BLE_1.c ****                     /* Terminate string */
 982:.\Generated_Source\PSoC4/BLE_1.c ****                     destBuffer[i] = (uint8)CYBLE_NULL_CHARCTER;
 808              		.loc 1 982 0
 809 0166 3B1C     		mov	r3, r7
 810 0168 1733     		add	r3, r3, #23
 811 016a 1B78     		ldrb	r3, [r3]
 812 016c 3A69     		ldr	r2, [r7, #16]
 813 016e D318     		add	r3, r2, r3
 814 0170 0022     		mov	r2, #0
 815 0172 1A70     		strb	r2, [r3]
 983:.\Generated_Source\PSoC4/BLE_1.c ****                     i++;
 816              		.loc 1 983 0
 817 0174 3B1C     		mov	r3, r7
 818 0176 1733     		add	r3, r3, #23
 819 0178 1A78     		ldrb	r2, [r3]
 820 017a 3B1C     		mov	r3, r7
 821 017c 1733     		add	r3, r3, #23
 822 017e 0132     		add	r2, r2, #1
 823 0180 1A70     		strb	r2, [r3]
 824              	.L44:
 979:.\Generated_Source\PSoC4/BLE_1.c ****                 while(adLength > i)
 825              		.loc 1 979 0 discriminator 1
ARM GAS  C:\Users\jsing\AppData\Local\Temp\ccadTqFE.s 			page 33


 826 0182 3A1C     		mov	r2, r7
 827 0184 1532     		add	r2, r2, #21
 828 0186 3B1C     		mov	r3, r7
 829 0188 1733     		add	r3, r3, #23
 830 018a 1278     		ldrb	r2, [r2]
 831 018c 1B78     		ldrb	r3, [r3]
 832 018e 9A42     		cmp	r2, r3
 833 0190 E9D8     		bhi	.L45
 834              	.L30:
 984:.\Generated_Source\PSoC4/BLE_1.c ****                 }
 985:.\Generated_Source\PSoC4/BLE_1.c ****             }
 986:.\Generated_Source\PSoC4/BLE_1.c ****         }
 835              		.loc 1 986 0
 836 0192 BD46     		mov	sp, r7
 837 0194 06B0     		add	sp, sp, #24
 838              		@ sp needed
 839 0196 80BD     		pop	{r7, pc}
 840              	.L47:
 841              		.align	2
 842              	.L46:
 843 0198 00000000 		.word	cyBle_discoveryData
 844 019c 00000000 		.word	cyBle_scanRspData
 845              		.cfi_endproc
 846              	.LFE9:
 847              		.size	CyBle_ChangeAdLocalName, .-CyBle_ChangeAdLocalName
 848              		.section	.text.CyBle_GapSetLocalName,"ax",%progbits
 849              		.align	2
 850              		.global	CyBle_GapSetLocalName
 851              		.code	16
 852              		.thumb_func
 853              		.type	CyBle_GapSetLocalName, %function
 854              	CyBle_GapSetLocalName:
 855              	.LFB10:
 987:.\Generated_Source\PSoC4/BLE_1.c ****         
 988:.\Generated_Source\PSoC4/BLE_1.c **** #endif /* (CYBLE_GAP_ROLE_PERIPHERAL) */  
 989:.\Generated_Source\PSoC4/BLE_1.c ****     
 990:.\Generated_Source\PSoC4/BLE_1.c ****     
 991:.\Generated_Source\PSoC4/BLE_1.c ****     /******************************************************************************
 992:.\Generated_Source\PSoC4/BLE_1.c ****     ##Function Name: CyBle_GapSetLocalName
 993:.\Generated_Source\PSoC4/BLE_1.c ****     *******************************************************************************
 994:.\Generated_Source\PSoC4/BLE_1.c ****     Summary:
 995:.\Generated_Source\PSoC4/BLE_1.c ****      This API is used to set the local device name - a Characteristic of the 
 996:.\Generated_Source\PSoC4/BLE_1.c ****      GAP Service. If the characteristic length entered in the component customizer
 997:.\Generated_Source\PSoC4/BLE_1.c ****      is shorter than the string specified by the "name" parameter, the local device
 998:.\Generated_Source\PSoC4/BLE_1.c ****      name will be cut to the length specified in the customizer.
 999:.\Generated_Source\PSoC4/BLE_1.c **** 
1000:.\Generated_Source\PSoC4/BLE_1.c ****     Parameters:
1001:.\Generated_Source\PSoC4/BLE_1.c ****      char8 name: The local device name string. The name string to be written as
1002:.\Generated_Source\PSoC4/BLE_1.c ****                  the local device name. It represents a UTF-8 encoded User
1003:.\Generated_Source\PSoC4/BLE_1.c ****                  Friendly Descriptive Name for the device. The length of the local
1004:.\Generated_Source\PSoC4/BLE_1.c ****                  device string is entered into the component customizer and it can
1005:.\Generated_Source\PSoC4/BLE_1.c ****                  be set to a value from 0 to 248 bytes. If the name contained in
1006:.\Generated_Source\PSoC4/BLE_1.c ****                  the parameter is shorter than the length from the customizer, the
1007:.\Generated_Source\PSoC4/BLE_1.c ****                  end of the name is indicated by a NULL octet (0x00).
1008:.\Generated_Source\PSoC4/BLE_1.c **** 
1009:.\Generated_Source\PSoC4/BLE_1.c ****     Return:
1010:.\Generated_Source\PSoC4/BLE_1.c ****      CYBLE_API_RESULT_T : Return value indicates if the function succeeded or 
ARM GAS  C:\Users\jsing\AppData\Local\Temp\ccadTqFE.s 			page 34


1011:.\Generated_Source\PSoC4/BLE_1.c ****      failed. Following are the possible error codes.
1012:.\Generated_Source\PSoC4/BLE_1.c ****      <table>
1013:.\Generated_Source\PSoC4/BLE_1.c ****       Errors codes                        Description
1014:.\Generated_Source\PSoC4/BLE_1.c ****       ------------                        -----------
1015:.\Generated_Source\PSoC4/BLE_1.c ****       CYBLE_ERROR_OK                      Function completed successfully.
1016:.\Generated_Source\PSoC4/BLE_1.c ****       CYBLE_ERROR_INVALID_PARAMETER       On specifying NULL as input parameter
1017:.\Generated_Source\PSoC4/BLE_1.c ****      </table>
1018:.\Generated_Source\PSoC4/BLE_1.c ****  
1019:.\Generated_Source\PSoC4/BLE_1.c ****     ******************************************************************************/
1020:.\Generated_Source\PSoC4/BLE_1.c ****     CYBLE_API_RESULT_T CyBle_GapSetLocalName(const char8 name[])
1021:.\Generated_Source\PSoC4/BLE_1.c ****     {
 856              		.loc 1 1021 0
 857              		.cfi_startproc
 858 0000 80B5     		push	{r7, lr}
 859              		.cfi_def_cfa_offset 8
 860              		.cfi_offset 7, -8
 861              		.cfi_offset 14, -4
 862 0002 86B0     		sub	sp, sp, #24
 863              		.cfi_def_cfa_offset 32
 864 0004 00AF     		add	r7, sp, #0
 865              		.cfi_def_cfa_register 7
 866 0006 7860     		str	r0, [r7, #4]
1022:.\Generated_Source\PSoC4/BLE_1.c ****         CYBLE_API_RESULT_T apiResult = CYBLE_ERROR_OK;
 867              		.loc 1 1022 0
 868 0008 3B1C     		mov	r3, r7
 869 000a 1633     		add	r3, r3, #22
 870 000c 0022     		mov	r2, #0
 871 000e 1A80     		strh	r2, [r3]
1023:.\Generated_Source\PSoC4/BLE_1.c ****         uint8 i;
1024:.\Generated_Source\PSoC4/BLE_1.c ****         char8 *ptr;
1025:.\Generated_Source\PSoC4/BLE_1.c ****         uint8 charLen;
1026:.\Generated_Source\PSoC4/BLE_1.c **** 
1027:.\Generated_Source\PSoC4/BLE_1.c ****         if(NULL != name)
 872              		.loc 1 1027 0
 873 0010 7B68     		ldr	r3, [r7, #4]
 874 0012 002B     		cmp	r3, #0
 875 0014 42D0     		beq	.L49
1028:.\Generated_Source\PSoC4/BLE_1.c ****         {
1029:.\Generated_Source\PSoC4/BLE_1.c ****             /* Get the pointer to the Device Name characteristic  */
1030:.\Generated_Source\PSoC4/BLE_1.c ****             ptr = (char8 *)
 876              		.loc 1 1030 0
 877 0016 274B     		ldr	r3, .L55
 878 0018 9B6B     		ldr	r3, [r3, #56]
 879 001a 3B61     		str	r3, [r7, #16]
1031:.\Generated_Source\PSoC4/BLE_1.c ****                 cyBle_gattDB[CYBLE_GAP_DEVICE_NAME_INDEX].attValue.attFormatValue.attGenericVal;
1032:.\Generated_Source\PSoC4/BLE_1.c **** 
1033:.\Generated_Source\PSoC4/BLE_1.c ****             /* First need to get the length of the characteristic data in the GATT
1034:.\Generated_Source\PSoC4/BLE_1.c ****                 database to make sure there is enough place for the data. The length
1035:.\Generated_Source\PSoC4/BLE_1.c ****                 can't be longer than 248, so only the LSB of 16 bit of length is to
1036:.\Generated_Source\PSoC4/BLE_1.c ****                 be used. */
1037:.\Generated_Source\PSoC4/BLE_1.c ****             charLen = (uint8) cyBle_gattDB[CYBLE_GAP_DEVICE_NAME_INDEX].attValue.attFormatValue.len
 880              		.loc 1 1037 0
 881 001c 254B     		ldr	r3, .L55
 882 001e 9A8E     		ldrh	r2, [r3, #52]
 883 0020 3B1C     		mov	r3, r7
 884 0022 0F33     		add	r3, r3, #15
 885 0024 1A70     		strb	r2, [r3]
ARM GAS  C:\Users\jsing\AppData\Local\Temp\ccadTqFE.s 			page 35


1038:.\Generated_Source\PSoC4/BLE_1.c **** 
1039:.\Generated_Source\PSoC4/BLE_1.c ****             /* Copy name into characteristic */
1040:.\Generated_Source\PSoC4/BLE_1.c ****             for(i = 0u; ((i < (charLen - 1u)) && (CYBLE_NULL_CHARCTER != name[i])); i++)
 886              		.loc 1 1040 0
 887 0026 3B1C     		mov	r3, r7
 888 0028 1533     		add	r3, r3, #21
 889 002a 0022     		mov	r2, #0
 890 002c 1A70     		strb	r2, [r3]
 891 002e 12E0     		b	.L50
 892              	.L52:
1041:.\Generated_Source\PSoC4/BLE_1.c ****             {
1042:.\Generated_Source\PSoC4/BLE_1.c ****                 ptr[i] = name[i];
 893              		.loc 1 1042 0 discriminator 1
 894 0030 3B1C     		mov	r3, r7
 895 0032 1533     		add	r3, r3, #21
 896 0034 1B78     		ldrb	r3, [r3]
 897 0036 3A69     		ldr	r2, [r7, #16]
 898 0038 D318     		add	r3, r2, r3
 899 003a 3A1C     		mov	r2, r7
 900 003c 1532     		add	r2, r2, #21
 901 003e 1278     		ldrb	r2, [r2]
 902 0040 7968     		ldr	r1, [r7, #4]
 903 0042 8A18     		add	r2, r1, r2
 904 0044 1278     		ldrb	r2, [r2]
 905 0046 1A70     		strb	r2, [r3]
1040:.\Generated_Source\PSoC4/BLE_1.c ****             for(i = 0u; ((i < (charLen - 1u)) && (CYBLE_NULL_CHARCTER != name[i])); i++)
 906              		.loc 1 1040 0 discriminator 1
 907 0048 3B1C     		mov	r3, r7
 908 004a 1533     		add	r3, r3, #21
 909 004c 1A78     		ldrb	r2, [r3]
 910 004e 3B1C     		mov	r3, r7
 911 0050 1533     		add	r3, r3, #21
 912 0052 0132     		add	r2, r2, #1
 913 0054 1A70     		strb	r2, [r3]
 914              	.L50:
 915 0056 3B1C     		mov	r3, r7
 916 0058 1533     		add	r3, r3, #21
 917 005a 1A78     		ldrb	r2, [r3]
 918 005c 3B1C     		mov	r3, r7
 919 005e 0F33     		add	r3, r3, #15
 920 0060 1B78     		ldrb	r3, [r3]
 921 0062 013B     		sub	r3, r3, #1
 922 0064 9A42     		cmp	r2, r3
 923 0066 07D2     		bcs	.L51
1040:.\Generated_Source\PSoC4/BLE_1.c ****             for(i = 0u; ((i < (charLen - 1u)) && (CYBLE_NULL_CHARCTER != name[i])); i++)
 924              		.loc 1 1040 0 is_stmt 0 discriminator 2
 925 0068 3B1C     		mov	r3, r7
 926 006a 1533     		add	r3, r3, #21
 927 006c 1B78     		ldrb	r3, [r3]
 928 006e 7A68     		ldr	r2, [r7, #4]
 929 0070 D318     		add	r3, r2, r3
 930 0072 1B78     		ldrb	r3, [r3]
 931 0074 002B     		cmp	r3, #0
 932 0076 DBD1     		bne	.L52
 933              	.L51:
1043:.\Generated_Source\PSoC4/BLE_1.c ****             }
1044:.\Generated_Source\PSoC4/BLE_1.c **** 
ARM GAS  C:\Users\jsing\AppData\Local\Temp\ccadTqFE.s 			page 36


1045:.\Generated_Source\PSoC4/BLE_1.c ****             /* Terminate string */
1046:.\Generated_Source\PSoC4/BLE_1.c ****             ptr[i] = CYBLE_NULL_CHARCTER;
 934              		.loc 1 1046 0 is_stmt 1
 935 0078 3B1C     		mov	r3, r7
 936 007a 1533     		add	r3, r3, #21
 937 007c 1B78     		ldrb	r3, [r3]
 938 007e 3A69     		ldr	r2, [r7, #16]
 939 0080 D318     		add	r3, r2, r3
 940 0082 0022     		mov	r2, #0
 941 0084 1A70     		strb	r2, [r3]
1047:.\Generated_Source\PSoC4/BLE_1.c ****             
1048:.\Generated_Source\PSoC4/BLE_1.c ****             /* Update device name in advertising and scan response structure */
1049:.\Generated_Source\PSoC4/BLE_1.c ****             #if(CYBLE_GAP_ROLE_PERIPHERAL)
1050:.\Generated_Source\PSoC4/BLE_1.c ****                 CyBle_ChangeAdLocalName(name, 0u);
 942              		.loc 1 1050 0
 943 0086 7B68     		ldr	r3, [r7, #4]
 944 0088 181C     		mov	r0, r3
 945 008a 0021     		mov	r1, #0
 946 008c FFF7FEFF 		bl	CyBle_ChangeAdLocalName
1051:.\Generated_Source\PSoC4/BLE_1.c ****                 CyBle_ChangeAdLocalName(name, 1u);
 947              		.loc 1 1051 0
 948 0090 7B68     		ldr	r3, [r7, #4]
 949 0092 181C     		mov	r0, r3
 950 0094 0121     		mov	r1, #1
 951 0096 FFF7FEFF 		bl	CyBle_ChangeAdLocalName
 952 009a 03E0     		b	.L53
 953              	.L49:
1052:.\Generated_Source\PSoC4/BLE_1.c ****             #endif /* (CYBLE_GAP_ROLE_PERIPHERAL) */
1053:.\Generated_Source\PSoC4/BLE_1.c ****         }
1054:.\Generated_Source\PSoC4/BLE_1.c ****         else
1055:.\Generated_Source\PSoC4/BLE_1.c ****         {
1056:.\Generated_Source\PSoC4/BLE_1.c ****             apiResult = CYBLE_ERROR_INVALID_PARAMETER;
 954              		.loc 1 1056 0
 955 009c 3B1C     		mov	r3, r7
 956 009e 1633     		add	r3, r3, #22
 957 00a0 0122     		mov	r2, #1
 958 00a2 1A80     		strh	r2, [r3]
 959              	.L53:
1057:.\Generated_Source\PSoC4/BLE_1.c ****         }
1058:.\Generated_Source\PSoC4/BLE_1.c ****         
1059:.\Generated_Source\PSoC4/BLE_1.c ****         return(apiResult);
 960              		.loc 1 1059 0
 961 00a4 3B1C     		mov	r3, r7
 962 00a6 1633     		add	r3, r3, #22
 963 00a8 1B88     		ldrh	r3, [r3]
1060:.\Generated_Source\PSoC4/BLE_1.c ****     }
 964              		.loc 1 1060 0
 965 00aa 181C     		mov	r0, r3
 966 00ac BD46     		mov	sp, r7
 967 00ae 06B0     		add	sp, sp, #24
 968              		@ sp needed
 969 00b0 80BD     		pop	{r7, pc}
 970              	.L56:
 971 00b2 C046     		.align	2
 972              	.L55:
 973 00b4 00000000 		.word	cyBle_gattDB
 974              		.cfi_endproc
ARM GAS  C:\Users\jsing\AppData\Local\Temp\ccadTqFE.s 			page 37


 975              	.LFE10:
 976              		.size	CyBle_GapSetLocalName, .-CyBle_GapSetLocalName
 977              		.section	.text.CyBle_GapGetLocalName,"ax",%progbits
 978              		.align	2
 979              		.global	CyBle_GapGetLocalName
 980              		.code	16
 981              		.thumb_func
 982              		.type	CyBle_GapGetLocalName, %function
 983              	CyBle_GapGetLocalName:
 984              	.LFB11:
1061:.\Generated_Source\PSoC4/BLE_1.c **** 
1062:.\Generated_Source\PSoC4/BLE_1.c **** 
1063:.\Generated_Source\PSoC4/BLE_1.c ****     /******************************************************************************
1064:.\Generated_Source\PSoC4/BLE_1.c ****     ##Function Name: CyBle_GapGetLocalName
1065:.\Generated_Source\PSoC4/BLE_1.c ****     *******************************************************************************
1066:.\Generated_Source\PSoC4/BLE_1.c ****  
1067:.\Generated_Source\PSoC4/BLE_1.c ****     Summary:
1068:.\Generated_Source\PSoC4/BLE_1.c ****      This API is used to read the local device name - a Characteristic of the 
1069:.\Generated_Source\PSoC4/BLE_1.c ****      GAP Service.
1070:.\Generated_Source\PSoC4/BLE_1.c **** 
1071:.\Generated_Source\PSoC4/BLE_1.c ****     Parameters:
1072:.\Generated_Source\PSoC4/BLE_1.c ****     char8 name: The local device name string. Used to read the local name to the
1073:.\Generated_Source\PSoC4/BLE_1.c ****                 given string array. It represents a UTF-8 encoded User Friendly 
1074:.\Generated_Source\PSoC4/BLE_1.c ****                 Descriptive Name for the device. The length of the local device
1075:.\Generated_Source\PSoC4/BLE_1.c ****                 string is entered into the component customizer and it can be set
1076:.\Generated_Source\PSoC4/BLE_1.c ****                 to a value from 0 to 248 bytes. If the name contained in the
1077:.\Generated_Source\PSoC4/BLE_1.c ****                 parameter is shorter than the length from the customizer, the end
1078:.\Generated_Source\PSoC4/BLE_1.c ****                 of the name is indicated by a NULL octet (0x00).
1079:.\Generated_Source\PSoC4/BLE_1.c **** 
1080:.\Generated_Source\PSoC4/BLE_1.c ****     Return:
1081:.\Generated_Source\PSoC4/BLE_1.c ****      CYBLE_API_RESULT_T : Return value indicates if the function succeeded or 
1082:.\Generated_Source\PSoC4/BLE_1.c ****      failed. Following are the possible error codes.
1083:.\Generated_Source\PSoC4/BLE_1.c ****      <table>
1084:.\Generated_Source\PSoC4/BLE_1.c ****       Errors codes                        Description
1085:.\Generated_Source\PSoC4/BLE_1.c ****       ------------                        -----------
1086:.\Generated_Source\PSoC4/BLE_1.c ****       CYBLE_ERROR_OK                      Function completed successfully.
1087:.\Generated_Source\PSoC4/BLE_1.c ****       CYBLE_ERROR_INVALID_PARAMETER       On specifying NULL as input parameter
1088:.\Generated_Source\PSoC4/BLE_1.c ****      </table>
1089:.\Generated_Source\PSoC4/BLE_1.c **** 
1090:.\Generated_Source\PSoC4/BLE_1.c ****     ******************************************************************************/
1091:.\Generated_Source\PSoC4/BLE_1.c ****     CYBLE_API_RESULT_T CyBle_GapGetLocalName(char8 name[])
1092:.\Generated_Source\PSoC4/BLE_1.c ****     {
 985              		.loc 1 1092 0
 986              		.cfi_startproc
 987 0000 80B5     		push	{r7, lr}
 988              		.cfi_def_cfa_offset 8
 989              		.cfi_offset 7, -8
 990              		.cfi_offset 14, -4
 991 0002 86B0     		sub	sp, sp, #24
 992              		.cfi_def_cfa_offset 32
 993 0004 00AF     		add	r7, sp, #0
 994              		.cfi_def_cfa_register 7
 995 0006 7860     		str	r0, [r7, #4]
1093:.\Generated_Source\PSoC4/BLE_1.c ****         CYBLE_API_RESULT_T apiResult = CYBLE_ERROR_OK;
 996              		.loc 1 1093 0
 997 0008 3B1C     		mov	r3, r7
 998 000a 1633     		add	r3, r3, #22
ARM GAS  C:\Users\jsing\AppData\Local\Temp\ccadTqFE.s 			page 38


 999 000c 0022     		mov	r2, #0
 1000 000e 1A80     		strh	r2, [r3]
1094:.\Generated_Source\PSoC4/BLE_1.c ****         uint8 charLen;
1095:.\Generated_Source\PSoC4/BLE_1.c ****         uint8 i;
1096:.\Generated_Source\PSoC4/BLE_1.c ****         char8 *ptr;
1097:.\Generated_Source\PSoC4/BLE_1.c **** 
1098:.\Generated_Source\PSoC4/BLE_1.c ****         if(NULL != name)
 1001              		.loc 1 1098 0
 1002 0010 7B68     		ldr	r3, [r7, #4]
 1003 0012 002B     		cmp	r3, #0
 1004 0014 38D0     		beq	.L58
1099:.\Generated_Source\PSoC4/BLE_1.c ****         {
1100:.\Generated_Source\PSoC4/BLE_1.c ****             /* Get the pointer to the Device Name characteristic  */
1101:.\Generated_Source\PSoC4/BLE_1.c ****             ptr = (char8 *) cyBle_gattDB[CYBLE_GAP_DEVICE_NAME_INDEX].attValue.attFormatValue.attGe
 1005              		.loc 1 1101 0
 1006 0016 224B     		ldr	r3, .L64
 1007 0018 9B6B     		ldr	r3, [r3, #56]
 1008 001a 3B61     		str	r3, [r7, #16]
1102:.\Generated_Source\PSoC4/BLE_1.c **** 
1103:.\Generated_Source\PSoC4/BLE_1.c ****             /* First need to get the length of the characteristic data in the GATT
1104:.\Generated_Source\PSoC4/BLE_1.c ****                 database to make sure there is enough place for the data. The length
1105:.\Generated_Source\PSoC4/BLE_1.c ****                 can't be longer than 248, so only the LSB of 16 bit of length is to
1106:.\Generated_Source\PSoC4/BLE_1.c ****                 be used. */
1107:.\Generated_Source\PSoC4/BLE_1.c ****             charLen = (uint8)cyBle_gattDB[CYBLE_GAP_DEVICE_NAME_INDEX].attValue.attFormatValue.leng
 1009              		.loc 1 1107 0
 1010 001c 204B     		ldr	r3, .L64
 1011 001e 9A8E     		ldrh	r2, [r3, #52]
 1012 0020 3B1C     		mov	r3, r7
 1013 0022 0F33     		add	r3, r3, #15
 1014 0024 1A70     		strb	r2, [r3]
1108:.\Generated_Source\PSoC4/BLE_1.c **** 
1109:.\Generated_Source\PSoC4/BLE_1.c ****             /* Copy name from characteristic */
1110:.\Generated_Source\PSoC4/BLE_1.c ****             for(i = 0u; ((i < (charLen - 1u)) && (CYBLE_NULL_CHARCTER != ptr[i])); i++)
 1015              		.loc 1 1110 0
 1016 0026 3B1C     		mov	r3, r7
 1017 0028 1533     		add	r3, r3, #21
 1018 002a 0022     		mov	r2, #0
 1019 002c 1A70     		strb	r2, [r3]
 1020 002e 12E0     		b	.L59
 1021              	.L61:
1111:.\Generated_Source\PSoC4/BLE_1.c ****             {
1112:.\Generated_Source\PSoC4/BLE_1.c ****                 name[i] = ptr[i];
 1022              		.loc 1 1112 0 discriminator 1
 1023 0030 3B1C     		mov	r3, r7
 1024 0032 1533     		add	r3, r3, #21
 1025 0034 1B78     		ldrb	r3, [r3]
 1026 0036 7A68     		ldr	r2, [r7, #4]
 1027 0038 D318     		add	r3, r2, r3
 1028 003a 3A1C     		mov	r2, r7
 1029 003c 1532     		add	r2, r2, #21
 1030 003e 1278     		ldrb	r2, [r2]
 1031 0040 3969     		ldr	r1, [r7, #16]
 1032 0042 8A18     		add	r2, r1, r2
 1033 0044 1278     		ldrb	r2, [r2]
 1034 0046 1A70     		strb	r2, [r3]
1110:.\Generated_Source\PSoC4/BLE_1.c ****             for(i = 0u; ((i < (charLen - 1u)) && (CYBLE_NULL_CHARCTER != ptr[i])); i++)
 1035              		.loc 1 1110 0 discriminator 1
ARM GAS  C:\Users\jsing\AppData\Local\Temp\ccadTqFE.s 			page 39


 1036 0048 3B1C     		mov	r3, r7
 1037 004a 1533     		add	r3, r3, #21
 1038 004c 1A78     		ldrb	r2, [r3]
 1039 004e 3B1C     		mov	r3, r7
 1040 0050 1533     		add	r3, r3, #21
 1041 0052 0132     		add	r2, r2, #1
 1042 0054 1A70     		strb	r2, [r3]
 1043              	.L59:
 1044 0056 3B1C     		mov	r3, r7
 1045 0058 1533     		add	r3, r3, #21
 1046 005a 1A78     		ldrb	r2, [r3]
 1047 005c 3B1C     		mov	r3, r7
 1048 005e 0F33     		add	r3, r3, #15
 1049 0060 1B78     		ldrb	r3, [r3]
 1050 0062 013B     		sub	r3, r3, #1
 1051 0064 9A42     		cmp	r2, r3
 1052 0066 07D2     		bcs	.L60
1110:.\Generated_Source\PSoC4/BLE_1.c ****             for(i = 0u; ((i < (charLen - 1u)) && (CYBLE_NULL_CHARCTER != ptr[i])); i++)
 1053              		.loc 1 1110 0 is_stmt 0 discriminator 2
 1054 0068 3B1C     		mov	r3, r7
 1055 006a 1533     		add	r3, r3, #21
 1056 006c 1B78     		ldrb	r3, [r3]
 1057 006e 3A69     		ldr	r2, [r7, #16]
 1058 0070 D318     		add	r3, r2, r3
 1059 0072 1B78     		ldrb	r3, [r3]
 1060 0074 002B     		cmp	r3, #0
 1061 0076 DBD1     		bne	.L61
 1062              	.L60:
1113:.\Generated_Source\PSoC4/BLE_1.c ****             }
1114:.\Generated_Source\PSoC4/BLE_1.c **** 
1115:.\Generated_Source\PSoC4/BLE_1.c ****             /* Terminate string */
1116:.\Generated_Source\PSoC4/BLE_1.c ****             name[i] = CYBLE_NULL_CHARCTER;
 1063              		.loc 1 1116 0 is_stmt 1
 1064 0078 3B1C     		mov	r3, r7
 1065 007a 1533     		add	r3, r3, #21
 1066 007c 1B78     		ldrb	r3, [r3]
 1067 007e 7A68     		ldr	r2, [r7, #4]
 1068 0080 D318     		add	r3, r2, r3
 1069 0082 0022     		mov	r2, #0
 1070 0084 1A70     		strb	r2, [r3]
 1071 0086 03E0     		b	.L62
 1072              	.L58:
1117:.\Generated_Source\PSoC4/BLE_1.c ****         }
1118:.\Generated_Source\PSoC4/BLE_1.c ****         else
1119:.\Generated_Source\PSoC4/BLE_1.c ****         {
1120:.\Generated_Source\PSoC4/BLE_1.c ****             apiResult = CYBLE_ERROR_INVALID_PARAMETER;
 1073              		.loc 1 1120 0
 1074 0088 3B1C     		mov	r3, r7
 1075 008a 1633     		add	r3, r3, #22
 1076 008c 0122     		mov	r2, #1
 1077 008e 1A80     		strh	r2, [r3]
 1078              	.L62:
1121:.\Generated_Source\PSoC4/BLE_1.c ****         }
1122:.\Generated_Source\PSoC4/BLE_1.c ****         
1123:.\Generated_Source\PSoC4/BLE_1.c ****         return(apiResult);
 1079              		.loc 1 1123 0
 1080 0090 3B1C     		mov	r3, r7
ARM GAS  C:\Users\jsing\AppData\Local\Temp\ccadTqFE.s 			page 40


 1081 0092 1633     		add	r3, r3, #22
 1082 0094 1B88     		ldrh	r3, [r3]
1124:.\Generated_Source\PSoC4/BLE_1.c ****     }
 1083              		.loc 1 1124 0
 1084 0096 181C     		mov	r0, r3
 1085 0098 BD46     		mov	sp, r7
 1086 009a 06B0     		add	sp, sp, #24
 1087              		@ sp needed
 1088 009c 80BD     		pop	{r7, pc}
 1089              	.L65:
 1090 009e C046     		.align	2
 1091              	.L64:
 1092 00a0 00000000 		.word	cyBle_gattDB
 1093              		.cfi_endproc
 1094              	.LFE11:
 1095              		.size	CyBle_GapGetLocalName, .-CyBle_GapGetLocalName
 1096              		.section	.text.CyBle_Get16ByPtr,"ax",%progbits
 1097              		.align	2
 1098              		.global	CyBle_Get16ByPtr
 1099              		.code	16
 1100              		.thumb_func
 1101              		.type	CyBle_Get16ByPtr, %function
 1102              	CyBle_Get16ByPtr:
 1103              	.LFB12:
1125:.\Generated_Source\PSoC4/BLE_1.c **** 
1126:.\Generated_Source\PSoC4/BLE_1.c **** #endif /* (CYBLE_GATT_ROLE_SERVER) */
1127:.\Generated_Source\PSoC4/BLE_1.c **** 
1128:.\Generated_Source\PSoC4/BLE_1.c **** 
1129:.\Generated_Source\PSoC4/BLE_1.c **** /******************************************************************************
1130:.\Generated_Source\PSoC4/BLE_1.c **** ##Function Name: CyBle_Get16ByPtr
1131:.\Generated_Source\PSoC4/BLE_1.c **** *******************************************************************************
1132:.\Generated_Source\PSoC4/BLE_1.c **** 
1133:.\Generated_Source\PSoC4/BLE_1.c **** Summary:
1134:.\Generated_Source\PSoC4/BLE_1.c ****  Returns the two-bytes value by using a pointer to the LSB.
1135:.\Generated_Source\PSoC4/BLE_1.c **** 
1136:.\Generated_Source\PSoC4/BLE_1.c **** Parameters:
1137:.\Generated_Source\PSoC4/BLE_1.c ****  uint8 * ptr: Pointer to the LSB of two-bytes data (little endian).
1138:.\Generated_Source\PSoC4/BLE_1.c **** 
1139:.\Generated_Source\PSoC4/BLE_1.c **** Return:
1140:.\Generated_Source\PSoC4/BLE_1.c ****  uint16 value: Two-bytes data.
1141:.\Generated_Source\PSoC4/BLE_1.c **** 
1142:.\Generated_Source\PSoC4/BLE_1.c **** ******************************************************************************/
1143:.\Generated_Source\PSoC4/BLE_1.c **** uint16 CyBle_Get16ByPtr(const uint8 ptr[])
1144:.\Generated_Source\PSoC4/BLE_1.c **** {
 1104              		.loc 1 1144 0
 1105              		.cfi_startproc
 1106 0000 80B5     		push	{r7, lr}
 1107              		.cfi_def_cfa_offset 8
 1108              		.cfi_offset 7, -8
 1109              		.cfi_offset 14, -4
 1110 0002 82B0     		sub	sp, sp, #8
 1111              		.cfi_def_cfa_offset 16
 1112 0004 00AF     		add	r7, sp, #0
 1113              		.cfi_def_cfa_register 7
 1114 0006 7860     		str	r0, [r7, #4]
1145:.\Generated_Source\PSoC4/BLE_1.c ****     return ((uint16) ptr[0u] | ((uint16) (((uint16) ptr[1u]) << 8u)));
 1115              		.loc 1 1145 0
ARM GAS  C:\Users\jsing\AppData\Local\Temp\ccadTqFE.s 			page 41


 1116 0008 7B68     		ldr	r3, [r7, #4]
 1117 000a 1B78     		ldrb	r3, [r3]
 1118 000c 1A1C     		mov	r2, r3
 1119 000e 7B68     		ldr	r3, [r7, #4]
 1120 0010 0133     		add	r3, r3, #1
 1121 0012 1B78     		ldrb	r3, [r3]
 1122 0014 1B02     		lsl	r3, r3, #8
 1123 0016 9BB2     		uxth	r3, r3
 1124 0018 1343     		orr	r3, r2
 1125 001a 9BB2     		uxth	r3, r3
1146:.\Generated_Source\PSoC4/BLE_1.c **** }
 1126              		.loc 1 1146 0
 1127 001c 181C     		mov	r0, r3
 1128 001e BD46     		mov	sp, r7
 1129 0020 02B0     		add	sp, sp, #8
 1130              		@ sp needed
 1131 0022 80BD     		pop	{r7, pc}
 1132              		.cfi_endproc
 1133              	.LFE12:
 1134              		.size	CyBle_Get16ByPtr, .-CyBle_Get16ByPtr
 1135              		.section	.text.CyBle_Set16ByPtr,"ax",%progbits
 1136              		.align	2
 1137              		.global	CyBle_Set16ByPtr
 1138              		.code	16
 1139              		.thumb_func
 1140              		.type	CyBle_Set16ByPtr, %function
 1141              	CyBle_Set16ByPtr:
 1142              	.LFB13:
1147:.\Generated_Source\PSoC4/BLE_1.c **** 
1148:.\Generated_Source\PSoC4/BLE_1.c **** 
1149:.\Generated_Source\PSoC4/BLE_1.c **** /******************************************************************************
1150:.\Generated_Source\PSoC4/BLE_1.c **** ##Function Name: CyBle_Set16ByPtr
1151:.\Generated_Source\PSoC4/BLE_1.c **** *******************************************************************************
1152:.\Generated_Source\PSoC4/BLE_1.c **** 
1153:.\Generated_Source\PSoC4/BLE_1.c **** Summary:
1154:.\Generated_Source\PSoC4/BLE_1.c ****  Sets the two-bytes value by using a pointer to the LSB.
1155:.\Generated_Source\PSoC4/BLE_1.c **** 
1156:.\Generated_Source\PSoC4/BLE_1.c **** Parameters:
1157:.\Generated_Source\PSoC4/BLE_1.c ****  uint8 * ptr:   Pointer to the LSB of two-bytes data (little endian).
1158:.\Generated_Source\PSoC4/BLE_1.c ****  uint16 value:  Two-bytes data to be written.
1159:.\Generated_Source\PSoC4/BLE_1.c **** 
1160:.\Generated_Source\PSoC4/BLE_1.c **** Return:
1161:.\Generated_Source\PSoC4/BLE_1.c ****  None
1162:.\Generated_Source\PSoC4/BLE_1.c **** 
1163:.\Generated_Source\PSoC4/BLE_1.c **** ******************************************************************************/
1164:.\Generated_Source\PSoC4/BLE_1.c **** void CyBle_Set16ByPtr(uint8 ptr[], uint16 value)
1165:.\Generated_Source\PSoC4/BLE_1.c **** {
 1143              		.loc 1 1165 0
 1144              		.cfi_startproc
 1145 0000 80B5     		push	{r7, lr}
 1146              		.cfi_def_cfa_offset 8
 1147              		.cfi_offset 7, -8
 1148              		.cfi_offset 14, -4
 1149 0002 82B0     		sub	sp, sp, #8
 1150              		.cfi_def_cfa_offset 16
 1151 0004 00AF     		add	r7, sp, #0
 1152              		.cfi_def_cfa_register 7
ARM GAS  C:\Users\jsing\AppData\Local\Temp\ccadTqFE.s 			page 42


 1153 0006 7860     		str	r0, [r7, #4]
 1154 0008 0A1C     		mov	r2, r1
 1155 000a BB1C     		add	r3, r7, #2
 1156 000c 1A80     		strh	r2, [r3]
1166:.\Generated_Source\PSoC4/BLE_1.c ****     ptr[0u] = (uint8) value;
 1157              		.loc 1 1166 0
 1158 000e BB1C     		add	r3, r7, #2
 1159 0010 1B88     		ldrh	r3, [r3]
 1160 0012 DAB2     		uxtb	r2, r3
 1161 0014 7B68     		ldr	r3, [r7, #4]
 1162 0016 1A70     		strb	r2, [r3]
1167:.\Generated_Source\PSoC4/BLE_1.c ****     ptr[1u] = (uint8) (value >> 8u);
 1163              		.loc 1 1167 0
 1164 0018 7B68     		ldr	r3, [r7, #4]
 1165 001a 0133     		add	r3, r3, #1
 1166 001c BA1C     		add	r2, r7, #2
 1167 001e 1288     		ldrh	r2, [r2]
 1168 0020 120A     		lsr	r2, r2, #8
 1169 0022 92B2     		uxth	r2, r2
 1170 0024 D2B2     		uxtb	r2, r2
 1171 0026 1A70     		strb	r2, [r3]
1168:.\Generated_Source\PSoC4/BLE_1.c **** }
 1172              		.loc 1 1168 0
 1173 0028 BD46     		mov	sp, r7
 1174 002a 02B0     		add	sp, sp, #8
 1175              		@ sp needed
 1176 002c 80BD     		pop	{r7, pc}
 1177              		.cfi_endproc
 1178              	.LFE13:
 1179              		.size	CyBle_Set16ByPtr, .-CyBle_Set16ByPtr
 1180 002e C046     		.bss
 1181 0024 00000000 		.align	3
 1182              	cyBle_stackMemoryRam.5994:
 1183 0028 00000000 		.space	3220
 1183      00000000 
 1183      00000000 
 1183      00000000 
 1183      00000000 
 1184 0cbc 00000000 		.text
 1185              	.Letext0:
 1186              		.file 2 ".\\Generated_Source\\PSoC4\\cytypes.h"
 1187              		.file 3 ".\\Generated_Source\\PSoC4\\BLE_1_Stack.h"
 1188              		.file 4 ".\\Generated_Source\\PSoC4\\BLE_1_StackGap.h"
 1189              		.file 5 ".\\Generated_Source\\PSoC4\\BLE_1_StackGattDb.h"
 1190              		.file 6 ".\\Generated_Source\\PSoC4\\BLE_1.h"
 1191              		.file 7 ".\\Generated_Source\\PSoC4\\BLE_1_eventHandler.h"
 1192              		.file 8 ".\\Generated_Source\\PSoC4\\BLE_1_gatt.h"