ARM GAS  C:\Users\jsing\AppData\Local\Temp\ccFY32ST.s 			page 1


   1              		.cpu cortex-m0
   2              		.fpu softvfp
   3              		.eabi_attribute 20, 1
   4              		.eabi_attribute 21, 1
   5              		.eabi_attribute 23, 3
   6              		.eabi_attribute 24, 1
   7              		.eabi_attribute 25, 1
   8              		.eabi_attribute 26, 1
   9              		.eabi_attribute 30, 6
  10              		.eabi_attribute 34, 0
  11              		.eabi_attribute 18, 4
  12              		.code	16
  13              		.file	"BLEApplications.c"
  14              		.text
  15              	.Ltext0:
  16              		.cfi_sections	.debug_frame
  17              		.comm	rgbHandle,12,4
  18              		.global	sendCapSenseSliderNotifications
  19              		.bss
  20              		.type	sendCapSenseSliderNotifications, %object
  21              		.size	sendCapSenseSliderNotifications, 1
  22              	sendCapSenseSliderNotifications:
  23 0000 00       		.space	1
  24              		.comm	RGBledData,4,4
  25              		.global	deviceConnected
  26              		.type	deviceConnected, %object
  27              		.size	deviceConnected, 1
  28              	deviceConnected:
  29 0001 00       		.space	1
  30              		.global	updateNotificationCCCAttribute
  31              		.type	updateNotificationCCCAttribute, %object
  32              		.size	updateNotificationCCCAttribute, 1
  33              	updateNotificationCCCAttribute:
  34 0002 00       		.space	1
  35              		.global	enterHibernateFlag
  36              		.type	enterHibernateFlag, %object
  37              		.size	enterHibernateFlag, 1
  38              	enterHibernateFlag:
  39 0003 00       		.space	1
  40              		.section	.text.CustomEventHandler,"ax",%progbits
  41              		.align	2
  42              		.global	CustomEventHandler
  43              		.code	16
  44              		.thumb_func
  45              		.type	CustomEventHandler, %function
  46              	CustomEventHandler:
  47              	.LFB35:
  48              		.file 1 ".\\BLEApplications.c"
   1:.\BLEApplications.c **** /*****************************************************************************
   2:.\BLEApplications.c **** * File Name: BleApplications.c
   3:.\BLEApplications.c **** *
   4:.\BLEApplications.c **** * Version: 1.0
   5:.\BLEApplications.c **** *
   6:.\BLEApplications.c **** * Description:
   7:.\BLEApplications.c **** * This file implements the BLE capability in the PSoC 4 BLE Lab 4.
   8:.\BLEApplications.c **** *
   9:.\BLEApplications.c **** * Hardware Dependency:
ARM GAS  C:\Users\jsing\AppData\Local\Temp\ccFY32ST.s 			page 2


  10:.\BLEApplications.c **** * CY8CKIT-042 BLE Pioneer Kit
  11:.\BLEApplications.c **** *
  12:.\BLEApplications.c **** ******************************************************************************
  13:.\BLEApplications.c **** * Copyright (2014), Cypress Semiconductor Corporation.
  14:.\BLEApplications.c **** ******************************************************************************
  15:.\BLEApplications.c **** * This software is owned by Cypress Semiconductor Corporation (Cypress) and is
  16:.\BLEApplications.c **** * protected by and subject to worldwide patent protection (United States and
  17:.\BLEApplications.c **** * foreign), United States copyright laws and international treaty provisions.
  18:.\BLEApplications.c **** * Cypress hereby grants to licensee a personal, non-exclusive, non-transferable
  19:.\BLEApplications.c **** * license to copy, use, modify, create derivative works of, and compile the
  20:.\BLEApplications.c **** * Cypress Source Code and derivative works for the sole purpose of creating
  21:.\BLEApplications.c **** * custom software in support of licensee product to be used only in conjunction
  22:.\BLEApplications.c **** * with a Cypress integrated circuit as specified in the applicable agreement.
  23:.\BLEApplications.c **** * Any reproduction, modification, translation, compilation, or representation of
  24:.\BLEApplications.c **** * this software except as specified above is prohibited without the express
  25:.\BLEApplications.c **** * written permission of Cypress.
  26:.\BLEApplications.c **** *
  27:.\BLEApplications.c **** * Disclaimer: CYPRESS MAKES NO WARRANTY OF ANY KIND, EXPRESS OR IMPLIED, WITH
  28:.\BLEApplications.c **** * REGARD TO THIS MATERIAL, INCLUDING, BUT NOT LIMITED TO, THE IMPLIED
  29:.\BLEApplications.c **** * WARRANTIES OF MERCHANTABILITY AND FITNESS FOR A PARTICULAR PURPOSE.
  30:.\BLEApplications.c **** * Cypress reserves the right to make changes without further notice to the
  31:.\BLEApplications.c **** * materials described herein. Cypress does not assume any liability arising out
  32:.\BLEApplications.c **** * of the application or use of any product or circuit described herein. Cypress
  33:.\BLEApplications.c **** * does not authorize its products for use as critical components in life-support
  34:.\BLEApplications.c **** * systems where a malfunction or failure may reasonably be expected to result in
  35:.\BLEApplications.c **** * significant injury to the user. The inclusion of Cypress' product in a life-
  36:.\BLEApplications.c **** * support systems application implies that the manufacturer assumes all risk of
  37:.\BLEApplications.c **** * such use and in doing so indemnifies Cypress against all charges. Use may be
  38:.\BLEApplications.c **** * limited by and subject to the applicable Cypress software license agreement.
  39:.\BLEApplications.c **** *****************************************************************************/
  40:.\BLEApplications.c **** 
  41:.\BLEApplications.c **** /*****************************************************************************
  42:.\BLEApplications.c **** * Included headers
  43:.\BLEApplications.c **** *****************************************************************************/
  44:.\BLEApplications.c **** #include <main.h>
  45:.\BLEApplications.c **** #include <BLEApplications.h>
  46:.\BLEApplications.c **** #include <stdbool.h>
  47:.\BLEApplications.c **** 
  48:.\BLEApplications.c **** 
  49:.\BLEApplications.c **** 
  50:.\BLEApplications.c **** /*****************************************************************************
  51:.\BLEApplications.c **** * Static variables 
  52:.\BLEApplications.c **** *****************************************************************************/
  53:.\BLEApplications.c **** 
  54:.\BLEApplications.c **** /* 'rgbHandle' stores RGB control data parameters */
  55:.\BLEApplications.c **** CYBLE_GATT_HANDLE_VALUE_PAIR_T		rgbHandle;	
  56:.\BLEApplications.c **** 
  57:.\BLEApplications.c **** /*This flag is set when the Central device writes to CCC (Client Characteristic 
  58:.\BLEApplications.c **** * Configuration) of the CapSense slider Characteristic to enable notifications */
  59:.\BLEApplications.c **** uint8 sendCapSenseSliderNotifications = FALSE;	
  60:.\BLEApplications.c **** 
  61:.\BLEApplications.c **** /* Array to store the present RGB LED control data. The 4 bytes 
  62:.\BLEApplications.c **** * of the array represents {R, G, B, Intensity} */
  63:.\BLEApplications.c **** uint8 RGBledData[RGB_CHAR_DATA_LEN];
  64:.\BLEApplications.c **** 
  65:.\BLEApplications.c **** /* This flag is used by application to know whether a Central 
  66:.\BLEApplications.c **** * device has been connected. This is updated in BLE event callback 
ARM GAS  C:\Users\jsing\AppData\Local\Temp\ccFY32ST.s 			page 3


  67:.\BLEApplications.c **** * function*/
  68:.\BLEApplications.c **** uint8 deviceConnected = FALSE;
  69:.\BLEApplications.c **** 
  70:.\BLEApplications.c **** /* This flag is used to let application update the CCCD value for correct read 
  71:.\BLEApplications.c **** * operation by connected Central device */
  72:.\BLEApplications.c **** uint8 updateNotificationCCCAttribute = FALSE;
  73:.\BLEApplications.c **** 
  74:.\BLEApplications.c **** bool enterHibernateFlag = false;
  75:.\BLEApplications.c **** 
  76:.\BLEApplications.c **** 
  77:.\BLEApplications.c **** 
  78:.\BLEApplications.c **** /*******************************************************************************
  79:.\BLEApplications.c **** * Function Name: CustomEventHandler
  80:.\BLEApplications.c **** ********************************************************************************
  81:.\BLEApplications.c **** * Summary:
  82:.\BLEApplications.c **** * Call back event function to handle various events from BLE stack
  83:.\BLEApplications.c **** *
  84:.\BLEApplications.c **** * Parameters:
  85:.\BLEApplications.c **** *  event:		event returned
  86:.\BLEApplications.c **** *  eventParam:	link to value of the events returned
  87:.\BLEApplications.c **** *
  88:.\BLEApplications.c **** * Return:
  89:.\BLEApplications.c **** *  void
  90:.\BLEApplications.c **** *
  91:.\BLEApplications.c **** *******************************************************************************/
  92:.\BLEApplications.c **** void CustomEventHandler(uint32 event, void * eventParam)
  93:.\BLEApplications.c **** {
  49              		.loc 1 93 0
  50              		.cfi_startproc
  51 0000 80B5     		push	{r7, lr}
  52              		.cfi_def_cfa_offset 8
  53              		.cfi_offset 7, -8
  54              		.cfi_offset 14, -4
  55 0002 84B0     		sub	sp, sp, #16
  56              		.cfi_def_cfa_offset 24
  57 0004 00AF     		add	r7, sp, #0
  58              		.cfi_def_cfa_register 7
  59 0006 7860     		str	r0, [r7, #4]
  60 0008 3960     		str	r1, [r7]
  94:.\BLEApplications.c **** 	CYBLE_GATTS_WRITE_REQ_PARAM_T *wrReqParam;
  95:.\BLEApplications.c ****    
  96:.\BLEApplications.c ****     switch(event)
  61              		.loc 1 96 0
  62 000a 7B68     		ldr	r3, [r7, #4]
  63 000c 282B     		cmp	r3, #40
  64 000e 10D0     		beq	.L3
  65 0010 04D8     		bhi	.L4
  66 0012 012B     		cmp	r3, #1
  67 0014 09D0     		beq	.L5
  68 0016 262B     		cmp	r3, #38
  69 0018 0FD0     		beq	.L6
  97:.\BLEApplications.c ****     {
  98:.\BLEApplications.c ****         case CYBLE_EVT_STACK_ON:
  99:.\BLEApplications.c ****             CyBle_GappStartAdvertisement(CYBLE_ADVERTISING_FAST);
 100:.\BLEApplications.c ****             break;
 101:.\BLEApplications.c **** 
 102:.\BLEApplications.c ****         case CYBLE_EVT_GAP_DEVICE_DISCONNECTED:
ARM GAS  C:\Users\jsing\AppData\Local\Temp\ccFY32ST.s 			page 4


 103:.\BLEApplications.c **** 			/* Start Advertisement and enter Discoverable mode*/
 104:.\BLEApplications.c **** 			//CyBle_GappStartAdvertisement(CYBLE_ADVERTISING_FAST);
 105:.\BLEApplications.c ****             enterHibernateFlag = true;
 106:.\BLEApplications.c **** 			break;
 107:.\BLEApplications.c **** 			
 108:.\BLEApplications.c **** 		case CYBLE_EVT_GAPP_ADVERTISEMENT_START_STOP:
 109:.\BLEApplications.c **** 			/* Set the BLE state variable to control LED status */
 110:.\BLEApplications.c ****              enterHibernateFlag = true;
 111:.\BLEApplications.c **** 
 112:.\BLEApplications.c **** 			break;
 113:.\BLEApplications.c **** 			
 114:.\BLEApplications.c ****         case CYBLE_EVT_GATT_CONNECT_IND:
 115:.\BLEApplications.c **** 			/* This flag is used in application to check connection status */
 116:.\BLEApplications.c **** 			deviceConnected = TRUE;
 117:.\BLEApplications.c **** 			break;
 118:.\BLEApplications.c ****         
 119:.\BLEApplications.c ****         case CYBLE_EVT_GATT_DISCONNECT_IND:
 120:.\BLEApplications.c **** 			/* Update deviceConnected flag*/
 121:.\BLEApplications.c **** 			deviceConnected = FALSE;
 122:.\BLEApplications.c **** 			
 123:.\BLEApplications.c **** 			/* Reset CapSense notification flag to prevent further notifications
 124:.\BLEApplications.c **** 			 * being sent to Central device after next connection. */
 125:.\BLEApplications.c **** 			sendCapSenseSliderNotifications = FALSE;
 126:.\BLEApplications.c **** 			
 127:.\BLEApplications.c **** 			/* Reset the CCCD value to disable notifications */
 128:.\BLEApplications.c **** 			updateNotificationCCCAttribute = TRUE;
 129:.\BLEApplications.c **** 			
 130:.\BLEApplications.c **** 			/* Reset the color coordinates */
 131:.\BLEApplications.c **** 			RGBledData[RED_INDEX] = ZERO;
 132:.\BLEApplications.c ****             RGBledData[GREEN_INDEX] = ZERO;
 133:.\BLEApplications.c ****             RGBledData[BLUE_INDEX] = ZERO;
 134:.\BLEApplications.c ****             RGBledData[INTENSITY_INDEX] = ZERO;
 135:.\BLEApplications.c **** 			UpdateRGBled();
 136:.\BLEApplications.c **** 
 137:.\BLEApplications.c **** 			break;
 138:.\BLEApplications.c ****         
 139:.\BLEApplications.c ****             
 140:.\BLEApplications.c ****         case CYBLE_EVT_GATTS_WRITE_REQ: 							
 141:.\BLEApplications.c ****             /* This event is received when Central device sends a Write command 
 142:.\BLEApplications.c ****              * on an Attribute. 
 143:.\BLEApplications.c ****              * We first get the attribute handle from the event parameter and 
 144:.\BLEApplications.c ****              * then try to match that handle with an attribute in the database.
 145:.\BLEApplications.c ****              */
 146:.\BLEApplications.c ****             wrReqParam = (CYBLE_GATTS_WRITE_REQ_PARAM_T *) eventParam;
 147:.\BLEApplications.c ****             
 148:.\BLEApplications.c **** 
 149:.\BLEApplications.c ****             /* This condition checks whether the RGB LED characteristic was
 150:.\BLEApplications.c ****              * written to by matching the attribute handle.
 151:.\BLEApplications.c ****              * If the attribute handle matches, then the value written to the 
 152:.\BLEApplications.c ****              * attribute is extracted and used to drive RGB LED.
 153:.\BLEApplications.c ****              */
 154:.\BLEApplications.c ****             
 155:.\BLEApplications.c ****             /* Extract the attribute handle for the RGB LED 
 156:.\BLEApplications.c ****              * characteristic from the custom service data structure.
 157:.\BLEApplications.c ****              */
 158:.\BLEApplications.c ****             if(wrReqParam->handleValPair.attrHandle == cyBle_customs[RGB_LED_SERVICE_INDEX].\
 159:.\BLEApplications.c **** 								customServiceInfo[RGB_LED_CHAR_INDEX].customServiceCharHandle)
ARM GAS  C:\Users\jsing\AppData\Local\Temp\ccFY32ST.s 			page 5


 160:.\BLEApplications.c ****             {
 161:.\BLEApplications.c ****                 /* Extract the value of the attribute from the handle-value pair 
 162:.\BLEApplications.c ****                  * database. */
 163:.\BLEApplications.c ****                 RGBledData[RED_INDEX] = wrReqParam->handleValPair.value.val[RED_INDEX];
 164:.\BLEApplications.c ****                 RGBledData[GREEN_INDEX] = wrReqParam->handleValPair.value.val[GREEN_INDEX];
 165:.\BLEApplications.c ****                 RGBledData[BLUE_INDEX] = wrReqParam->handleValPair.value.val[BLUE_INDEX];
 166:.\BLEApplications.c ****                 RGBledData[INTENSITY_INDEX] = wrReqParam->handleValPair.value.val[INTENSITY_INDEX];
 167:.\BLEApplications.c ****                 
 168:.\BLEApplications.c ****                 /* Update the PrISM components and the attribute for RGB LED read 
 169:.\BLEApplications.c ****                  * characteristics */
 170:.\BLEApplications.c ****                 UpdateRGBled();
 171:.\BLEApplications.c ****             }
 172:.\BLEApplications.c **** 
 173:.\BLEApplications.c ****             
 174:.\BLEApplications.c ****             /* This condition checks whether the CCCD descriptor for CapSense
 175:.\BLEApplications.c ****              * slider characteristic has been written to. This tells us whether
 176:.\BLEApplications.c ****              * the notifications for CapSense slider have been enabled/disabled.
 177:.\BLEApplications.c ****              */
 178:.\BLEApplications.c ****             if(wrReqParam->handleValPair.attrHandle == cyBle_customs[CAPSENSE_SERVICE_INDEX].\
 179:.\BLEApplications.c **** 				customServiceInfo[CAPSENSE_SLIDER_CHAR_INDEX].customServiceCharDescriptors[CAPSENSE_SLIDER_CCC_
 180:.\BLEApplications.c ****             {
 181:.\BLEApplications.c ****                 sendCapSenseSliderNotifications = wrReqParam->handleValPair.value.val[CCC_DATA_INDE
 182:.\BLEApplications.c **** 				
 183:.\BLEApplications.c **** 				/* Set flag to allow CCCD to be updated for next read operation */
 184:.\BLEApplications.c **** 				updateNotificationCCCAttribute = TRUE;
 185:.\BLEApplications.c ****             }
 186:.\BLEApplications.c **** 
 187:.\BLEApplications.c **** 			
 188:.\BLEApplications.c **** 			/* Send the response to the write request received. */
 189:.\BLEApplications.c **** 			CyBle_GattsWriteRsp(cyBle_connHandle);
 190:.\BLEApplications.c **** 			
 191:.\BLEApplications.c **** 			break;
 192:.\BLEApplications.c **** 
 193:.\BLEApplications.c ****         default:
 194:.\BLEApplications.c **** 
 195:.\BLEApplications.c ****        	 	break;
  70              		.loc 1 195 0
  71 001a 69E0     		b	.L1
  72              	.L4:
  96:.\BLEApplications.c ****     switch(event)
  73              		.loc 1 96 0
  74 001c 422B     		cmp	r3, #66
  75 001e 14D0     		beq	.L7
  76 0020 4C2B     		cmp	r3, #76
  77 0022 2AD0     		beq	.L8
  78 0024 412B     		cmp	r3, #65
  79 0026 0CD0     		beq	.L9
  80              		.loc 1 195 0
  81 0028 62E0     		b	.L1
  82              	.L5:
  99:.\BLEApplications.c ****             CyBle_GappStartAdvertisement(CYBLE_ADVERTISING_FAST);
  83              		.loc 1 99 0
  84 002a 0020     		mov	r0, #0
  85 002c FFF7FEFF 		bl	CyBle_GappStartAdvertisement
 100:.\BLEApplications.c ****             break;
  86              		.loc 1 100 0
  87 0030 5EE0     		b	.L1
ARM GAS  C:\Users\jsing\AppData\Local\Temp\ccFY32ST.s 			page 6


  88              	.L3:
 105:.\BLEApplications.c ****             enterHibernateFlag = true;
  89              		.loc 1 105 0
  90 0032 314B     		ldr	r3, .L13
  91 0034 0122     		mov	r2, #1
  92 0036 1A70     		strb	r2, [r3]
 106:.\BLEApplications.c **** 			break;
  93              		.loc 1 106 0
  94 0038 5AE0     		b	.L1
  95              	.L6:
 110:.\BLEApplications.c ****              enterHibernateFlag = true;
  96              		.loc 1 110 0
  97 003a 2F4B     		ldr	r3, .L13
  98 003c 0122     		mov	r2, #1
  99 003e 1A70     		strb	r2, [r3]
 112:.\BLEApplications.c **** 			break;
 100              		.loc 1 112 0
 101 0040 56E0     		b	.L1
 102              	.L9:
 116:.\BLEApplications.c **** 			deviceConnected = TRUE;
 103              		.loc 1 116 0
 104 0042 2E4B     		ldr	r3, .L13+4
 105 0044 0122     		mov	r2, #1
 106 0046 1A70     		strb	r2, [r3]
 117:.\BLEApplications.c **** 			break;
 107              		.loc 1 117 0
 108 0048 52E0     		b	.L1
 109              	.L7:
 121:.\BLEApplications.c **** 			deviceConnected = FALSE;
 110              		.loc 1 121 0
 111 004a 2C4B     		ldr	r3, .L13+4
 112 004c 0022     		mov	r2, #0
 113 004e 1A70     		strb	r2, [r3]
 125:.\BLEApplications.c **** 			sendCapSenseSliderNotifications = FALSE;
 114              		.loc 1 125 0
 115 0050 2B4B     		ldr	r3, .L13+8
 116 0052 0022     		mov	r2, #0
 117 0054 1A70     		strb	r2, [r3]
 128:.\BLEApplications.c **** 			updateNotificationCCCAttribute = TRUE;
 118              		.loc 1 128 0
 119 0056 2B4B     		ldr	r3, .L13+12
 120 0058 0122     		mov	r2, #1
 121 005a 1A70     		strb	r2, [r3]
 131:.\BLEApplications.c **** 			RGBledData[RED_INDEX] = ZERO;
 122              		.loc 1 131 0
 123 005c 2A4B     		ldr	r3, .L13+16
 124 005e 0022     		mov	r2, #0
 125 0060 1A70     		strb	r2, [r3]
 132:.\BLEApplications.c ****             RGBledData[GREEN_INDEX] = ZERO;
 126              		.loc 1 132 0
 127 0062 294B     		ldr	r3, .L13+16
 128 0064 0022     		mov	r2, #0
 129 0066 5A70     		strb	r2, [r3, #1]
 133:.\BLEApplications.c ****             RGBledData[BLUE_INDEX] = ZERO;
 130              		.loc 1 133 0
 131 0068 274B     		ldr	r3, .L13+16
 132 006a 0022     		mov	r2, #0
ARM GAS  C:\Users\jsing\AppData\Local\Temp\ccFY32ST.s 			page 7


 133 006c 9A70     		strb	r2, [r3, #2]
 134:.\BLEApplications.c ****             RGBledData[INTENSITY_INDEX] = ZERO;
 134              		.loc 1 134 0
 135 006e 264B     		ldr	r3, .L13+16
 136 0070 0022     		mov	r2, #0
 137 0072 DA70     		strb	r2, [r3, #3]
 135:.\BLEApplications.c **** 			UpdateRGBled();
 138              		.loc 1 135 0
 139 0074 FFF7FEFF 		bl	UpdateRGBled
 137:.\BLEApplications.c **** 			break;
 140              		.loc 1 137 0
 141 0078 3AE0     		b	.L1
 142              	.L8:
 146:.\BLEApplications.c ****             wrReqParam = (CYBLE_GATTS_WRITE_REQ_PARAM_T *) eventParam;
 143              		.loc 1 146 0
 144 007a 3B68     		ldr	r3, [r7]
 145 007c FB60     		str	r3, [r7, #12]
 158:.\BLEApplications.c ****             if(wrReqParam->handleValPair.attrHandle == cyBle_customs[RGB_LED_SERVICE_INDEX].\
 146              		.loc 1 158 0
 147 007e FB68     		ldr	r3, [r7, #12]
 148 0080 9A89     		ldrh	r2, [r3, #12]
 159:.\BLEApplications.c **** 								customServiceInfo[RGB_LED_CHAR_INDEX].customServiceCharHandle)
 149              		.loc 1 159 0
 150 0082 224B     		ldr	r3, .L13+20
 151 0084 5B89     		ldrh	r3, [r3, #10]
 158:.\BLEApplications.c ****             if(wrReqParam->handleValPair.attrHandle == cyBle_customs[RGB_LED_SERVICE_INDEX].\
 152              		.loc 1 158 0
 153 0086 9A42     		cmp	r2, r3
 154 0088 15D1     		bne	.L11
 163:.\BLEApplications.c ****                 RGBledData[RED_INDEX] = wrReqParam->handleValPair.value.val[RED_INDEX];
 155              		.loc 1 163 0
 156 008a FB68     		ldr	r3, [r7, #12]
 157 008c 5B68     		ldr	r3, [r3, #4]
 158 008e 1A78     		ldrb	r2, [r3]
 159 0090 1D4B     		ldr	r3, .L13+16
 160 0092 1A70     		strb	r2, [r3]
 164:.\BLEApplications.c ****                 RGBledData[GREEN_INDEX] = wrReqParam->handleValPair.value.val[GREEN_INDEX];
 161              		.loc 1 164 0
 162 0094 FB68     		ldr	r3, [r7, #12]
 163 0096 5B68     		ldr	r3, [r3, #4]
 164 0098 5A78     		ldrb	r2, [r3, #1]
 165 009a 1B4B     		ldr	r3, .L13+16
 166 009c 5A70     		strb	r2, [r3, #1]
 165:.\BLEApplications.c ****                 RGBledData[BLUE_INDEX] = wrReqParam->handleValPair.value.val[BLUE_INDEX];
 167              		.loc 1 165 0
 168 009e FB68     		ldr	r3, [r7, #12]
 169 00a0 5B68     		ldr	r3, [r3, #4]
 170 00a2 9A78     		ldrb	r2, [r3, #2]
 171 00a4 184B     		ldr	r3, .L13+16
 172 00a6 9A70     		strb	r2, [r3, #2]
 166:.\BLEApplications.c ****                 RGBledData[INTENSITY_INDEX] = wrReqParam->handleValPair.value.val[INTENSITY_INDEX];
 173              		.loc 1 166 0
 174 00a8 FB68     		ldr	r3, [r7, #12]
 175 00aa 5B68     		ldr	r3, [r3, #4]
 176 00ac DA78     		ldrb	r2, [r3, #3]
 177 00ae 164B     		ldr	r3, .L13+16
 178 00b0 DA70     		strb	r2, [r3, #3]
ARM GAS  C:\Users\jsing\AppData\Local\Temp\ccFY32ST.s 			page 8


 170:.\BLEApplications.c ****                 UpdateRGBled();
 179              		.loc 1 170 0
 180 00b2 FFF7FEFF 		bl	UpdateRGBled
 181              	.L11:
 178:.\BLEApplications.c ****             if(wrReqParam->handleValPair.attrHandle == cyBle_customs[CAPSENSE_SERVICE_INDEX].\
 182              		.loc 1 178 0
 183 00b6 FB68     		ldr	r3, [r7, #12]
 184 00b8 9A89     		ldrh	r2, [r3, #12]
 179:.\BLEApplications.c **** 				customServiceInfo[CAPSENSE_SLIDER_CHAR_INDEX].customServiceCharDescriptors[CAPSENSE_SLIDER_CCC_
 185              		.loc 1 179 0
 186 00ba 144B     		ldr	r3, .L13+20
 187 00bc 9B88     		ldrh	r3, [r3, #4]
 178:.\BLEApplications.c ****             if(wrReqParam->handleValPair.attrHandle == cyBle_customs[CAPSENSE_SERVICE_INDEX].\
 188              		.loc 1 178 0
 189 00be 9A42     		cmp	r2, r3
 190 00c0 07D1     		bne	.L12
 181:.\BLEApplications.c ****                 sendCapSenseSliderNotifications = wrReqParam->handleValPair.value.val[CCC_DATA_INDE
 191              		.loc 1 181 0
 192 00c2 FB68     		ldr	r3, [r7, #12]
 193 00c4 5B68     		ldr	r3, [r3, #4]
 194 00c6 1A78     		ldrb	r2, [r3]
 195 00c8 0D4B     		ldr	r3, .L13+8
 196 00ca 1A70     		strb	r2, [r3]
 184:.\BLEApplications.c **** 				updateNotificationCCCAttribute = TRUE;
 197              		.loc 1 184 0
 198 00cc 0D4B     		ldr	r3, .L13+12
 199 00ce 0122     		mov	r2, #1
 200 00d0 1A70     		strb	r2, [r3]
 201              	.L12:
 189:.\BLEApplications.c **** 			CyBle_GattsWriteRsp(cyBle_connHandle);
 202              		.loc 1 189 0
 203 00d2 0F4B     		ldr	r3, .L13+24
 204 00d4 1A78     		ldrb	r2, [r3]
 205 00d6 5B78     		ldrb	r3, [r3, #1]
 206 00d8 1B02     		lsl	r3, r3, #8
 207 00da 1A43     		orr	r2, r3
 208 00dc 0023     		mov	r3, #0
 209 00de 1204     		lsl	r2, r2, #16
 210 00e0 120C     		lsr	r2, r2, #16
 211 00e2 1B0C     		lsr	r3, r3, #16
 212 00e4 1B04     		lsl	r3, r3, #16
 213 00e6 1343     		orr	r3, r2
 214 00e8 181C     		mov	r0, r3
 215 00ea FFF7FEFF 		bl	CyBle_GattsWriteRsp
 191:.\BLEApplications.c **** 			break;
 216              		.loc 1 191 0
 217 00ee C046     		mov	r8, r8
 218              	.L1:
 196:.\BLEApplications.c ****     }
 197:.\BLEApplications.c **** }
 219              		.loc 1 197 0
 220 00f0 BD46     		mov	sp, r7
 221 00f2 04B0     		add	sp, sp, #16
 222              		@ sp needed
 223 00f4 80BD     		pop	{r7, pc}
 224              	.L14:
 225 00f6 C046     		.align	2
ARM GAS  C:\Users\jsing\AppData\Local\Temp\ccFY32ST.s 			page 9


 226              	.L13:
 227 00f8 00000000 		.word	enterHibernateFlag
 228 00fc 00000000 		.word	deviceConnected
 229 0100 00000000 		.word	sendCapSenseSliderNotifications
 230 0104 00000000 		.word	updateNotificationCCCAttribute
 231 0108 00000000 		.word	RGBledData
 232 010c 00000000 		.word	cyBle_customs
 233 0110 00000000 		.word	cyBle_connHandle
 234              		.cfi_endproc
 235              	.LFE35:
 236              		.size	CustomEventHandler, .-CustomEventHandler
 237              		.section	.text.SendCapSenseNotification,"ax",%progbits
 238              		.align	2
 239              		.global	SendCapSenseNotification
 240              		.code	16
 241              		.thumb_func
 242              		.type	SendCapSenseNotification, %function
 243              	SendCapSenseNotification:
 244              	.LFB36:
 198:.\BLEApplications.c **** 
 199:.\BLEApplications.c **** 
 200:.\BLEApplications.c **** /*******************************************************************************
 201:.\BLEApplications.c **** * Function Name: SendCapSenseNotification
 202:.\BLEApplications.c **** ********************************************************************************
 203:.\BLEApplications.c **** * Summary:
 204:.\BLEApplications.c **** * Send CapSense Slider data as BLE Notifications. This function updates
 205:.\BLEApplications.c **** * the notification handle with data and triggers the BLE component to send 
 206:.\BLEApplications.c **** * notification
 207:.\BLEApplications.c **** *
 208:.\BLEApplications.c **** * Parameters:
 209:.\BLEApplications.c **** *  CapSenseSliderData:	CapSense slider value	
 210:.\BLEApplications.c **** *
 211:.\BLEApplications.c **** * Return:
 212:.\BLEApplications.c **** *  void
 213:.\BLEApplications.c **** *
 214:.\BLEApplications.c **** *******************************************************************************/
 215:.\BLEApplications.c **** void SendCapSenseNotification(uint8 CapSenseSliderData)
 216:.\BLEApplications.c **** {
 245              		.loc 1 216 0
 246              		.cfi_startproc
 247 0000 80B5     		push	{r7, lr}
 248              		.cfi_def_cfa_offset 8
 249              		.cfi_offset 7, -8
 250              		.cfi_offset 14, -4
 251 0002 86B0     		sub	sp, sp, #24
 252              		.cfi_def_cfa_offset 32
 253 0004 00AF     		add	r7, sp, #0
 254              		.cfi_def_cfa_register 7
 255 0006 021C     		mov	r2, r0
 256 0008 FB1D     		add	r3, r7, #7
 257 000a 1A70     		strb	r2, [r3]
 217:.\BLEApplications.c **** 	/* 'CapSensenotificationHandle' stores CapSense notification data parameters */
 218:.\BLEApplications.c **** 	CYBLE_GATTS_HANDLE_VALUE_NTF_T		CapSensenotificationHandle;	
 219:.\BLEApplications.c **** 	
 220:.\BLEApplications.c **** 	/* Update notification handle with CapSense slider data*/
 221:.\BLEApplications.c **** 	CapSensenotificationHandle.attrHandle = CAPSENSE_SLIDER_CHAR_HANDLE;				
 258              		.loc 1 221 0
ARM GAS  C:\Users\jsing\AppData\Local\Temp\ccFY32ST.s 			page 10


 259 000c 3B1C     		mov	r3, r7
 260 000e 0C33     		add	r3, r3, #12
 261 0010 0E22     		mov	r2, #14
 262 0012 1A81     		strh	r2, [r3, #8]
 222:.\BLEApplications.c **** 	CapSensenotificationHandle.value.val = &CapSenseSliderData;
 263              		.loc 1 222 0
 264 0014 3B1C     		mov	r3, r7
 265 0016 0C33     		add	r3, r3, #12
 266 0018 FA1D     		add	r2, r7, #7
 267 001a 1A60     		str	r2, [r3]
 223:.\BLEApplications.c **** 	CapSensenotificationHandle.value.len = CAPSENSE_CHAR_DATA_LEN;
 268              		.loc 1 223 0
 269 001c 3B1C     		mov	r3, r7
 270 001e 0C33     		add	r3, r3, #12
 271 0020 0122     		mov	r2, #1
 272 0022 9A80     		strh	r2, [r3, #4]
 224:.\BLEApplications.c **** 	
 225:.\BLEApplications.c **** 	/* Send notifications. */
 226:.\BLEApplications.c **** 	CyBle_GattsNotification(cyBle_connHandle, &CapSensenotificationHandle);
 273              		.loc 1 226 0
 274 0024 094B     		ldr	r3, .L16
 275 0026 3A1C     		mov	r2, r7
 276 0028 0C32     		add	r2, r2, #12
 277 002a 1978     		ldrb	r1, [r3]
 278 002c 5B78     		ldrb	r3, [r3, #1]
 279 002e 1B02     		lsl	r3, r3, #8
 280 0030 1943     		orr	r1, r3
 281 0032 0023     		mov	r3, #0
 282 0034 0904     		lsl	r1, r1, #16
 283 0036 090C     		lsr	r1, r1, #16
 284 0038 1B0C     		lsr	r3, r3, #16
 285 003a 1B04     		lsl	r3, r3, #16
 286 003c 0B43     		orr	r3, r1
 287 003e 181C     		mov	r0, r3
 288 0040 111C     		mov	r1, r2
 289 0042 FFF7FEFF 		bl	CyBle_GattsNotification
 227:.\BLEApplications.c **** }
 290              		.loc 1 227 0
 291 0046 BD46     		mov	sp, r7
 292 0048 06B0     		add	sp, sp, #24
 293              		@ sp needed
 294 004a 80BD     		pop	{r7, pc}
 295              	.L17:
 296              		.align	2
 297              	.L16:
 298 004c 00000000 		.word	cyBle_connHandle
 299              		.cfi_endproc
 300              	.LFE36:
 301              		.size	SendCapSenseNotification, .-SendCapSenseNotification
 302              		.global	__aeabi_idiv
 303              		.section	.text.UpdateRGBled,"ax",%progbits
 304              		.align	2
 305              		.global	UpdateRGBled
 306              		.code	16
 307              		.thumb_func
 308              		.type	UpdateRGBled, %function
 309              	UpdateRGBled:
ARM GAS  C:\Users\jsing\AppData\Local\Temp\ccFY32ST.s 			page 11


 310              	.LFB37:
 228:.\BLEApplications.c **** 
 229:.\BLEApplications.c **** 
 230:.\BLEApplications.c **** /*******************************************************************************
 231:.\BLEApplications.c **** * Function Name: UpdateRGBled
 232:.\BLEApplications.c **** ********************************************************************************
 233:.\BLEApplications.c **** * Summary:
 234:.\BLEApplications.c **** * Receive the new RGB data and modify PrISM parameters. Also, update the
 235:.\BLEApplications.c **** * read characteristic handle so that the next read from the BLE central device
 236:.\BLEApplications.c **** * gives present RGB color and intensity data.
 237:.\BLEApplications.c **** *
 238:.\BLEApplications.c **** * Parameters:
 239:.\BLEApplications.c **** *  void
 240:.\BLEApplications.c **** *
 241:.\BLEApplications.c **** * Return:
 242:.\BLEApplications.c **** *  void
 243:.\BLEApplications.c **** *
 244:.\BLEApplications.c **** *******************************************************************************/
 245:.\BLEApplications.c **** void UpdateRGBled(void)
 246:.\BLEApplications.c **** {
 311              		.loc 1 246 0
 312              		.cfi_startproc
 313 0000 80B5     		push	{r7, lr}
 314              		.cfi_def_cfa_offset 8
 315              		.cfi_offset 7, -8
 316              		.cfi_offset 14, -4
 317 0002 82B0     		sub	sp, sp, #8
 318              		.cfi_def_cfa_offset 16
 319 0004 00AF     		add	r7, sp, #0
 320              		.cfi_def_cfa_register 7
 247:.\BLEApplications.c **** 	/* Local variables to calculate the color components from RGB received data*/
 248:.\BLEApplications.c **** 	uint8 debug_red;
 249:.\BLEApplications.c **** 	uint8 debug_green;
 250:.\BLEApplications.c **** 	uint8 debug_blue;
 251:.\BLEApplications.c **** 	uint8 intensity_divide_value = RGBledData[INTENSITY_INDEX];
 321              		.loc 1 251 0
 322 0006 FB1D     		add	r3, r7, #7
 323 0008 2A4A     		ldr	r2, .L19
 324 000a D278     		ldrb	r2, [r2, #3]
 325 000c 1A70     		strb	r2, [r3]
 252:.\BLEApplications.c **** 	
 253:.\BLEApplications.c **** 	debug_red = (uint8)(((uint16)RGBledData[RED_INDEX] * intensity_divide_value) / 255);
 326              		.loc 1 253 0
 327 000e 294B     		ldr	r3, .L19
 328 0010 1B78     		ldrb	r3, [r3]
 329 0012 FA1D     		add	r2, r7, #7
 330 0014 1278     		ldrb	r2, [r2]
 331 0016 5343     		mul	r3, r2
 332 0018 181C     		mov	r0, r3
 333 001a FF21     		mov	r1, #255
 334 001c FFF7FEFF 		bl	__aeabi_idiv
 335 0020 031C     		mov	r3, r0
 336 0022 1A1C     		mov	r2, r3
 337 0024 BB1D     		add	r3, r7, #6
 338 0026 1A70     		strb	r2, [r3]
 254:.\BLEApplications.c **** 	debug_green = (uint8)(((uint16)RGBledData[GREEN_INDEX] * intensity_divide_value) / 255);
 339              		.loc 1 254 0
ARM GAS  C:\Users\jsing\AppData\Local\Temp\ccFY32ST.s 			page 12


 340 0028 224B     		ldr	r3, .L19
 341 002a 5B78     		ldrb	r3, [r3, #1]
 342 002c FA1D     		add	r2, r7, #7
 343 002e 1278     		ldrb	r2, [r2]
 344 0030 5343     		mul	r3, r2
 345 0032 181C     		mov	r0, r3
 346 0034 FF21     		mov	r1, #255
 347 0036 FFF7FEFF 		bl	__aeabi_idiv
 348 003a 031C     		mov	r3, r0
 349 003c 1A1C     		mov	r2, r3
 350 003e 7B1D     		add	r3, r7, #5
 351 0040 1A70     		strb	r2, [r3]
 255:.\BLEApplications.c **** 	debug_blue = (uint8)(((uint16)RGBledData[BLUE_INDEX] * intensity_divide_value) / 255);
 352              		.loc 1 255 0
 353 0042 1C4B     		ldr	r3, .L19
 354 0044 9B78     		ldrb	r3, [r3, #2]
 355 0046 FA1D     		add	r2, r7, #7
 356 0048 1278     		ldrb	r2, [r2]
 357 004a 5343     		mul	r3, r2
 358 004c 181C     		mov	r0, r3
 359 004e FF21     		mov	r1, #255
 360 0050 FFF7FEFF 		bl	__aeabi_idiv
 361 0054 031C     		mov	r3, r0
 362 0056 1A1C     		mov	r2, r3
 363 0058 3B1D     		add	r3, r7, #4
 364 005a 1A70     		strb	r2, [r3]
 256:.\BLEApplications.c **** 	
 257:.\BLEApplications.c **** 	/* Update the density value of the PrISM module for color control*/
 258:.\BLEApplications.c **** 	PRS_1_WritePulse0(RGB_LED_MAX_VAL - debug_red);
 365              		.loc 1 258 0
 366 005c BB1D     		add	r3, r7, #6
 367 005e 1B78     		ldrb	r3, [r3]
 368 0060 DB43     		mvn	r3, r3
 369 0062 DBB2     		uxtb	r3, r3
 370 0064 181C     		mov	r0, r3
 371 0066 FFF7FEFF 		bl	PRS_1_WritePulse0
 259:.\BLEApplications.c ****     PRS_1_WritePulse1(RGB_LED_MAX_VAL - debug_green);
 372              		.loc 1 259 0
 373 006a 7B1D     		add	r3, r7, #5
 374 006c 1B78     		ldrb	r3, [r3]
 375 006e DB43     		mvn	r3, r3
 376 0070 DBB2     		uxtb	r3, r3
 377 0072 181C     		mov	r0, r3
 378 0074 FFF7FEFF 		bl	PRS_1_WritePulse1
 260:.\BLEApplications.c ****     PRS_2_WritePulse0(RGB_LED_MAX_VAL - debug_blue);
 379              		.loc 1 260 0
 380 0078 3B1D     		add	r3, r7, #4
 381 007a 1B78     		ldrb	r3, [r3]
 382 007c DB43     		mvn	r3, r3
 383 007e DBB2     		uxtb	r3, r3
 384 0080 181C     		mov	r0, r3
 385 0082 FFF7FEFF 		bl	PRS_2_WritePulse0
 261:.\BLEApplications.c **** 	
 262:.\BLEApplications.c **** 	/* Update RGB control handle with new values */
 263:.\BLEApplications.c **** 	rgbHandle.attrHandle = RGB_LED_CHAR_HANDLE;
 386              		.loc 1 263 0
 387 0086 0C4B     		ldr	r3, .L19+4
ARM GAS  C:\Users\jsing\AppData\Local\Temp\ccFY32ST.s 			page 13


 388 0088 1322     		mov	r2, #19
 389 008a 1A81     		strh	r2, [r3, #8]
 264:.\BLEApplications.c **** 	rgbHandle.value.val = RGBledData;
 390              		.loc 1 264 0
 391 008c 0A4B     		ldr	r3, .L19+4
 392 008e 094A     		ldr	r2, .L19
 393 0090 1A60     		str	r2, [r3]
 265:.\BLEApplications.c **** 	rgbHandle.value.len = RGB_CHAR_DATA_LEN;
 394              		.loc 1 265 0
 395 0092 094B     		ldr	r3, .L19+4
 396 0094 0422     		mov	r2, #4
 397 0096 9A80     		strh	r2, [r3, #4]
 266:.\BLEApplications.c **** 	rgbHandle.value.actualLen = RGB_CHAR_DATA_LEN;
 398              		.loc 1 266 0
 399 0098 074B     		ldr	r3, .L19+4
 400 009a 0422     		mov	r2, #4
 401 009c DA80     		strh	r2, [r3, #6]
 267:.\BLEApplications.c **** 	
 268:.\BLEApplications.c **** 	/* Send updated RGB control handle as attribute for read by central device */
 269:.\BLEApplications.c **** 	CyBle_GattsWriteAttributeValue(&rgbHandle, FALSE, &cyBle_connHandle, FALSE);  
 402              		.loc 1 269 0
 403 009e 064A     		ldr	r2, .L19+4
 404 00a0 064B     		ldr	r3, .L19+8
 405 00a2 101C     		mov	r0, r2
 406 00a4 0021     		mov	r1, #0
 407 00a6 1A1C     		mov	r2, r3
 408 00a8 0023     		mov	r3, #0
 409 00aa FFF7FEFF 		bl	CyBle_GattsWriteAttributeValue
 270:.\BLEApplications.c **** }
 410              		.loc 1 270 0
 411 00ae BD46     		mov	sp, r7
 412 00b0 02B0     		add	sp, sp, #8
 413              		@ sp needed
 414 00b2 80BD     		pop	{r7, pc}
 415              	.L20:
 416              		.align	2
 417              	.L19:
 418 00b4 00000000 		.word	RGBledData
 419 00b8 00000000 		.word	rgbHandle
 420 00bc 00000000 		.word	cyBle_connHandle
 421              		.cfi_endproc
 422              	.LFE37:
 423              		.size	UpdateRGBled, .-UpdateRGBled
 424              		.section	.text.UpdateNotificationCCCD,"ax",%progbits
 425              		.align	2
 426              		.global	UpdateNotificationCCCD
 427              		.code	16
 428              		.thumb_func
 429              		.type	UpdateNotificationCCCD, %function
 430              	UpdateNotificationCCCD:
 431              	.LFB38:
 271:.\BLEApplications.c **** 
 272:.\BLEApplications.c **** 
 273:.\BLEApplications.c **** /*******************************************************************************
 274:.\BLEApplications.c **** * Function Name: UpdateNotificationCCCD
 275:.\BLEApplications.c **** ********************************************************************************
 276:.\BLEApplications.c **** * Summary:
ARM GAS  C:\Users\jsing\AppData\Local\Temp\ccFY32ST.s 			page 14


 277:.\BLEApplications.c **** * Update the data handle for notification status and report it to BLE 
 278:.\BLEApplications.c **** * component so that it can be read by Central device.
 279:.\BLEApplications.c **** *
 280:.\BLEApplications.c **** * Parameters:
 281:.\BLEApplications.c **** *  void
 282:.\BLEApplications.c **** *
 283:.\BLEApplications.c **** * Return:
 284:.\BLEApplications.c **** *  void
 285:.\BLEApplications.c **** *
 286:.\BLEApplications.c **** *******************************************************************************/
 287:.\BLEApplications.c **** void UpdateNotificationCCCD(void)
 288:.\BLEApplications.c **** {
 432              		.loc 1 288 0
 433              		.cfi_startproc
 434 0000 80B5     		push	{r7, lr}
 435              		.cfi_def_cfa_offset 8
 436              		.cfi_offset 7, -8
 437              		.cfi_offset 14, -4
 438 0002 84B0     		sub	sp, sp, #16
 439              		.cfi_def_cfa_offset 24
 440 0004 00AF     		add	r7, sp, #0
 441              		.cfi_def_cfa_register 7
 289:.\BLEApplications.c **** 	/* Local variable to store the current CCCD value */
 290:.\BLEApplications.c **** 	uint8 CapSenseCCCDvalue[2];
 291:.\BLEApplications.c **** 	
 292:.\BLEApplications.c **** 	/* Handle value to update the CCCD */
 293:.\BLEApplications.c **** 	CYBLE_GATT_HANDLE_VALUE_PAIR_T CapSenseNotificationCCCDhandle;
 294:.\BLEApplications.c **** 	
 295:.\BLEApplications.c **** 	/* Update notification attribute only when there has been change */
 296:.\BLEApplications.c **** 	if(updateNotificationCCCAttribute)
 442              		.loc 1 296 0
 443 0006 134B     		ldr	r3, .L23
 444 0008 1B78     		ldrb	r3, [r3]
 445 000a 002B     		cmp	r3, #0
 446 000c 1FD0     		beq	.L21
 297:.\BLEApplications.c **** 	{
 298:.\BLEApplications.c **** 		updateNotificationCCCAttribute = FALSE;
 447              		.loc 1 298 0
 448 000e 114B     		ldr	r3, .L23
 449 0010 0022     		mov	r2, #0
 450 0012 1A70     		strb	r2, [r3]
 299:.\BLEApplications.c **** 	
 300:.\BLEApplications.c **** 		/* Write the present CapSense notification status to the local variable */
 301:.\BLEApplications.c **** 		CapSenseCCCDvalue[0] = sendCapSenseSliderNotifications;
 451              		.loc 1 301 0
 452 0014 104B     		ldr	r3, .L23+4
 453 0016 1A78     		ldrb	r2, [r3]
 454 0018 3B1C     		mov	r3, r7
 455 001a 0C33     		add	r3, r3, #12
 456 001c 1A70     		strb	r2, [r3]
 302:.\BLEApplications.c **** 		CapSenseCCCDvalue[1] = 0x00;
 457              		.loc 1 302 0
 458 001e 3B1C     		mov	r3, r7
 459 0020 0C33     		add	r3, r3, #12
 460 0022 0022     		mov	r2, #0
 461 0024 5A70     		strb	r2, [r3, #1]
 303:.\BLEApplications.c **** 		
ARM GAS  C:\Users\jsing\AppData\Local\Temp\ccFY32ST.s 			page 15


 304:.\BLEApplications.c **** 		/* Update CCCD handle with notification status data*/
 305:.\BLEApplications.c **** 		CapSenseNotificationCCCDhandle.attrHandle = CAPSENSE_CCC_HANDLE;
 462              		.loc 1 305 0
 463 0026 3B1C     		mov	r3, r7
 464 0028 0F22     		mov	r2, #15
 465 002a 1A81     		strh	r2, [r3, #8]
 306:.\BLEApplications.c **** 		CapSenseNotificationCCCDhandle.value.val = CapSenseCCCDvalue;
 466              		.loc 1 306 0
 467 002c 3B1C     		mov	r3, r7
 468 002e 3A1C     		mov	r2, r7
 469 0030 0C32     		add	r2, r2, #12
 470 0032 1A60     		str	r2, [r3]
 307:.\BLEApplications.c **** 		CapSenseNotificationCCCDhandle.value.len = CCC_DATA_LEN;
 471              		.loc 1 307 0
 472 0034 3B1C     		mov	r3, r7
 473 0036 0222     		mov	r2, #2
 474 0038 9A80     		strh	r2, [r3, #4]
 308:.\BLEApplications.c **** 		
 309:.\BLEApplications.c **** 		/* Report data to BLE component for sending data when read by Central device */
 310:.\BLEApplications.c **** 		CyBle_GattsWriteAttributeValue(&CapSenseNotificationCCCDhandle, ZERO, &cyBle_connHandle, CYBLE_GA
 475              		.loc 1 310 0
 476 003a 3A1C     		mov	r2, r7
 477 003c 074B     		ldr	r3, .L23+8
 478 003e 101C     		mov	r0, r2
 479 0040 0021     		mov	r1, #0
 480 0042 1A1C     		mov	r2, r3
 481 0044 0023     		mov	r3, #0
 482 0046 FFF7FEFF 		bl	CyBle_GattsWriteAttributeValue
 311:.\BLEApplications.c **** 		
 312:.\BLEApplications.c **** 		/* Register the updated attribute write value to BLE component once before
 313:.\BLEApplications.c **** 		* updating the next CCCD attribute value */
 314:.\BLEApplications.c **** 		CyBle_ProcessEvents();
 483              		.loc 1 314 0
 484 004a FFF7FEFF 		bl	CyBle_ProcessEvents
 485              	.L21:
 315:.\BLEApplications.c **** 	}	
 316:.\BLEApplications.c **** }
 486              		.loc 1 316 0
 487 004e BD46     		mov	sp, r7
 488 0050 04B0     		add	sp, sp, #16
 489              		@ sp needed
 490 0052 80BD     		pop	{r7, pc}
 491              	.L24:
 492              		.align	2
 493              	.L23:
 494 0054 00000000 		.word	updateNotificationCCCAttribute
 495 0058 00000000 		.word	sendCapSenseSliderNotifications
 496 005c 00000000 		.word	cyBle_connHandle
 497              		.cfi_endproc
 498              	.LFE38:
 499              		.size	UpdateNotificationCCCD, .-UpdateNotificationCCCD
 500              		.text
 501              	.Letext0:
 502              		.file 2 ".\\Generated_Source\\PSoC4/cytypes.h"
 503              		.file 3 ".\\Generated_Source\\PSoC4/BLE_1_StackGatt.h"
 504              		.file 4 ".\\Generated_Source\\PSoC4/BLE_1_StackGattServer.h"
 505              		.file 5 ".\\Generated_Source\\PSoC4/BLE_1_custom.h"
ARM GAS  C:\Users\jsing\AppData\Local\Temp\ccFY32ST.s 			page 16


 506              		.file 6 ".\\Generated_Source\\PSoC4/BLE_1_eventHandler.h"
 507              		.file 7 ".\\Generated_Source\\PSoC4/BLE_1_Stack.h"